
Dump of file D:\Downloads\install-houdini-launcher.exe

File Type: EXECUTABLE IMAGE

  00401000: 55                 push        ebp
  00401001: 8B EC              mov         ebp,esp
  00401003: 83 EC 5C           sub         esp,5Ch
  00401006: 83 7D 0C 0F        cmp         dword ptr [ebp+0Ch],0Fh
  0040100A: 74 2B              je          00401037
  0040100C: 83 7D 0C 46        cmp         dword ptr [ebp+0Ch],46h
  00401010: 8B 45 14           mov         eax,dword ptr [ebp+14h]
  00401013: 75 0D              jne         00401022
  00401015: 83 48 18 10        or          dword ptr [eax+18h],10h
  00401019: 8B 0D 68 A2 42 00  mov         ecx,dword ptr ds:[0042A268h]
  0040101F: 89 48 04           mov         dword ptr [eax+4],ecx
  00401022: 50                 push        eax
  00401023: FF 75 10           push        dword ptr [ebp+10h]
  00401026: FF 75 0C           push        dword ptr [ebp+0Ch]
  00401029: FF 75 08           push        dword ptr [ebp+8]
  0040102C: FF 15 84 82 40 00  call        dword ptr ds:[00408284h]
  00401032: E9 42 01 00 00     jmp         00401179
  00401037: 53                 push        ebx
  00401038: 56                 push        esi
  00401039: 8B 35 74 A2 42 00  mov         esi,dword ptr ds:[0042A274h]
  0040103F: 8D 45 A4           lea         eax,[ebp-5Ch]
  00401042: 57                 push        edi
  00401043: 50                 push        eax
  00401044: FF 75 08           push        dword ptr [ebp+8]
  00401047: FF 15 88 82 40 00  call        dword ptr ds:[00408288h]
  0040104D: 83 65 F4 00        and         dword ptr [ebp-0Ch],0
  00401051: 89 45 0C           mov         dword ptr [ebp+0Ch],eax
  00401054: 8D 45 E4           lea         eax,[ebp-1Ch]
  00401057: 50                 push        eax
  00401058: FF 75 08           push        dword ptr [ebp+8]
  0040105B: FF 15 94 81 40 00  call        dword ptr ds:[00408194h]
  00401061: 8B 7D F0           mov         edi,dword ptr [ebp-10h]
  00401064: 83 65 F0 00        and         dword ptr [ebp-10h],0
  00401068: 8B 1D 60 80 40 00  mov         ebx,dword ptr ds:[00408060h]
  0040106E: E9 80 00 00 00     jmp         004010F3
  00401073: 0F B6 46 52        movzx       eax,byte ptr [esi+52h]
  00401077: 0F B6 56 56        movzx       edx,byte ptr [esi+56h]
  0040107B: 0F AF 55 E8        imul        edx,dword ptr [ebp-18h]
  0040107F: 8B CF              mov         ecx,edi
  00401081: 2B 4D E8           sub         ecx,dword ptr [ebp-18h]
  00401084: 0F AF C1           imul        eax,ecx
  00401087: 03 C2              add         eax,edx
  00401089: 89 4D 10           mov         dword ptr [ebp+10h],ecx
  0040108C: 99                 cdq
  0040108D: F7 FF              idiv        eax,edi
  0040108F: 33 D2              xor         edx,edx
  00401091: 8A F0              mov         dh,al
  00401093: 0F B6 46 51        movzx       eax,byte ptr [esi+51h]
  00401097: 0F AF C1           imul        eax,ecx
  0040109A: 0F B6 4E 55        movzx       ecx,byte ptr [esi+55h]
  0040109E: 0F AF 4D E8        imul        ecx,dword ptr [ebp-18h]
  004010A2: 03 C1              add         eax,ecx
  004010A4: 8B CA              mov         ecx,edx
  004010A6: 99                 cdq
  004010A7: F7 FF              idiv        eax,edi
  004010A9: 0F B6 56 54        movzx       edx,byte ptr [esi+54h]
  004010AD: 0F AF 55 E8        imul        edx,dword ptr [ebp-18h]
  004010B1: 8A C8              mov         cl,al
  004010B3: 0F B6 46 50        movzx       eax,byte ptr [esi+50h]
  004010B7: 0F AF 45 10        imul        eax,dword ptr [ebp+10h]
  004010BB: 03 C2              add         eax,edx
  004010BD: 99                 cdq
  004010BE: F7 FF              idiv        eax,edi
  004010C0: C1 E1 08           shl         ecx,8
  004010C3: 0F B6 C0           movzx       eax,al
  004010C6: 0B C8              or          ecx,eax
  004010C8: 8D 45 F4           lea         eax,[ebp-0Ch]
  004010CB: 50                 push        eax
  004010CC: 89 4D F8           mov         dword ptr [ebp-8],ecx
  004010CF: FF 15 5C 80 40 00  call        dword ptr ds:[0040805Ch]
  004010D5: 83 45 F0 04        add         dword ptr [ebp-10h],4
  004010D9: 89 45 14           mov         dword ptr [ebp+14h],eax
  004010DC: 50                 push        eax
  004010DD: 8D 45 E4           lea         eax,[ebp-1Ch]
  004010E0: 50                 push        eax
  004010E1: FF 75 0C           push        dword ptr [ebp+0Ch]
  004010E4: FF 15 C4 81 40 00  call        dword ptr ds:[004081C4h]
  004010EA: FF 75 14           push        dword ptr [ebp+14h]
  004010ED: FF D3              call        ebx
  004010EF: 83 45 E8 04        add         dword ptr [ebp-18h],4
  004010F3: 39 7D E8           cmp         dword ptr [ebp-18h],edi
  004010F6: 0F 8C 77 FF FF FF  jl          00401073
  004010FC: 83 7E 58 FF        cmp         dword ptr [esi+58h],0FFFFFFFFh
  00401100: 74 65              je          00401167
  00401102: FF 76 34           push        dword ptr [esi+34h]
  00401105: FF 15 58 80 40 00  call        dword ptr ds:[00408058h]
  0040110B: 85 C0              test        eax,eax
  0040110D: 89 45 14           mov         dword ptr [ebp+14h],eax
  00401110: 74 55              je          00401167
  00401112: 8B 7D 0C           mov         edi,dword ptr [ebp+0Ch]
  00401115: 6A 01              push        1
  00401117: 57                 push        edi
  00401118: C7 45 E4 10 00 00  mov         dword ptr [ebp-1Ch],10h
            00
  0040111F: C7 45 E8 08 00 00  mov         dword ptr [ebp-18h],8
            00
  00401126: FF 15 4C 80 40 00  call        dword ptr ds:[0040804Ch]
  0040112C: FF 76 58           push        dword ptr [esi+58h]
  0040112F: 57                 push        edi
  00401130: FF 15 64 80 40 00  call        dword ptr ds:[00408064h]
  00401136: FF 75 14           push        dword ptr [ebp+14h]
  00401139: 8B 35 68 80 40 00  mov         esi,dword ptr ds:[00408068h]
  0040113F: 57                 push        edi
  00401140: FF D6              call        esi
  00401142: 89 45 0C           mov         dword ptr [ebp+0Ch],eax
  00401145: 8D 45 E4           lea         eax,[ebp-1Ch]
  00401148: 68 20 08 00 00     push        820h
  0040114D: 50                 push        eax
  0040114E: 6A FF              push        0FFFFFFFFh
  00401150: 68 60 92 42 00     push        429260h
  00401155: 57                 push        edi
  00401156: FF 15 9C 81 40 00  call        dword ptr ds:[0040819Ch]
  0040115C: FF 75 0C           push        dword ptr [ebp+0Ch]
  0040115F: 57                 push        edi
  00401160: FF D6              call        esi
  00401162: FF 75 14           push        dword ptr [ebp+14h]
  00401165: FF D3              call        ebx
  00401167: 8D 45 A4           lea         eax,[ebp-5Ch]
  0040116A: 50                 push        eax
  0040116B: FF 75 08           push        dword ptr [ebp+8]
  0040116E: FF 15 98 81 40 00  call        dword ptr ds:[00408198h]
  00401174: 5F                 pop         edi
  00401175: 5E                 pop         esi
  00401176: 33 C0              xor         eax,eax
  00401178: 5B                 pop         ebx
  00401179: C9                 leave
  0040117A: C2 10 00           ret         10h
  0040117D: 8B 4C 24 04        mov         ecx,dword ptr [esp+4]
  00401181: A1 A8 A2 42 00     mov         eax,dword ptr ds:[0042A2A8h]
  00401186: 8B D1              mov         edx,ecx
  00401188: 53                 push        ebx
  00401189: 69 D2 18 08 00 00  imul        edx,edx,818h
  0040118F: 56                 push        esi
  00401190: 57                 push        edi
  00401191: 8B 54 02 08        mov         edx,dword ptr [edx+eax+8]
  00401195: F6 C2 02           test        dl,2
  00401198: 74 4F              je          004011E9
  0040119A: 8D 71 01           lea         esi,[ecx+1]
  0040119D: 33 FF              xor         edi,edi
  0040119F: 3B 35 AC A2 42 00  cmp         esi,dword ptr ds:[0042A2ACh]
  004011A5: 73 42              jae         004011E9
  004011A7: 8B CE              mov         ecx,esi
  004011A9: 69 C9 18 08 00 00  imul        ecx,ecx,818h
  004011AF: 8D 44 01 08        lea         eax,[ecx+eax+8]
  004011B3: 8B 08              mov         ecx,dword ptr [eax]
  004011B5: F6 C1 02           test        cl,2
  004011B8: 74 03              je          004011BD
  004011BA: 47                 inc         edi
  004011BB: EB 1E              jmp         004011DB
  004011BD: F6 C1 04           test        cl,4
  004011C0: 74 09              je          004011CB
  004011C2: 8B CF              mov         ecx,edi
  004011C4: 4F                 dec         edi
  004011C5: 85 C9              test        ecx,ecx
  004011C7: 74 20              je          004011E9
  004011C9: EB 10              jmp         004011DB
  004011CB: F6 C1 10           test        cl,10h
  004011CE: 75 0B              jne         004011DB
  004011D0: 8B D9              mov         ebx,ecx
  004011D2: 33 DA              xor         ebx,edx
  004011D4: 83 E3 01           and         ebx,1
  004011D7: 33 D9              xor         ebx,ecx
  004011D9: 89 18              mov         dword ptr [eax],ebx
  004011DB: 46                 inc         esi
  004011DC: 05 18 08 00 00     add         eax,818h
  004011E1: 3B 35 AC A2 42 00  cmp         esi,dword ptr ds:[0042A2ACh]
  004011E7: 72 CA              jb          004011B3
  004011E9: 5F                 pop         edi
  004011EA: 5E                 pop         esi
  004011EB: 5B                 pop         ebx
  004011EC: C2 04 00           ret         4
  004011EF: 55                 push        ebp
  004011F0: 8B EC              mov         ebp,esp
  004011F2: 51                 push        ecx
  004011F3: 51                 push        ecx
  004011F4: 8B 55 08           mov         edx,dword ptr [ebp+8]
  004011F7: 53                 push        ebx
  004011F8: 56                 push        esi
  004011F9: 8B F2              mov         esi,edx
  004011FB: 69 F6 18 08 00 00  imul        esi,esi,818h
  00401201: 8B 1D A8 A2 42 00  mov         ebx,dword ptr ds:[0042A2A8h]
  00401207: 33 C9              xor         ecx,ecx
  00401209: 03 F3              add         esi,ebx
  0040120B: 57                 push        edi
  0040120C: 89 4D FC           mov         dword ptr [ebp-4],ecx
  0040120F: 89 4D F8           mov         dword ptr [ebp-8],ecx
  00401212: 8B 46 08           mov         eax,dword ptr [esi+8]
  00401215: A8 02              test        al,2
  00401217: 74 0B              je          00401224
  00401219: 39 4D 0C           cmp         dword ptr [ebp+0Ch],ecx
  0040121C: 74 06              je          00401224
  0040121E: 24 BE              and         al,0BEh
  00401220: 42                 inc         edx
  00401221: 89 46 08           mov         dword ptr [esi+8],eax
  00401224: 3B 15 AC A2 42 00  cmp         edx,dword ptr ds:[0042A2ACh]
  0040122A: 73 44              jae         00401270
  0040122C: 8B C2              mov         eax,edx
  0040122E: 69 C0 18 08 00 00  imul        eax,eax,818h
  00401234: 8D 7C 18 08        lea         edi,[eax+ebx+8]
  00401238: 8D 42 01           lea         eax,[edx+1]
  0040123B: 8B 0F              mov         ecx,dword ptr [edi]
  0040123D: F6 C1 02           test        cl,2
  00401240: 74 0A              je          0040124C
  00401242: 6A 01              push        1
  00401244: 52                 push        edx
  00401245: E8 A5 FF FF FF     call        004011EF
  0040124A: 8B 0F              mov         ecx,dword ptr [edi]
  0040124C: F6 C1 04           test        cl,4
  0040124F: 75 28              jne         00401279
  00401251: F6 C1 40           test        cl,40h
  00401254: 74 03              je          00401259
  00401256: FF 45 FC           inc         dword ptr [ebp-4]
  00401259: F6 C1 01           test        cl,1
  0040125C: 74 05              je          00401263
  0040125E: FF 45 FC           inc         dword ptr [ebp-4]
  00401261: EB 03              jmp         00401266
  00401263: FF 45 F8           inc         dword ptr [ebp-8]
  00401266: 3B 05 AC A2 42 00  cmp         eax,dword ptr ds:[0042A2ACh]
  0040126C: 8B D0              mov         edx,eax
  0040126E: 72 BC              jb          0040122C
  00401270: 33 C0              xor         eax,eax
  00401272: 5F                 pop         edi
  00401273: 5E                 pop         esi
  00401274: 5B                 pop         ebx
  00401275: C9                 leave
  00401276: C2 08 00           ret         8
  00401279: 83 7D FC 00        cmp         dword ptr [ebp-4],0
  0040127D: 74 F3              je          00401272
  0040127F: 83 7D F8 00        cmp         dword ptr [ebp-8],0
  00401283: 74 06              je          0040128B
  00401285: 83 4E 08 40        or          dword ptr [esi+8],40h
  00401289: EB E7              jmp         00401272
  0040128B: 8B 4E 08           mov         ecx,dword ptr [esi+8]
  0040128E: 80 E1 7F           and         cl,7Fh
  00401291: 83 C9 01           or          ecx,1
  00401294: 89 4E 08           mov         dword ptr [esi+8],ecx
  00401297: EB D9              jmp         00401272
  00401299: 8B 4C 24 04        mov         ecx,dword ptr [esp+4]
  0040129D: A1 A8 A2 42 00     mov         eax,dword ptr ds:[0042A2A8h]
  004012A2: 56                 push        esi
  004012A3: 33 F6              xor         esi,esi
  004012A5: 83 F9 20           cmp         ecx,20h
  004012A8: 73 34              jae         004012DE
  004012AA: 39 35 AC A2 42 00  cmp         dword ptr ds:[0042A2ACh],esi
  004012B0: 76 2C              jbe         004012DE
  004012B2: 8D 50 08           lea         edx,[eax+8]
  004012B5: 57                 push        edi
  004012B6: 8B 02              mov         eax,dword ptr [edx]
  004012B8: A8 06              test        al,6
  004012BA: 75 12              jne         004012CE
  004012BC: 33 FF              xor         edi,edi
  004012BE: 47                 inc         edi
  004012BF: D3 E7              shl         edi,cl
  004012C1: 85 7A FC           test        dword ptr [edx-4],edi
  004012C4: 74 04              je          004012CA
  004012C6: 0C 01              or          al,1
  004012C8: EB 02              jmp         004012CC
  004012CA: 24 FE              and         al,0FEh
  004012CC: 89 02              mov         dword ptr [edx],eax
  004012CE: 46                 inc         esi
  004012CF: 81 C2 18 08 00 00  add         edx,818h
  004012D5: 3B 35 AC A2 42 00  cmp         esi,dword ptr ds:[0042A2ACh]
  004012DB: 72 D9              jb          004012B6
  004012DD: 5F                 pop         edi
  004012DE: 5E                 pop         esi
  004012DF: C2 04 00           ret         4
  004012E2: 55                 push        ebp
  004012E3: 8B EC              mov         ebp,esp
  004012E5: 83 EC 0C           sub         esp,0Ch
  004012E8: A1 74 A2 42 00     mov         eax,dword ptr ds:[0042A274h]
  004012ED: 83 65 FC 00        and         dword ptr [ebp-4],0
  004012F1: 53                 push        ebx
  004012F2: 56                 push        esi
  004012F3: 05 94 00 00 00     add         eax,94h
  004012F8: 57                 push        edi
  004012F9: 8B 3D AC A2 42 00  mov         edi,dword ptr ds:[0042A2ACh]
  004012FF: 89 45 F8           mov         dword ptr [ebp-8],eax
  00401302: 8B 45 F8           mov         eax,dword ptr [ebp-8]
  00401305: 33 DB              xor         ebx,ebx
  00401307: 39 18              cmp         dword ptr [eax],ebx
  00401309: 74 4B              je          00401356
  0040130B: 3B DF              cmp         ebx,edi
  0040130D: 73 45              jae         00401354
  0040130F: 8B 35 A8 A2 42 00  mov         esi,dword ptr ds:[0042A2A8h]
  00401315: 83 C6 08           add         esi,8
  00401318: 8B 16              mov         edx,dword ptr [esi]
  0040131A: F6 C2 06           test        dl,6
  0040131D: 75 28              jne         00401347
  0040131F: 8B 45 08           mov         eax,dword ptr [ebp+8]
  00401322: 85 C0              test        eax,eax
  00401324: 74 06              je          0040132C
  00401326: 83 3C 98 00        cmp         dword ptr [eax+ebx*4],0
  0040132A: 74 1B              je          00401347
  0040132C: 8B 4D FC           mov         ecx,dword ptr [ebp-4]
  0040132F: 33 C0              xor         eax,eax
  00401331: 40                 inc         eax
  00401332: 83 E2 01           and         edx,1
  00401335: D3 E0              shl         eax,cl
  00401337: 8B 4E FC           mov         ecx,dword ptr [esi-4]
  0040133A: 23 C8              and         ecx,eax
  0040133C: 8B C1              mov         eax,ecx
  0040133E: 8B 4D FC           mov         ecx,dword ptr [ebp-4]
  00401341: D3 E2              shl         edx,cl
  00401343: 3B C2              cmp         eax,edx
  00401345: 75 0B              jne         00401352
  00401347: 43                 inc         ebx
  00401348: 81 C6 18 08 00 00  add         esi,818h
  0040134E: 3B DF              cmp         ebx,edi
  00401350: 72 C6              jb          00401318
  00401352: 3B DF              cmp         ebx,edi
  00401354: 74 0D              je          00401363
  00401356: FF 45 FC           inc         dword ptr [ebp-4]
  00401359: 83 45 F8 04        add         dword ptr [ebp-8],4
  0040135D: 83 7D FC 20        cmp         dword ptr [ebp-4],20h
  00401361: 72 9F              jb          00401302
  00401363: 8B 45 FC           mov         eax,dword ptr [ebp-4]
  00401366: 5F                 pop         edi
  00401367: 5E                 pop         esi
  00401368: 5B                 pop         ebx
  00401369: C9                 leave
  0040136A: C2 04 00           ret         4
  0040136D: 8B 44 24 04        mov         eax,dword ptr [esp+4]
  00401371: 85 C0              test        eax,eax
  00401373: 7D 11              jge         00401386
  00401375: 40                 inc         eax
  00401376: B9 00 B0 42 00     mov         ecx,42B000h
  0040137B: C1 E0 0B           shl         eax,0Bh
  0040137E: 2B C8              sub         ecx,eax
  00401380: 51                 push        ecx
  00401381: E8 16 51 00 00     call        0040649C
  00401386: C2 04 00           ret         4
  00401389: 56                 push        esi
  0040138A: 8B 74 24 08        mov         esi,dword ptr [esp+8]
  0040138E: EB 6A              jmp         004013FA
  00401390: 8B C6              mov         eax,esi
  00401392: 8B 0D B0 A2 42 00  mov         ecx,dword ptr ds:[0042A2B0h]
  00401398: 6B C0 1C           imul        eax,eax,1Ch
  0040139B: 03 C1              add         eax,ecx
  0040139D: 83 38 01           cmp         dword ptr [eax],1
  004013A0: 74 5C              je          004013FE
  004013A2: 50                 push        eax
  004013A3: E8 8C 00 00 00     call        00401434
  004013A8: 3D FF FF FF 7F     cmp         eax,7FFFFFFFh
  004013AD: 74 55              je          00401404
  004013AF: 50                 push        eax
  004013B0: E8 B8 FF FF FF     call        0040136D
  004013B5: 85 C0              test        eax,eax
  004013B7: 75 04              jne         004013BD
  004013B9: 40                 inc         eax
  004013BA: 46                 inc         esi
  004013BB: EB 07              jmp         004013C4
  004013BD: 48                 dec         eax
  004013BE: 8B CE              mov         ecx,esi
  004013C0: 8B F0              mov         esi,eax
  004013C2: 2B C1              sub         eax,ecx
  004013C4: 83 7C 24 0C 00     cmp         dword ptr [esp+0Ch],0
  004013C9: 74 2F              je          004013FA
  004013CB: 01 05 4C 92 42 00  add         dword ptr ds:[0042924Ch],eax
  004013D1: 6A 00              push        0
  004013D3: FF 35 34 92 42 00  push        dword ptr ds:[00429234h]
  004013D9: 68 30 75 00 00     push        7530h
  004013DE: FF 35 4C 92 42 00  push        dword ptr ds:[0042924Ch]
  004013E4: FF 15 FC 80 40 00  call        dword ptr ds:[004080FCh]
  004013EA: 50                 push        eax
  004013EB: 68 02 04 00 00     push        402h
  004013F0: FF 74 24 18        push        dword ptr [esp+18h]
  004013F4: FF 15 80 82 40 00  call        dword ptr ds:[00408280h]
  004013FA: 85 F6              test        esi,esi
  004013FC: 7D 92              jge         00401390
  004013FE: 33 C0              xor         eax,eax
  00401400: 5E                 pop         esi
  00401401: C2 08 00           ret         8
  00401404: B8 FF FF FF 7F     mov         eax,7FFFFFFFh
  00401409: EB F5              jmp         00401400
  0040140B: 8B 44 24 04        mov         eax,dword ptr [esp+4]
  0040140F: 8B 0D 74 A2 42 00  mov         ecx,dword ptr ds:[0042A274h]
  00401415: 6A 00              push        0
  00401417: FF 74 81 6C        push        dword ptr [ecx+eax*4+6Ch]
  0040141B: E8 69 FF FF FF     call        00401389
  00401420: C2 04 00           ret         4
  00401423: 68 F8 AD 40 00     push        40ADF8h
  00401428: FF 74 24 08        push        dword ptr [esp+8]
  0040142C: E8 73 41 00 00     call        004055A4
  00401431: C2 04 00           ret         4
  00401434: 55                 push        ebp
  00401435: 8B EC              mov         ebp,esp
  00401437: 81 EC DC 02 00 00  sub         esp,2DCh
  0040143D: 53                 push        ebx
  0040143E: 56                 push        esi
  0040143F: 8B 75 08           mov         esi,dword ptr [ebp+8]
  00401442: 57                 push        edi
  00401443: A1 68 A2 42 00     mov         eax,dword ptr ds:[0042A268h]
  00401448: 6A 07              push        7
  0040144A: 59                 pop         ecx
  0040144B: 8D 7D CC           lea         edi,[ebp-34h]
  0040144E: F3 A5              rep movs    dword ptr es:[edi],dword ptr [esi]
  00401450: 8B 4D D4           mov         ecx,dword ptr [ebp-2Ch]
  00401453: 8B 55 CC           mov         edx,dword ptr [ebp-34h]
  00401456: BE 00 B0 42 00     mov         esi,42B000h
  0040145B: 89 45 F8           mov         dword ptr [ebp-8],eax
  0040145E: 8B 45 D0           mov         eax,dword ptr [ebp-30h]
  00401461: 33 DB              xor         ebx,ebx
  00401463: C1 E1 0B           shl         ecx,0Bh
  00401466: 03 CE              add         ecx,esi
  00401468: 8B F8              mov         edi,eax
  0040146A: 89 4D F4           mov         dword ptr [ebp-0Ch],ecx
  0040146D: 8D 4D D0           lea         ecx,[ebp-30h]
  00401470: C1 E7 0B           shl         edi,0Bh
  00401473: 89 0D 54 CE 40 00  mov         dword ptr ds:[0040CE54h],ecx
  00401479: 8D 4A FE           lea         ecx,[edx-2]
  0040147C: 03 FE              add         edi,esi
  0040147E: 83 F9 43           cmp         ecx,43h
  00401481: 89 5D FC           mov         dword ptr [ebp-4],ebx
  00401484: 0F 87 38 17 00 00  ja          00402BC2
  0040148A: FF 24 8D D4 2B 40  jmp         dword ptr [ecx*4+00402BD4h]
            00
  00401491: 53                 push        ebx
  00401492: 50                 push        eax
  00401493: E8 0C 41 00 00     call        004055A4
  00401498: E9 F8 0E 00 00     jmp         00402395
  0040149D: FF 05 2C 92 42 00  inc         dword ptr ds:[0042922Ch]
  004014A3: 39 5D F8           cmp         dword ptr [ebp-8],ebx
  004014A6: 0F 84 E9 0E 00 00  je          00402395
  004014AC: 53                 push        ebx
  004014AD: FF 15 48 82 40 00  call        dword ptr ds:[00408248h]
  004014B3: E9 DD 0E 00 00     jmp         00402395
  004014B8: 50                 push        eax
  004014B9: E8 AF FE FF FF     call        0040136D
  004014BE: 48                 dec         eax
  004014BF: 53                 push        ebx
  004014C0: 50                 push        eax
  004014C1: E8 C3 FE FF FF     call        00401389
  004014C6: E9 02 17 00 00     jmp         00402BCD
  004014CB: 53                 push        ebx
  004014CC: 50                 push        eax
  004014CD: E8 D2 40 00 00     call        004055A4
  004014D2: E9 EB 16 00 00     jmp         00402BC2
  004014D7: 53                 push        ebx
  004014D8: E8 3F 18 00 00     call        00402D1C
  004014DD: 83 F8 01           cmp         eax,1
  004014E0: 59                 pop         ecx
  004014E1: 89 55 F0           mov         dword ptr [ebp-10h],edx
  004014E4: 7F 03              jg          004014E9
  004014E6: 33 C0              xor         eax,eax
  004014E8: 40                 inc         eax
  004014E9: 50                 push        eax
  004014EA: FF 15 88 80 40 00  call        dword ptr ds:[00408088h]
  004014F0: E9 CD 16 00 00     jmp         00402BC2
  004014F5: FF 75 F8           push        dword ptr [ebp-8]
  004014F8: FF 15 4C 82 40 00  call        dword ptr ds:[0040824Ch]
  004014FE: E9 BF 16 00 00     jmp         00402BC2
  00401503: C1 E0 02           shl         eax,2
  00401506: 39 5D D8           cmp         dword ptr [ebp-28h],ebx
  00401509: 75 26              jne         00401531
  0040150B: 8B 88 00 A3 42 00  mov         ecx,dword ptr [eax+0042A300h]
  00401511: 6A 01              push        1
  00401513: 89 88 40 A3 42 00  mov         dword ptr [eax+0042A340h],ecx
  00401519: E8 FE 17 00 00     call        00402D1C
  0040151E: 59                 pop         ecx
  0040151F: 89 55 F0           mov         dword ptr [ebp-10h],edx
  00401522: 8B 4D D0           mov         ecx,dword ptr [ebp-30h]
  00401525: 89 04 8D 00 A3 42  mov         dword ptr [ecx*4+0042A300h],eax
            00
  0040152C: E9 91 16 00 00     jmp         00402BC2
  00401531: 8B 88 40 A3 42 00  mov         ecx,dword ptr [eax+0042A340h]
  00401537: 89 88 00 A3 42 00  mov         dword ptr [eax+0042A300h],ecx
  0040153D: E9 80 16 00 00     jmp         00402BC2
  00401542: 8B 45 D8           mov         eax,dword ptr [ebp-28h]
  00401545: 8D 34 85 00 A3 42  lea         esi,[eax*4+0042A300h]
            00
  0040154C: 33 C0              xor         eax,eax
  0040154E: 8B 0E              mov         ecx,dword ptr [esi]
  00401550: 3B CB              cmp         ecx,ebx
  00401552: 0F 94 C0           sete        al
  00401555: 23 4D DC           and         ecx,dword ptr [ebp-24h]
  00401558: 8B 44 85 D0        mov         eax,dword ptr [ebp+eax*4-30h]
  0040155C: 89 0E              mov         dword ptr [esi],ecx
  0040155E: E9 6A 16 00 00     jmp         00402BCD
  00401563: 8B 45 D4           mov         eax,dword ptr [ebp-2Ch]
  00401566: FF 34 85 00 A3 42  push        dword ptr [eax*4+0042A300h]
            00
  0040156D: 57                 push        edi
  0040156E: E9 95 15 00 00     jmp         00402B08
  00401573: 8B 0D 30 92 42 00  mov         ecx,dword ptr ds:[00429230h]
  00401579: 8B 35 50 82 40 00  mov         esi,dword ptr ds:[00408250h]
  0040157F: 3B CB              cmp         ecx,ebx
  00401581: 74 09              je          0040158C
  00401583: FF 75 D4           push        dword ptr [ebp-2Ch]
  00401586: 51                 push        ecx
  00401587: FF D6              call        esi
  00401589: 8B 45 D0           mov         eax,dword ptr [ebp-30h]
  0040158C: 8B 0D 44 92 42 00  mov         ecx,dword ptr ds:[00429244h]
  00401592: 3B CB              cmp         ecx,ebx
  00401594: 0F 84 28 16 00 00  je          00402BC2
  0040159A: 50                 push        eax
  0040159B: 51                 push        ecx
  0040159C: FF D6              call        esi
  0040159E: E9 1F 16 00 00     jmp         00402BC2
  004015A3: 6A F0              push        0FFFFFFF0h
  004015A5: E8 94 17 00 00     call        00402D3E
  004015AA: FF 75 D4           push        dword ptr [ebp-2Ch]
  004015AD: 50                 push        eax
  004015AE: FF 15 00 81 40 00  call        dword ptr ds:[00408100h]
  004015B4: 85 C0              test        eax,eax
  004015B6: 0F 85 06 16 00 00  jne         00402BC2
  004015BC: E9 64 13 00 00     jmp         00402925
  004015C1: 6A F0              push        0FFFFFFF0h
  004015C3: E8 76 17 00 00     call        00402D3E
  004015C8: 50                 push        eax
  004015C9: 89 45 08           mov         dword ptr [ebp+8],eax
  004015CC: E8 EB 48 00 00     call        00405EBC
  004015D1: 8B F0              mov         esi,eax
  004015D3: 3B F3              cmp         esi,ebx
  004015D5: 74 5A              je          00401631
  004015D7: 6A 5C              push        5Ch
  004015D9: 56                 push        esi
  004015DA: E8 5F 48 00 00     call        00405E3E
  004015DF: 8B F0              mov         esi,eax
  004015E1: 66 8B 3E           mov         di,word ptr [esi]
  004015E4: 66 89 1E           mov         word ptr [esi],bx
  004015E7: 66 3B FB           cmp         di,bx
  004015EA: 75 18              jne         00401604
  004015EC: 39 5D D8           cmp         dword ptr [ebp-28h],ebx
  004015EF: 74 13              je          00401604
  004015F1: E8 17 45 00 00     call        00405B0D
  004015F6: 85 C0              test        eax,eax
  004015F8: 74 0A              je          00401604
  004015FA: FF 75 08           push        dword ptr [ebp+8]
  004015FD: E8 71 44 00 00     call        00405A73
  00401602: EB 08              jmp         0040160C
  00401604: FF 75 08           push        dword ptr [ebp+8]
  00401607: E8 E4 44 00 00     call        00405AF0
  0040160C: 3B C3              cmp         eax,ebx
  0040160E: 74 17              je          00401627
  00401610: 3D B7 00 00 00     cmp         eax,0B7h
  00401615: 75 0D              jne         00401624
  00401617: FF 75 08           push        dword ptr [ebp+8]
  0040161A: FF 15 04 81 40 00  call        dword ptr ds:[00408104h]
  00401620: A8 10              test        al,10h
  00401622: 75 03              jne         00401627
  00401624: FF 45 FC           inc         dword ptr [ebp-4]
  00401627: 66 89 3E           mov         word ptr [esi],di
  0040162A: 46                 inc         esi
  0040162B: 46                 inc         esi
  0040162C: 66 3B FB           cmp         di,bx
  0040162F: 75 A6              jne         004015D7
  00401631: 39 5D D4           cmp         dword ptr [ebp-2Ch],ebx
  00401634: 74 2D              je          00401663
  00401636: 6A E6              push        0FFFFFFE6h
  00401638: E8 E6 FD FF FF     call        00401423
  0040163D: FF 75 08           push        dword ptr [ebp+8]
  00401640: 68 00 60 43 00     push        436000h
  00401645: E8 F2 4E 00 00     call        0040653C
  0040164A: FF 75 08           push        dword ptr [ebp+8]
  0040164D: FF 15 08 81 40 00  call        dword ptr ds:[00408108h]
  00401653: 85 C0              test        eax,eax
  00401655: 0F 85 67 15 00 00  jne         00402BC2
  0040165B: FF 45 FC           inc         dword ptr [ebp-4]
  0040165E: E9 5F 15 00 00     jmp         00402BC2
  00401663: 6A F5              push        0FFFFFFF5h
  00401665: E9 7F 0C 00 00     jmp         004022E9
  0040166A: 53                 push        ebx
  0040166B: E8 CE 16 00 00     call        00402D3E
  00401670: 50                 push        eax
  00401671: E8 24 52 00 00     call        0040689A
  00401676: E9 AD 06 00 00     jmp         00401D28
  0040167B: 6A D0              push        0FFFFFFD0h
  0040167D: E8 BC 16 00 00     call        00402D3E
  00401682: 6A DF              push        0FFFFFFDFh
  00401684: 8B F0              mov         esi,eax
  00401686: E8 B3 16 00 00     call        00402D3E
  0040168B: 6A 13              push        13h
  0040168D: 8B F8              mov         edi,eax
  0040168F: E8 AA 16 00 00     call        00402D3E
  00401694: 57                 push        edi
  00401695: 56                 push        esi
  00401696: FF 15 0C 81 40 00  call        dword ptr ds:[0040810Ch]
  0040169C: 85 C0              test        eax,eax
  0040169E: 74 07              je          004016A7
  004016A0: 6A E3              push        0FFFFFFE3h
  004016A2: E9 42 0C 00 00     jmp         004022E9
  004016A7: 39 5D D8           cmp         dword ptr [ebp-28h],ebx
  004016AA: 0F 84 75 12 00 00  je          00402925
  004016B0: 56                 push        esi
  004016B1: E8 E4 51 00 00     call        0040689A
  004016B6: 85 C0              test        eax,eax
  004016B8: 0F 84 67 12 00 00  je          00402925
  004016BE: 57                 push        edi
  004016BF: 56                 push        esi
  004016C0: E8 3D 4C 00 00     call        00406302
  004016C5: 6A E4              push        0FFFFFFE4h
  004016C7: E9 1D 0C 00 00     jmp         004022E9
  004016CC: 53                 push        ebx
  004016CD: E8 6C 16 00 00     call        00402D3E
  004016D2: 8B 7D F4           mov         edi,dword ptr [ebp-0Ch]
  004016D5: 8B F0              mov         esi,eax
  004016D7: 8D 45 08           lea         eax,[ebp+8]
  004016DA: 50                 push        eax
  004016DB: 57                 push        edi
  004016DC: 68 00 04 00 00     push        400h
  004016E1: 56                 push        esi
  004016E2: FF 15 10 81 40 00  call        dword ptr ds:[00408110h]
  004016E8: 85 C0              test        eax,eax
  004016EA: 74 24              je          00401710
  004016EC: 8B 45 08           mov         eax,dword ptr [ebp+8]
  004016EF: 3B C6              cmp         eax,esi
  004016F1: 76 27              jbe         0040171A
  004016F3: 66 39 18           cmp         word ptr [eax],bx
  004016F6: 74 22              je          0040171A
  004016F8: 56                 push        esi
  004016F9: E8 9C 51 00 00     call        0040689A
  004016FE: 3B C3              cmp         eax,ebx
  00401700: 74 0E              je          00401710
  00401702: 83 C0 2C           add         eax,2Ch
  00401705: 50                 push        eax
  00401706: FF 75 08           push        dword ptr [ebp+8]
  00401709: E8 2E 4E 00 00     call        0040653C
  0040170E: EB 0A              jmp         0040171A
  00401710: C7 45 FC 01 00 00  mov         dword ptr [ebp-4],1
            00
  00401717: 66 89 1F           mov         word ptr [edi],bx
  0040171A: 39 5D D8           cmp         dword ptr [ebp-28h],ebx
  0040171D: 0F 85 9F 14 00 00  jne         00402BC2
  00401723: 68 00 04 00 00     push        400h
  00401728: 57                 push        edi
  00401729: 57                 push        edi
  0040172A: FF 15 14 81 40 00  call        dword ptr ds:[00408114h]
  00401730: E9 8D 14 00 00     jmp         00402BC2
  00401735: 6A FF              push        0FFFFFFFFh
  00401737: E8 02 16 00 00     call        00402D3E
  0040173C: 8D 4D 08           lea         ecx,[ebp+8]
  0040173F: 51                 push        ecx
  00401740: 57                 push        edi
  00401741: 68 00 04 00 00     push        400h
  00401746: 53                 push        ebx
  00401747: 50                 push        eax
  00401748: 53                 push        ebx
  00401749: FF 15 18 81 40 00  call        dword ptr ds:[00408118h]
  0040174F: 85 C0              test        eax,eax
  00401751: 0F 85 6B 14 00 00  jne         00402BC2
  00401757: E9 97 11 00 00     jmp         004028F3
  0040175C: 6A EF              push        0FFFFFFEFh
  0040175E: E8 DB 15 00 00     call        00402D3E
  00401763: 50                 push        eax
  00401764: 57                 push        edi
  00401765: E8 F7 48 00 00     call        00406061
  0040176A: E9 45 FE FF FF     jmp         004015B4
  0040176F: 6A 31              push        31h
  00401771: E8 C8 15 00 00     call        00402D3E
  00401776: 89 45 F8           mov         dword ptr [ebp-8],eax
  00401779: 8B 45 D0           mov         eax,dword ptr [ebp-30h]
  0040177C: FF 75 F8           push        dword ptr [ebp-8]
  0040177F: 83 E0 07           and         eax,7
  00401782: 89 45 08           mov         dword ptr [ebp+8],eax
  00401785: E8 FE 46 00 00     call        00405E88
  0040178A: FF 75 F8           push        dword ptr [ebp-8]
  0040178D: BF F8 A5 40 00     mov         edi,40A5F8h
  00401792: 85 C0              test        eax,eax
  00401794: 74 08              je          0040179E
  00401796: 57                 push        edi
  00401797: E8 A0 4D 00 00     call        0040653C
  0040179C: EB 17              jmp         004017B5
  0040179E: 68 00 60 43 00     push        436000h
  004017A3: 57                 push        edi
  004017A4: E8 93 4D 00 00     call        0040653C
  004017A9: 50                 push        eax
  004017AA: E8 62 46 00 00     call        00405E11
  004017AF: 50                 push        eax
  004017B0: E8 A3 4D 00 00     call        00406558
  004017B5: 57                 push        edi
  004017B6: E8 30 50 00 00     call        004067EB
  004017BB: 83 7D 08 03        cmp         dword ptr [ebp+8],3
  004017BF: 7C 31              jl          004017F2
  004017C1: 57                 push        edi
  004017C2: E8 D3 50 00 00     call        0040689A
  004017C7: 33 C9              xor         ecx,ecx
  004017C9: 3B C3              cmp         eax,ebx
  004017CB: 74 10              je          004017DD
  004017CD: 8D 4D DC           lea         ecx,[ebp-24h]
  004017D0: 83 C0 14           add         eax,14h
  004017D3: 51                 push        ecx
  004017D4: 50                 push        eax
  004017D5: FF 15 1C 81 40 00  call        dword ptr ds:[0040811Ch]
  004017DB: 8B C8              mov         ecx,eax
  004017DD: 8B 45 08           mov         eax,dword ptr [ebp+8]
  004017E0: 83 C0 FD           add         eax,0FFFFFFFDh
  004017E3: 0D 00 00 00 80     or          eax,80000000h
  004017E8: 23 C1              and         eax,ecx
  004017EA: F7 D8              neg         eax
  004017EC: 1B C0              sbb         eax,eax
  004017EE: 40                 inc         eax
  004017EF: 89 45 08           mov         dword ptr [ebp+8],eax
  004017F2: 39 5D 08           cmp         dword ptr [ebp+8],ebx
  004017F5: 75 06              jne         004017FD
  004017F7: 57                 push        edi
  004017F8: E8 10 48 00 00     call        0040600D
  004017FD: 33 C0              xor         eax,eax
  004017FF: 83 7D 08 01        cmp         dword ptr [ebp+8],1
  00401803: 0F 95 C0           setne       al
  00401806: 40                 inc         eax
  00401807: 50                 push        eax
  00401808: 68 00 00 00 40     push        40000000h
  0040180D: 57                 push        edi
  0040180E: E8 1F 48 00 00     call        00406032
  00401813: 83 F8 FF           cmp         eax,0FFFFFFFFh
  00401816: 89 45 C8           mov         dword ptr [ebp-38h],eax
  00401819: 75 72              jne         0040188D
  0040181B: 39 5D 08           cmp         dword ptr [ebp+8],ebx
  0040181E: 75 4F              jne         0040186F
  00401820: 56                 push        esi
  00401821: 68 F8 B5 40 00     push        40B5F8h
  00401826: E8 11 4D 00 00     call        0040653C
  0040182B: 57                 push        edi
  0040182C: 56                 push        esi
  0040182D: E8 0A 4D 00 00     call        0040653C
  00401832: FF 75 E4           push        dword ptr [ebp-1Ch]
  00401835: 68 F8 AD 40 00     push        40ADF8h
  0040183A: E8 3A 4D 00 00     call        00406579
  0040183F: 68 F8 B5 40 00     push        40B5F8h
  00401844: 56                 push        esi
  00401845: E8 F2 4C 00 00     call        0040653C
  0040184A: 8B 45 D0           mov         eax,dword ptr [ebp-30h]
  0040184D: C1 F8 03           sar         eax,3
  00401850: 50                 push        eax
  00401851: 68 F8 AD 40 00     push        40ADF8h
  00401856: E8 47 43 00 00     call        00405BA2
  0040185B: 83 E8 04           sub         eax,4
  0040185E: 0F 84 57 FF FF FF  je          004017BB
  00401864: 48                 dec         eax
  00401865: 74 1B              je          00401882
  00401867: 57                 push        edi
  00401868: 6A FA              push        0FFFFFFFAh
  0040186A: E9 24 FC FF FF     jmp         00401493
  0040186F: FF 75 F8           push        dword ptr [ebp-8]
  00401872: 6A E2              push        0FFFFFFE2h
  00401874: E8 2B 3D 00 00     call        004055A4
  00401879: 83 7D 08 02        cmp         dword ptr [ebp+8],2
  0040187D: E9 34 FD FF FF     jmp         004015B6
  00401882: FF 05 08 A3 42 00  inc         dword ptr ds:[0042A308h]
  00401888: E9 3E 13 00 00     jmp         00402BCB
  0040188D: FF 75 F8           push        dword ptr [ebp-8]
  00401890: 6A EA              push        0FFFFFFEAh
  00401892: E8 0D 3D 00 00     call        004055A4
  00401897: FF 05 34 A3 42 00  inc         dword ptr ds:[0042A334h]
  0040189D: 53                 push        ebx
  0040189E: 53                 push        ebx
  0040189F: FF 75 C8           push        dword ptr [ebp-38h]
  004018A2: FF 75 D8           push        dword ptr [ebp-28h]
  004018A5: E8 5F 1A 00 00     call        00403309
  004018AA: FF 0D 34 A3 42 00  dec         dword ptr ds:[0042A334h]
  004018B0: 83 7D DC FF        cmp         dword ptr [ebp-24h],0FFFFFFFFh
  004018B4: 8B F0              mov         esi,eax
  004018B6: 75 06              jne         004018BE
  004018B8: 83 7D E0 FF        cmp         dword ptr [ebp-20h],0FFFFFFFFh
  004018BC: 74 12              je          004018D0
  004018BE: 8D 45 DC           lea         eax,[ebp-24h]
  004018C1: 50                 push        eax
  004018C2: 8D 45 DC           lea         eax,[ebp-24h]
  004018C5: 53                 push        ebx
  004018C6: 50                 push        eax
  004018C7: FF 75 C8           push        dword ptr [ebp-38h]
  004018CA: FF 15 20 81 40 00  call        dword ptr ds:[00408120h]
  004018D0: FF 75 C8           push        dword ptr [ebp-38h]
  004018D3: FF 15 24 81 40 00  call        dword ptr ds:[00408124h]
  004018D9: 3B F3              cmp         esi,ebx
  004018DB: 0F 8D E1 12 00 00  jge         00402BC2
  004018E1: 83 FE FE           cmp         esi,0FFFFFFFEh
  004018E4: 75 13              jne         004018F9
  004018E6: 6A E9              push        0FFFFFFE9h
  004018E8: 57                 push        edi
  004018E9: E8 8B 4C 00 00     call        00406579
  004018EE: FF 75 F8           push        dword ptr [ebp-8]
  004018F1: 57                 push        edi
  004018F2: E8 61 4C 00 00     call        00406558
  004018F7: EB 08              jmp         00401901
  004018F9: 6A EE              push        0FFFFFFEEh
  004018FB: 57                 push        edi
  004018FC: E8 78 4C 00 00     call        00406579
  00401901: 68 10 00 20 00     push        200010h
  00401906: 57                 push        edi
  00401907: E9 84 0A 00 00     jmp         00402390
  0040190C: 53                 push        ebx
  0040190D: EB 34              jmp         00401943
  0040190F: 6A 31              push        31h
  00401911: E8 28 14 00 00     call        00402D3E
  00401916: FF 75 D0           push        dword ptr [ebp-30h]
  00401919: 50                 push        eax
  0040191A: E8 83 42 00 00     call        00405BA2
  0040191F: 3B C3              cmp         eax,ebx
  00401921: 0F 84 FE 0F 00 00  je          00402925
  00401927: 3B 45 D8           cmp         eax,dword ptr [ebp-28h]
  0040192A: 0F 84 6C 01 00 00  je          00401A9C
  00401930: 3B 45 E0           cmp         eax,dword ptr [ebp-20h]
  00401933: 0F 85 89 12 00 00  jne         00402BC2
  00401939: 8B 45 E4           mov         eax,dword ptr [ebp-1Ch]
  0040193C: E9 8C 12 00 00     jmp         00402BCD
  00401941: 6A F0              push        0FFFFFFF0h
  00401943: E8 F6 13 00 00     call        00402D3E
  00401948: FF 75 D4           push        dword ptr [ebp-2Ch]
  0040194B: 50                 push        eax
  0040194C: E8 FD 42 00 00     call        00405C4E
  00401951: E9 6C 12 00 00     jmp         00402BC2
  00401956: 6A 01              push        1
  00401958: E8 E1 13 00 00     call        00402D3E
  0040195D: 50                 push        eax
  0040195E: E8 EF 4B 00 00     call        00406552
  00401963: E9 C8 0C 00 00     jmp         00402630
  00401968: 6A 02              push        2
  0040196A: E8 AD 13 00 00     call        00402D1C
  0040196F: 6A 03              push        3
  00401971: 89 45 EC           mov         dword ptr [ebp-14h],eax
  00401974: 89 55 F0           mov         dword ptr [ebp-10h],edx
  00401977: E8 A0 13 00 00     call        00402D1C
  0040197C: 59                 pop         ecx
  0040197D: 8B F0              mov         esi,eax
  0040197F: 8B 45 EC           mov         eax,dword ptr [ebp-14h]
  00401982: 59                 pop         ecx
  00401983: 6A 01              push        1
  00401985: 89 75 C4           mov         dword ptr [ebp-3Ch],esi
  00401988: 89 55 C8           mov         dword ptr [ebp-38h],edx
  0040198B: 89 45 08           mov         dword ptr [ebp+8],eax
  0040198E: E8 AB 13 00 00     call        00402D3E
  00401993: 50                 push        eax
  00401994: 89 45 BC           mov         dword ptr [ebp-44h],eax
  00401997: E8 B6 4B 00 00     call        00406552
  0040199C: 39 5D F0           cmp         dword ptr [ebp-10h],ebx
  0040199F: 66 89 1F           mov         word ptr [edi],bx
  004019A2: 75 03              jne         004019A7
  004019A4: 89 45 08           mov         dword ptr [ebp+8],eax
  004019A7: 39 5D 08           cmp         dword ptr [ebp+8],ebx
  004019AA: 0F 84 12 12 00 00  je          00402BC2
  004019B0: 8B 4D C4           mov         ecx,dword ptr [ebp-3Ch]
  004019B3: 3B CB              cmp         ecx,ebx
  004019B5: 7D 0B              jge         004019C2
  004019B7: 8D 34 08           lea         esi,[eax+ecx]
  004019BA: 3B F3              cmp         esi,ebx
  004019BC: 0F 8C 00 12 00 00  jl          00402BC2
  004019C2: 3B F0              cmp         esi,eax
  004019C4: 7E 02              jle         004019C8
  004019C6: 8B F0              mov         esi,eax
  004019C8: 8B 45 BC           mov         eax,dword ptr [ebp-44h]
  004019CB: 8D 04 70           lea         eax,[eax+esi*2]
  004019CE: 50                 push        eax
  004019CF: 57                 push        edi
  004019D0: E8 67 4B 00 00     call        0040653C
  004019D5: 39 5D 08           cmp         dword ptr [ebp+8],ebx
  004019D8: 7D 0E              jge         004019E8
  004019DA: 57                 push        edi
  004019DB: E8 72 4B 00 00     call        00406552
  004019E0: 01 45 08           add         dword ptr [ebp+8],eax
  004019E3: 79 03              jns         004019E8
  004019E5: 89 5D 08           mov         dword ptr [ebp+8],ebx
  004019E8: 8B 45 08           mov         eax,dword ptr [ebp+8]
  004019EB: 3D 00 04 00 00     cmp         eax,400h
  004019F0: 0F 8D CC 11 00 00  jge         00402BC2
  004019F6: 66 89 1C 47        mov         word ptr [edi+eax*2],bx
  004019FA: E9 C3 11 00 00     jmp         00402BC2
  004019FF: 6A 20              push        20h
  00401A01: E8 38 13 00 00     call        00402D3E
  00401A06: 6A 31              push        31h
  00401A08: 8B F0              mov         esi,eax
  00401A0A: E8 2F 13 00 00     call        00402D3E
  00401A0F: 39 5D E0           cmp         dword ptr [ebp-20h],ebx
  00401A12: 50                 push        eax
  00401A13: 56                 push        esi
  00401A14: 75 12              jne         00401A28
  00401A16: FF 15 28 81 40 00  call        dword ptr ds:[00408128h]
  00401A1C: 85 C0              test        eax,eax
  00401A1E: 75 7C              jne         00401A9C
  00401A20: 8B 45 D8           mov         eax,dword ptr [ebp-28h]
  00401A23: E9 A5 11 00 00     jmp         00402BCD
  00401A28: FF 15 2C 81 40 00  call        dword ptr ds:[0040812Ch]
  00401A2E: EB EC              jmp         00401A1C
  00401A30: 33 F6              xor         esi,esi
  00401A32: 46                 inc         esi
  00401A33: 56                 push        esi
  00401A34: E8 05 13 00 00     call        00402D3E
  00401A39: 68 00 04 00 00     push        400h
  00401A3E: 57                 push        edi
  00401A3F: 50                 push        eax
  00401A40: 89 45 08           mov         dword ptr [ebp+8],eax
  00401A43: FF 15 30 81 40 00  call        dword ptr ds:[00408130h]
  00401A49: 85 C0              test        eax,eax
  00401A4B: 74 13              je          00401A60
  00401A4D: 39 5D D8           cmp         dword ptr [ebp-28h],ebx
  00401A50: 74 14              je          00401A66
  00401A52: 57                 push        edi
  00401A53: FF 75 08           push        dword ptr [ebp+8]
  00401A56: FF 15 2C 81 40 00  call        dword ptr ds:[0040812Ch]
  00401A5C: 85 C0              test        eax,eax
  00401A5E: 75 06              jne         00401A66
  00401A60: 89 75 FC           mov         dword ptr [ebp-4],esi
  00401A63: 66 89 1F           mov         word ptr [edi],bx
  00401A66: 66 89 9F FE 07 00  mov         word ptr [edi+000007FEh],bx
            00
  00401A6D: E9 50 11 00 00     jmp         00402BC2
  00401A72: 8B 75 E4           mov         esi,dword ptr [ebp-1Ch]
  00401A75: 53                 push        ebx
  00401A76: E8 A1 12 00 00     call        00402D1C
  00401A7B: 6A 01              push        1
  00401A7D: 8B F8              mov         edi,eax
  00401A7F: 89 55 F0           mov         dword ptr [ebp-10h],edx
  00401A82: E8 95 12 00 00     call        00402D1C
  00401A87: 59                 pop         ecx
  00401A88: 3B F3              cmp         esi,ebx
  00401A8A: 59                 pop         ecx
  00401A8B: 89 55 F0           mov         dword ptr [ebp-10h],edx
  00401A8E: 75 08              jne         00401A98
  00401A90: 3B F8              cmp         edi,eax
  00401A92: 7C 08              jl          00401A9C
  00401A94: 7E 8A              jle         00401A20
  00401A96: EB 12              jmp         00401AAA
  00401A98: 3B F8              cmp         edi,eax
  00401A9A: 73 08              jae         00401AA4
  00401A9C: 8B 45 DC           mov         eax,dword ptr [ebp-24h]
  00401A9F: E9 29 11 00 00     jmp         00402BCD
  00401AA4: 0F 86 76 FF FF FF  jbe         00401A20
  00401AAA: 8B 45 E0           mov         eax,dword ptr [ebp-20h]
  00401AAD: E9 1B 11 00 00     jmp         00402BCD
  00401AB2: 6A 01              push        1
  00401AB4: E8 63 12 00 00     call        00402D1C
  00401AB9: 8B F0              mov         esi,eax
  00401ABB: 6A 02              push        2
  00401ABD: 89 55 F0           mov         dword ptr [ebp-10h],edx
  00401AC0: 89 75 08           mov         dword ptr [ebp+8],esi
  00401AC3: E8 54 12 00 00     call        00402D1C
  00401AC8: 59                 pop         ecx
  00401AC9: 89 55 F0           mov         dword ptr [ebp-10h],edx
  00401ACC: 59                 pop         ecx
  00401ACD: 8B C8              mov         ecx,eax
  00401ACF: 8B 45 DC           mov         eax,dword ptr [ebp-24h]
  00401AD2: 83 F8 0D           cmp         eax,0Dh
  00401AD5: 0F 87 94 00 00 00  ja          00401B6F
  00401ADB: FF 24 85 E4 2C 40  jmp         dword ptr [eax*4+00402CE4h]
            00
  00401AE2: 03 F1              add         esi,ecx
  00401AE4: E9 5F 03 00 00     jmp         00401E48
  00401AE9: 2B F1              sub         esi,ecx
  00401AEB: E9 58 03 00 00     jmp         00401E48
  00401AF0: 0F AF CE           imul        ecx,esi
  00401AF3: EB 1A              jmp         00401B0F
  00401AF5: 3B CB              cmp         ecx,ebx
  00401AF7: 74 53              je          00401B4C
  00401AF9: 8B C6              mov         eax,esi
  00401AFB: 99                 cdq
  00401AFC: F7 F9              idiv        eax,ecx
  00401AFE: 8B F0              mov         esi,eax
  00401B00: E9 43 03 00 00     jmp         00401E48
  00401B05: 0B CE              or          ecx,esi
  00401B07: EB 06              jmp         00401B0F
  00401B09: 23 CE              and         ecx,esi
  00401B0B: EB 02              jmp         00401B0F
  00401B0D: 33 CE              xor         ecx,esi
  00401B0F: 8B F1              mov         esi,ecx
  00401B11: E9 32 03 00 00     jmp         00401E48
  00401B16: 33 C0              xor         eax,eax
  00401B18: 3B F3              cmp         esi,ebx
  00401B1A: 0F 94 C0           sete        al
  00401B1D: EB DF              jmp         00401AFE
  00401B1F: 3B F3              cmp         esi,ebx
  00401B21: 75 11              jne         00401B34
  00401B23: EB 0B              jmp         00401B30
  00401B25: 33 F6              xor         esi,esi
  00401B27: E9 1C 03 00 00     jmp         00401E48
  00401B2C: 3B F3              cmp         esi,ebx
  00401B2E: 74 F5              je          00401B25
  00401B30: 3B CB              cmp         ecx,ebx
  00401B32: 74 F1              je          00401B25
  00401B34: 33 F6              xor         esi,esi
  00401B36: 46                 inc         esi
  00401B37: E9 0C 03 00 00     jmp         00401E48
  00401B3C: 3B CB              cmp         ecx,ebx
  00401B3E: 74 0C              je          00401B4C
  00401B40: 8B C6              mov         eax,esi
  00401B42: 99                 cdq
  00401B43: F7 F9              idiv        eax,ecx
  00401B45: 8B F2              mov         esi,edx
  00401B47: E9 FC 02 00 00     jmp         00401E48
  00401B4C: 33 F6              xor         esi,esi
  00401B4E: C7 45 FC 01 00 00  mov         dword ptr [ebp-4],1
            00
  00401B55: E9 EE 02 00 00     jmp         00401E48
  00401B5A: D3 E6              shl         esi,cl
  00401B5C: E9 E7 02 00 00     jmp         00401E48
  00401B61: D3 FE              sar         esi,cl
  00401B63: E9 E0 02 00 00     jmp         00401E48
  00401B68: D3 EE              shr         esi,cl
  00401B6A: E9 D9 02 00 00     jmp         00401E48
  00401B6F: 8B 75 08           mov         esi,dword ptr [ebp+8]
  00401B72: E9 D1 02 00 00     jmp         00401E48
  00401B77: 6A 01              push        1
  00401B79: E8 C0 11 00 00     call        00402D3E
  00401B7E: 6A 02              push        2
  00401B80: 8B F0              mov         esi,eax
  00401B82: E8 95 11 00 00     call        00402D1C
  00401B87: 50                 push        eax
  00401B88: 56                 push        esi
  00401B89: 57                 push        edi
  00401B8A: 89 55 F0           mov         dword ptr [ebp-10h],edx
  00401B8D: FF 15 54 82 40 00  call        dword ptr ds:[00408254h]
  00401B93: 83 C4 10           add         esp,10h
  00401B96: E9 27 10 00 00     jmp         00402BC2
  00401B9B: 8B 45 D8           mov         eax,dword ptr [ebp-28h]
  00401B9E: 8B 35 58 CE 40 00  mov         esi,dword ptr ds:[0040CE58h]
  00401BA4: 3B C3              cmp         eax,ebx
  00401BA6: 74 44              je          00401BEC
  00401BA8: 48                 dec         eax
  00401BA9: 3B F3              cmp         esi,ebx
  00401BAB: 0F 84 D1 07 00 00  je          00402382
  00401BB1: 8B 36              mov         esi,dword ptr [esi]
  00401BB3: 3B C3              cmp         eax,ebx
  00401BB5: 75 F1              jne         00401BA8
  00401BB7: 3B F3              cmp         esi,ebx
  00401BB9: 0F 84 C3 07 00 00  je          00402382
  00401BBF: 83 C6 04           add         esi,4
  00401BC2: BF F8 A5 40 00     mov         edi,40A5F8h
  00401BC7: 56                 push        esi
  00401BC8: 57                 push        edi
  00401BC9: E8 6E 49 00 00     call        0040653C
  00401BCE: A1 58 CE 40 00     mov         eax,dword ptr ds:[0040CE58h]
  00401BD3: 83 C0 04           add         eax,4
  00401BD6: 50                 push        eax
  00401BD7: 56                 push        esi
  00401BD8: E8 5F 49 00 00     call        0040653C
  00401BDD: A1 58 CE 40 00     mov         eax,dword ptr ds:[0040CE58h]
  00401BE2: 57                 push        edi
  00401BE3: 83 C0 04           add         eax,4
  00401BE6: 50                 push        eax
  00401BE7: E9 8F 0E 00 00     jmp         00402A7B
  00401BEC: 39 5D D4           cmp         dword ptr [ebp-2Ch],ebx
  00401BEF: 74 25              je          00401C16
  00401BF1: 3B F3              cmp         esi,ebx
  00401BF3: 0F 84 2C 0D 00 00  je          00402925
  00401BF9: 8D 46 04           lea         eax,[esi+4]
  00401BFC: 50                 push        eax
  00401BFD: 57                 push        edi
  00401BFE: E8 39 49 00 00     call        0040653C
  00401C03: 8B 06              mov         eax,dword ptr [esi]
  00401C05: 56                 push        esi
  00401C06: A3 58 CE 40 00     mov         dword ptr ds:[0040CE58h],eax
  00401C0B: FF 15 34 81 40 00  call        dword ptr ds:[00408134h]
  00401C11: E9 AC 0F 00 00     jmp         00402BC2
  00401C16: 68 04 08 00 00     push        804h
  00401C1B: 6A 40              push        40h
  00401C1D: FF 15 38 81 40 00  call        dword ptr ds:[00408138h]
  00401C23: FF 75 D0           push        dword ptr [ebp-30h]
  00401C26: 8B F0              mov         esi,eax
  00401C28: 8D 46 04           lea         eax,[esi+4]
  00401C2B: 50                 push        eax
  00401C2C: E8 48 49 00 00     call        00406579
  00401C31: A1 58 CE 40 00     mov         eax,dword ptr ds:[0040CE58h]
  00401C36: 89 06              mov         dword ptr [esi],eax
  00401C38: 89 35 58 CE 40 00  mov         dword ptr ds:[0040CE58h],esi
  00401C3E: E9 7F 0F 00 00     jmp         00402BC2
  00401C43: 6A 03              push        3
  00401C45: E8 D2 10 00 00     call        00402D1C
  00401C4A: 6A 04              push        4
  00401C4C: 89 55 F0           mov         dword ptr [ebp-10h],edx
  00401C4F: 89 45 E8           mov         dword ptr [ebp-18h],eax
  00401C52: E8 C5 10 00 00     call        00402D1C
  00401C57: F6 45 E4 01        test        byte ptr [ebp-1Ch],1
  00401C5B: 59                 pop         ecx
  00401C5C: 89 55 F0           mov         dword ptr [ebp-10h],edx
  00401C5F: 59                 pop         ecx
  00401C60: 89 45 08           mov         dword ptr [ebp+8],eax
  00401C63: 74 0A              je          00401C6F
  00401C65: 6A 33              push        33h
  00401C67: E8 D2 10 00 00     call        00402D3E
  00401C6C: 89 45 E8           mov         dword ptr [ebp-18h],eax
  00401C6F: F6 45 E4 02        test        byte ptr [ebp-1Ch],2
  00401C73: 74 0A              je          00401C7F
  00401C75: 6A 44              push        44h
  00401C77: E8 C2 10 00 00     call        00402D3E
  00401C7C: 89 45 08           mov         dword ptr [ebp+8],eax
  00401C7F: 83 7D CC 21        cmp         dword ptr [ebp-34h],21h
  00401C83: 6A 01              push        1
  00401C85: 75 4C              jne         00401CD3
  00401C87: E8 90 10 00 00     call        00402D1C
  00401C8C: 6A 02              push        2
  00401C8E: 8B F0              mov         esi,eax
  00401C90: 89 55 F0           mov         dword ptr [ebp-10h],edx
  00401C93: E8 84 10 00 00     call        00402D1C
  00401C98: 59                 pop         ecx
  00401C99: 89 55 F0           mov         dword ptr [ebp-10h],edx
  00401C9C: 59                 pop         ecx
  00401C9D: 8B 4D E4           mov         ecx,dword ptr [ebp-1Ch]
  00401CA0: C1 F9 02           sar         ecx,2
  00401CA3: 74 1E              je          00401CC3
  00401CA5: 8D 55 C8           lea         edx,[ebp-38h]
  00401CA8: 52                 push        edx
  00401CA9: 51                 push        ecx
  00401CAA: 53                 push        ebx
  00401CAB: FF 75 08           push        dword ptr [ebp+8]
  00401CAE: FF 75 E8           push        dword ptr [ebp-18h]
  00401CB1: 50                 push        eax
  00401CB2: 56                 push        esi
  00401CB3: FF 15 58 82 40 00  call        dword ptr ds:[00408258h]
  00401CB9: F7 D8              neg         eax
  00401CBB: 1B C0              sbb         eax,eax
  00401CBD: 40                 inc         eax
  00401CBE: 89 45 FC           mov         dword ptr [ebp-4],eax
  00401CC1: EB 43              jmp         00401D06
  00401CC3: FF 75 08           push        dword ptr [ebp+8]
  00401CC6: FF 75 E8           push        dword ptr [ebp-18h]
  00401CC9: 50                 push        eax
  00401CCA: 56                 push        esi
  00401CCB: FF 15 80 82 40 00  call        dword ptr ds:[00408280h]
  00401CD1: EB 30              jmp         00401D03
  00401CD3: E8 66 10 00 00     call        00402D3E
  00401CD8: 6A 12              push        12h
  00401CDA: 8B F0              mov         esi,eax
  00401CDC: E8 5D 10 00 00     call        00402D3E
  00401CE1: 66 8B 08           mov         cx,word ptr [eax]
  00401CE4: 66 F7 D9           neg         cx
  00401CE7: 1B C9              sbb         ecx,ecx
  00401CE9: 23 C8              and         ecx,eax
  00401CEB: 66 8B 06           mov         ax,word ptr [esi]
  00401CEE: 66 F7 D8           neg         ax
  00401CF1: 1B C0              sbb         eax,eax
  00401CF3: 51                 push        ecx
  00401CF4: 23 C6              and         eax,esi
  00401CF6: 50                 push        eax
  00401CF7: FF 75 08           push        dword ptr [ebp+8]
  00401CFA: FF 75 E8           push        dword ptr [ebp-18h]
  00401CFD: FF 15 5C 82 40 00  call        dword ptr ds:[0040825Ch]
  00401D03: 89 45 C8           mov         dword ptr [ebp-38h],eax
  00401D06: 39 5D D0           cmp         dword ptr [ebp-30h],ebx
  00401D09: 0F 8C B3 0E 00 00  jl          00402BC2
  00401D0F: FF 75 C8           push        dword ptr [ebp-38h]
  00401D12: E9 56 F8 FF FF     jmp         0040156D
  00401D17: 53                 push        ebx
  00401D18: E8 FF 0F 00 00     call        00402D1C
  00401D1D: 59                 pop         ecx
  00401D1E: 89 55 F0           mov         dword ptr [ebp-10h],edx
  00401D21: 50                 push        eax
  00401D22: FF 15 60 82 40 00  call        dword ptr ds:[00408260h]
  00401D28: 85 C0              test        eax,eax
  00401D2A: 0F 84 F0 FC FF FF  je          00401A20
  00401D30: 8B 45 D4           mov         eax,dword ptr [ebp-2Ch]
  00401D33: E9 95 0E 00 00     jmp         00402BCD
  00401D38: 6A 02              push        2
  00401D3A: E8 DD 0F 00 00     call        00402D1C
  00401D3F: 6A 01              push        1
  00401D41: 8B F0              mov         esi,eax
  00401D43: 89 55 F0           mov         dword ptr [ebp-10h],edx
  00401D46: E8 D1 0F 00 00     call        00402D1C
  00401D4B: 59                 pop         ecx
  00401D4C: 89 55 F0           mov         dword ptr [ebp-10h],edx
  00401D4F: 59                 pop         ecx
  00401D50: 56                 push        esi
  00401D51: 50                 push        eax
  00401D52: FF 15 64 82 40 00  call        dword ptr ds:[00408264h]
  00401D58: E9 D3 08 00 00     jmp         00402630
  00401D5D: A1 C8 A2 42 00     mov         eax,dword ptr ds:[0042A2C8h]
  00401D62: 8B 4D D4           mov         ecx,dword ptr [ebp-2Ch]
  00401D65: 53                 push        ebx
  00401D66: 8D 34 08           lea         esi,[eax+ecx]
  00401D69: E8 AE 0F 00 00     call        00402D1C
  00401D6E: 59                 pop         ecx
  00401D6F: 89 55 F0           mov         dword ptr [ebp-10h],edx
  00401D72: 56                 push        esi
  00401D73: 6A EB              push        0FFFFFFEBh
  00401D75: 50                 push        eax
  00401D76: FF 15 68 82 40 00  call        dword ptr ds:[00408268h]
  00401D7C: E9 41 0E 00 00     jmp         00402BC2
  00401D81: F6 45 DD 01        test        byte ptr [ebp-23h],1
  00401D85: 74 0D              je          00401D94
  00401D87: 6A 02              push        2
  00401D89: E8 8E 0F 00 00     call        00402D1C
  00401D8E: 59                 pop         ecx
  00401D8F: 89 55 F0           mov         dword ptr [ebp-10h],edx
  00401D92: EB 0C              jmp         00401DA0
  00401D94: FF 75 D8           push        dword ptr [ebp-28h]
  00401D97: FF 75 F8           push        dword ptr [ebp-8]
  00401D9A: FF 15 64 82 40 00  call        dword ptr ds:[00408264h]
  00401DA0: 8B 4D DC           mov         ecx,dword ptr [ebp-24h]
  00401DA3: 89 45 08           mov         dword ptr [ebp+8],eax
  00401DA6: 8B C1              mov         eax,ecx
  00401DA8: 8B F1              mov         esi,ecx
  00401DAA: 83 E0 03           and         eax,3
  00401DAD: 83 E6 04           and         esi,4
  00401DB0: 89 45 C8           mov         dword ptr [ebp-38h],eax
  00401DB3: 8B C1              mov         eax,ecx
  00401DB5: C1 E8 1F           shr         eax,1Fh
  00401DB8: 89 45 E8           mov         dword ptr [ebp-18h],eax
  00401DBB: 8B C1              mov         eax,ecx
  00401DBD: C1 E8 1E           shr         eax,1Eh
  00401DC0: 83 E0 01           and         eax,1
  00401DC3: F7 C1 00 00 01 00  test        ecx,10000h
  00401DC9: 89 45 C0           mov         dword ptr [ebp-40h],eax
  00401DCC: 74 09              je          00401DD7
  00401DCE: 6A 11              push        11h
  00401DD0: E8 69 0F 00 00     call        00402D3E
  00401DD5: EB 04              jmp         00401DDB
  00401DD7: 0F B7 45 D4        movzx       eax,word ptr [ebp-2Ch]
  00401DDB: 89 45 BC           mov         dword ptr [ebp-44h],eax
  00401DDE: 8D 45 A0           lea         eax,[ebp-60h]
  00401DE1: 50                 push        eax
  00401DE2: FF 75 08           push        dword ptr [ebp+8]
  00401DE5: FF 15 94 81 40 00  call        dword ptr ds:[00408194h]
  00401DEB: 8B 45 DC           mov         eax,dword ptr [ebp-24h]
  00401DEE: 25 F0 FE 00 00     and         eax,0FEF0h
  00401DF3: 50                 push        eax
  00401DF4: 8B 45 AC           mov         eax,dword ptr [ebp-54h]
  00401DF7: 0F AF 45 C0        imul        eax,dword ptr [ebp-40h]
  00401DFB: 50                 push        eax
  00401DFC: 8B 45 A8           mov         eax,dword ptr [ebp-58h]
  00401DFF: 0F AF 45 E8        imul        eax,dword ptr [ebp-18h]
  00401E03: 50                 push        eax
  00401E04: FF 75 C8           push        dword ptr [ebp-38h]
  00401E07: F7 DE              neg         esi
  00401E09: FF 75 BC           push        dword ptr [ebp-44h]
  00401E0C: 1B F6              sbb         esi,esi
  00401E0E: 23 35 60 A2 42 00  and         esi,dword ptr ds:[0042A260h]
  00401E14: 56                 push        esi
  00401E15: FF 15 6C 82 40 00  call        dword ptr ds:[0040826Ch]
  00401E1B: 8B F0              mov         esi,eax
  00401E1D: 56                 push        esi
  00401E1E: FF 75 C8           push        dword ptr [ebp-38h]
  00401E21: 68 72 01 00 00     push        172h
  00401E26: FF 75 08           push        dword ptr [ebp+8]
  00401E29: FF 15 80 82 40 00  call        dword ptr ds:[00408280h]
  00401E2F: 3B C3              cmp         eax,ebx
  00401E31: 74 0C              je          00401E3F
  00401E33: 39 5D C8           cmp         dword ptr [ebp-38h],ebx
  00401E36: 75 07              jne         00401E3F
  00401E38: 50                 push        eax
  00401E39: FF 15 60 80 40 00  call        dword ptr ds:[00408060h]
  00401E3F: 39 5D D0           cmp         dword ptr [ebp-30h],ebx
  00401E42: 0F 8C 7A 0D 00 00  jl          00402BC2
  00401E48: 56                 push        esi
  00401E49: E9 1F F7 FF FF     jmp         0040156D
  00401E4E: FF 75 F8           push        dword ptr [ebp-8]
  00401E51: FF 15 70 82 40 00  call        dword ptr ds:[00408270h]
  00401E57: 6A 02              push        2
  00401E59: 8B F0              mov         esi,eax
  00401E5B: E8 BC 0E 00 00     call        00402D1C
  00401E60: 59                 pop         ecx
  00401E61: 8B D8              mov         ebx,eax
  00401E63: 6A 48              push        48h
  00401E65: 6A 5A              push        5Ah
  00401E67: 56                 push        esi
  00401E68: 89 55 F0           mov         dword ptr [ebp-10h],edx
  00401E6B: FF 15 54 80 40 00  call        dword ptr ds:[00408054h]
  00401E71: 50                 push        eax
  00401E72: 53                 push        ebx
  00401E73: FF 15 FC 80 40 00  call        dword ptr ds:[004080FCh]
  00401E79: 56                 push        esi
  00401E7A: FF 75 F8           push        dword ptr [ebp-8]
  00401E7D: F7 D8              neg         eax
  00401E7F: A3 F8 CD 40 00     mov         dword ptr ds:[0040CDF8h],eax
  00401E84: FF 15 74 82 40 00  call        dword ptr ds:[00408274h]
  00401E8A: 6A 03              push        3
  00401E8C: E8 8B 0E 00 00     call        00402D1C
  00401E91: A3 08 CE 40 00     mov         dword ptr ds:[0040CE08h],eax
  00401E96: 8A 45 E0           mov         al,byte ptr [ebp-20h]
  00401E99: 59                 pop         ecx
  00401E9A: 89 55 F0           mov         dword ptr [ebp-10h],edx
  00401E9D: FF 75 D4           push        dword ptr [ebp-2Ch]
  00401EA0: 8A C8              mov         cl,al
  00401EA2: 80 E1 01           and         cl,1
  00401EA5: C6 05 0F CE 40 00  mov         byte ptr ds:[0040CE0Fh],1
            01
  00401EAC: 88 0D 0C CE 40 00  mov         byte ptr ds:[0040CE0Ch],cl
  00401EB2: 8A C8              mov         cl,al
  00401EB4: 80 E1 02           and         cl,2
  00401EB7: 24 04              and         al,4
  00401EB9: 68 14 CE 40 00     push        40CE14h
  00401EBE: 88 0D 0D CE 40 00  mov         byte ptr ds:[0040CE0Dh],cl
  00401EC4: A2 0E CE 40 00     mov         byte ptr ds:[0040CE0Eh],al
  00401EC9: E8 AB 46 00 00     call        00406579
  00401ECE: 68 F8 CD 40 00     push        40CDF8h
  00401ED3: FF 15 58 80 40 00  call        dword ptr ds:[00408058h]
  00401ED9: E9 52 07 00 00     jmp         00402630
  00401EDE: 53                 push        ebx
  00401EDF: E8 38 0E 00 00     call        00402D1C
  00401EE4: 6A 01              push        1
  00401EE6: 8B F0              mov         esi,eax
  00401EE8: 89 55 F0           mov         dword ptr [ebp-10h],edx
  00401EEB: E8 2C 0E 00 00     call        00402D1C
  00401EF0: 39 5D DC           cmp         dword ptr [ebp-24h],ebx
  00401EF3: 59                 pop         ecx
  00401EF4: 59                 pop         ecx
  00401EF5: 89 55 F0           mov         dword ptr [ebp-10h],edx
  00401EF8: 50                 push        eax
  00401EF9: 56                 push        esi
  00401EFA: 75 0B              jne         00401F07
  00401EFC: FF 15 50 82 40 00  call        dword ptr ds:[00408250h]
  00401F02: E9 BB 0C 00 00     jmp         00402BC2
  00401F07: FF 15 78 82 40 00  call        dword ptr ds:[00408278h]
  00401F0D: E9 B0 0C 00 00     jmp         00402BC2
  00401F12: 53                 push        ebx
  00401F13: E8 26 0E 00 00     call        00402D3E
  00401F18: 6A 31              push        31h
  00401F1A: 8B F0              mov         esi,eax
  00401F1C: E8 1D 0E 00 00     call        00402D3E
  00401F21: 6A 22              push        22h
  00401F23: 8B D8              mov         ebx,eax
  00401F25: E8 14 0E 00 00     call        00402D3E
  00401F2A: 6A 15              push        15h
  00401F2C: 8B F8              mov         edi,eax
  00401F2E: E8 0B 0E 00 00     call        00402D3E
  00401F33: 6A EC              push        0FFFFFFECh
  00401F35: E8 E9 F4 FF FF     call        00401423
  00401F3A: 8B 45 E0           mov         eax,dword ptr [ebp-20h]
  00401F3D: 89 85 78 FF FF FF  mov         dword ptr [ebp+FFFFFF78h],eax
  00401F43: 8B 45 F8           mov         eax,dword ptr [ebp-8]
  00401F46: 89 85 7C FF FF FF  mov         dword ptr [ebp+FFFFFF7Ch],eax
  00401F4C: 8B 45 DC           mov         eax,dword ptr [ebp-24h]
  00401F4F: 89 45 90           mov         dword ptr [ebp-70h],eax
  00401F52: 66 8B 06           mov         ax,word ptr [esi]
  00401F55: 66 F7 D8           neg         ax
  00401F58: 1B C0              sbb         eax,eax
  00401F5A: 89 5D 84           mov         dword ptr [ebp-7Ch],ebx
  00401F5D: 23 C6              and         eax,esi
  00401F5F: 89 45 80           mov         dword ptr [ebp-80h],eax
  00401F62: 66 8B 07           mov         ax,word ptr [edi]
  00401F65: 66 F7 D8           neg         ax
  00401F68: 1B C0              sbb         eax,eax
  00401F6A: C7 45 8C 00 60 43  mov         dword ptr [ebp-74h],436000h
            00
  00401F71: 23 C7              and         eax,edi
  00401F73: 89 45 88           mov         dword ptr [ebp-78h],eax
  00401F76: 8D 85 74 FF FF FF  lea         eax,[ebp+FFFFFF74h]
  00401F7C: 50                 push        eax
  00401F7D: E8 E6 3B 00 00     call        00405B68
  00401F82: 85 C0              test        eax,eax
  00401F84: 0F 84 9B 09 00 00  je          00402925
  00401F8A: F6 85 78 FF FF FF  test        byte ptr [ebp+FFFFFF78h],40h
            40
  00401F91: 0F 84 2B 0C 00 00  je          00402BC2
  00401F97: FF 75 AC           push        dword ptr [ebp-54h]
  00401F9A: E8 3D 4A 00 00     call        004069DC
  00401F9F: FF 75 AC           push        dword ptr [ebp-54h]
  00401FA2: EB 47              jmp         00401FEB
  00401FA4: 53                 push        ebx
  00401FA5: E8 94 0D 00 00     call        00402D3E
  00401FAA: 8B F0              mov         esi,eax
  00401FAC: 56                 push        esi
  00401FAD: 6A EB              push        0FFFFFFEBh
  00401FAF: E8 F0 35 00 00     call        004055A4
  00401FB4: 56                 push        esi
  00401FB5: E8 6B 3B 00 00     call        00405B25
  00401FBA: 8B F0              mov         esi,eax
  00401FBC: 3B F3              cmp         esi,ebx
  00401FBE: 0F 84 61 09 00 00  je          00402925
  00401FC4: 39 5D D8           cmp         dword ptr [ebp-28h],ebx
  00401FC7: 74 21              je          00401FEA
  00401FC9: 56                 push        esi
  00401FCA: E8 0D 4A 00 00     call        004069DC
  00401FCF: 39 5D D4           cmp         dword ptr [ebp-2Ch],ebx
  00401FD2: 7C 0B              jl          00401FDF
  00401FD4: 50                 push        eax
  00401FD5: FF 75 F4           push        dword ptr [ebp-0Ch]
  00401FD8: E8 A6 44 00 00     call        00406483
  00401FDD: EB 0B              jmp         00401FEA
  00401FDF: 3B C3              cmp         eax,ebx
  00401FE1: 74 07              je          00401FEA
  00401FE3: C7 45 FC 01 00 00  mov         dword ptr [ebp-4],1
            00
  00401FEA: 56                 push        esi
  00401FEB: FF 15 24 81 40 00  call        dword ptr ds:[00408124h]
  00401FF1: E9 CC 0B 00 00     jmp         00402BC2
  00401FF6: 6A 02              push        2
  00401FF8: E8 41 0D 00 00     call        00402D3E
  00401FFD: 50                 push        eax
  00401FFE: E8 97 48 00 00     call        0040689A
  00402003: 8B F0              mov         esi,eax
  00402005: 3B F3              cmp         esi,ebx
  00402007: 74 13              je          0040201C
  00402009: FF 76 14           push        dword ptr [esi+14h]
  0040200C: FF 75 F4           push        dword ptr [ebp-0Ch]
  0040200F: E8 6F 44 00 00     call        00406483
  00402014: FF 76 18           push        dword ptr [esi+18h]
  00402017: E9 51 F5 FF FF     jmp         0040156D
  0040201C: 8B 45 F4           mov         eax,dword ptr [ebp-0Ch]
  0040201F: 66 89 1F           mov         word ptr [edi],bx
  00402022: 66 89 18           mov         word ptr [eax],bx
  00402025: E9 FB 08 00 00     jmp         00402925
  0040202A: 6A EE              push        0FFFFFFEEh
  0040202C: E8 0D 0D 00 00     call        00402D3E
  00402031: 8D 4D F0           lea         ecx,[ebp-10h]
  00402034: 89 45 C8           mov         dword ptr [ebp-38h],eax
  00402037: 51                 push        ecx
  00402038: 50                 push        eax
  00402039: 6A 0A              push        0Ah
  0040203B: E8 F1 48 00 00     call        00406931
  00402040: FF D0              call        eax
  00402042: 8B F0              mov         esi,eax
  00402044: 8B 45 F4           mov         eax,dword ptr [ebp-0Ch]
  00402047: 66 89 1F           mov         word ptr [edi],bx
  0040204A: 3B F3              cmp         esi,ebx
  0040204C: 66 89 18           mov         word ptr [eax],bx
  0040204F: C7 45 FC 01 00 00  mov         dword ptr [ebp-4],1
            00
  00402056: 0F 84 66 0B 00 00  je          00402BC2
  0040205C: 56                 push        esi
  0040205D: 6A 40              push        40h
  0040205F: FF 15 38 81 40 00  call        dword ptr ds:[00408138h]
  00402065: 3B C3              cmp         eax,ebx
  00402067: 89 45 08           mov         dword ptr [ebp+8],eax
  0040206A: 0F 84 52 0B 00 00  je          00402BC2
  00402070: 6A 0B              push        0Bh
  00402072: E8 BA 48 00 00     call        00406931
  00402077: 6A 0C              push        0Ch
  00402079: 89 45 C0           mov         dword ptr [ebp-40h],eax
  0040207C: E8 B0 48 00 00     call        00406931
  00402081: FF 75 08           push        dword ptr [ebp+8]
  00402084: 89 45 E8           mov         dword ptr [ebp-18h],eax
  00402087: 56                 push        esi
  00402088: 53                 push        ebx
  00402089: FF 75 C8           push        dword ptr [ebp-38h]
  0040208C: FF 55 C0           call        dword ptr [ebp-40h]
  0040208F: 85 C0              test        eax,eax
  00402091: 74 34              je          004020C7
  00402093: 8D 45 B4           lea         eax,[ebp-4Ch]
  00402096: 50                 push        eax
  00402097: 8D 45 BC           lea         eax,[ebp-44h]
  0040209A: 50                 push        eax
  0040209B: 68 14 A0 40 00     push        40A014h
  004020A0: FF 75 08           push        dword ptr [ebp+8]
  004020A3: FF 55 E8           call        dword ptr [ebp-18h]
  004020A6: 85 C0              test        eax,eax
  004020A8: 74 1D              je          004020C7
  004020AA: 8B 45 BC           mov         eax,dword ptr [ebp-44h]
  004020AD: FF 70 08           push        dword ptr [eax+8]
  004020B0: 57                 push        edi
  004020B1: E8 CD 43 00 00     call        00406483
  004020B6: 8B 45 BC           mov         eax,dword ptr [ebp-44h]
  004020B9: FF 70 0C           push        dword ptr [eax+0Ch]
  004020BC: FF 75 F4           push        dword ptr [ebp-0Ch]
  004020BF: E8 BF 43 00 00     call        00406483
  004020C4: 89 5D FC           mov         dword ptr [ebp-4],ebx
  004020C7: FF 75 08           push        dword ptr [ebp+8]
  004020CA: E9 3C FB FF FF     jmp         00401C0B
  004020CF: 39 1D 38 A3 42 00  cmp         dword ptr ds:[0042A338h],ebx
  004020D5: C7 45 FC 01 00 00  mov         dword ptr [ebp-4],1
            00
  004020DC: 0F 8C B9 00 00 00  jl          0040219B
  004020E2: 6A F0              push        0FFFFFFF0h
  004020E4: E8 55 0C 00 00     call        00402D3E
  004020E9: 6A 01              push        1
  004020EB: 8B F8              mov         edi,eax
  004020ED: E8 4C 0C 00 00     call        00402D3E
  004020F2: 39 5D E0           cmp         dword ptr [ebp-20h],ebx
  004020F5: 89 45 BC           mov         dword ptr [ebp-44h],eax
  004020F8: 74 0E              je          00402108
  004020FA: 57                 push        edi
  004020FB: FF 15 3C 81 40 00  call        dword ptr ds:[0040813Ch]
  00402101: 3B C3              cmp         eax,ebx
  00402103: 89 45 08           mov         dword ptr [ebp+8],eax
  00402106: 75 11              jne         00402119
  00402108: 6A 08              push        8
  0040210A: 53                 push        ebx
  0040210B: 57                 push        edi
  0040210C: FF 15 40 81 40 00  call        dword ptr ds:[00408140h]
  00402112: 3B C3              cmp         eax,ebx
  00402114: 89 45 08           mov         dword ptr [ebp+8],eax
  00402117: 74 7B              je          00402194
  00402119: FF 75 BC           push        dword ptr [ebp-44h]
  0040211C: FF 75 08           push        dword ptr [ebp+8]
  0040211F: E8 7C 48 00 00     call        004069A0
  00402124: 8B F8              mov         edi,eax
  00402126: 3B FB              cmp         edi,ebx
  00402128: 74 39              je          00402163
  0040212A: 39 5D D8           cmp         dword ptr [ebp-28h],ebx
  0040212D: 89 5D FC           mov         dword ptr [ebp-4],ebx
  00402130: 74 17              je          00402149
  00402132: FF 75 D8           push        dword ptr [ebp-28h]
  00402135: E8 E9 F2 FF FF     call        00401423
  0040213A: FF D7              call        edi
  0040213C: 85 C0              test        eax,eax
  0040213E: 74 2D              je          0040216D
  00402140: C7 45 FC 01 00 00  mov         dword ptr [ebp-4],1
            00
  00402147: EB 24              jmp         0040216D
  00402149: 68 00 A0 40 00     push        40A000h
  0040214E: 68 58 CE 40 00     push        40CE58h
  00402153: 56                 push        esi
  00402154: 68 00 04 00 00     push        400h
  00402159: FF 75 F8           push        dword ptr [ebp-8]
  0040215C: FF D7              call        edi
  0040215E: 83 C4 14           add         esp,14h
  00402161: EB 0A              jmp         0040216D
  00402163: FF 75 BC           push        dword ptr [ebp-44h]
  00402166: 6A F7              push        0FFFFFFF7h
  00402168: E8 37 34 00 00     call        004055A4
  0040216D: 39 5D DC           cmp         dword ptr [ebp-24h],ebx
  00402170: 0F 85 4C 0A 00 00  jne         00402BC2
  00402176: FF 75 08           push        dword ptr [ebp+8]
  00402179: E8 2D 1A 00 00     call        00403BAB
  0040217E: 85 C0              test        eax,eax
  00402180: 0F 84 3C 0A 00 00  je          00402BC2
  00402186: FF 75 08           push        dword ptr [ebp+8]
  00402189: FF 15 48 81 40 00  call        dword ptr ds:[00408148h]
  0040218F: E9 2E 0A 00 00     jmp         00402BC2
  00402194: 6A F6              push        0FFFFFFF6h
  00402196: E9 4E 01 00 00     jmp         004022E9
  0040219B: 6A E7              push        0FFFFFFE7h
  0040219D: E9 47 01 00 00     jmp         004022E9
  004021A2: 6A F0              push        0FFFFFFF0h
  004021A4: E8 95 0B 00 00     call        00402D3E
  004021A9: 6A DF              push        0FFFFFFDFh
  004021AB: 89 45 F0           mov         dword ptr [ebp-10h],eax
  004021AE: E8 8B 0B 00 00     call        00402D3E
  004021B3: 6A 02              push        2
  004021B5: 89 45 BC           mov         dword ptr [ebp-44h],eax
  004021B8: E8 81 0B 00 00     call        00402D3E
  004021BD: 6A CD              push        0FFFFFFCDh
  004021BF: 89 45 F8           mov         dword ptr [ebp-8],eax
  004021C2: E8 77 0B 00 00     call        00402D3E
  004021C7: 6A 45              push        45h
  004021C9: 89 45 B4           mov         dword ptr [ebp-4Ch],eax
  004021CC: E8 6D 0B 00 00     call        00402D3E
  004021D1: FF 75 BC           push        dword ptr [ebp-44h]
  004021D4: 89 45 F4           mov         dword ptr [ebp-0Ch],eax
  004021D7: 8B 45 E0           mov         eax,dword ptr [ebp-20h]
  004021DA: 8B C8              mov         ecx,eax
  004021DC: 8B F8              mov         edi,eax
  004021DE: 8B F0              mov         esi,eax
  004021E0: 81 E1 FF 0F 00 00  and         ecx,0FFFh
  004021E6: C1 F8 10           sar         eax,10h
  004021E9: C1 FE 0C           sar         esi,0Ch
  004021EC: 25 FF FF 00 00     and         eax,0FFFFh
  004021F1: 89 4D B0           mov         dword ptr [ebp-50h],ecx
  004021F4: 81 E7 00 80 00 00  and         edi,8000h
  004021FA: 83 E6 07           and         esi,7
  004021FD: 89 45 C0           mov         dword ptr [ebp-40h],eax
  00402200: E8 83 3C 00 00     call        00405E88
  00402205: 85 C0              test        eax,eax
  00402207: 75 07              jne         00402210
  00402209: 6A 21              push        21h
  0040220B: E8 2E 0B 00 00     call        00402D3E
  00402210: 8D 45 08           lea         eax,[ebp+8]
  00402213: 50                 push        eax
  00402214: 68 D4 84 40 00     push        4084D4h
  00402219: 6A 01              push        1
  0040221B: 53                 push        ebx
  0040221C: 68 E4 84 40 00     push        4084E4h
  00402221: FF 15 A0 82 40 00  call        dword ptr ds:[004082A0h]
  00402227: 3B C3              cmp         eax,ebx
  00402229: 0F 8C B1 00 00 00  jl          004022E0
  0040222F: 8B 45 08           mov         eax,dword ptr [ebp+8]
  00402232: 8D 55 C8           lea         edx,[ebp-38h]
  00402235: 52                 push        edx
  00402236: 68 F4 84 40 00     push        4084F4h
  0040223B: 8B 08              mov         ecx,dword ptr [eax]
  0040223D: 50                 push        eax
  0040223E: FF 11              call        dword ptr [ecx]
  00402240: 3B C3              cmp         eax,ebx
  00402242: 89 45 E8           mov         dword ptr [ebp-18h],eax
  00402245: 0F 8C 87 00 00 00  jl          004022D2
  0040224B: 8B 45 08           mov         eax,dword ptr [ebp+8]
  0040224E: FF 75 BC           push        dword ptr [ebp-44h]
  00402251: 8B 08              mov         ecx,dword ptr [eax]
  00402253: 50                 push        eax
  00402254: FF 51 50           call        dword ptr [ecx+50h]
  00402257: 3B FB              cmp         edi,ebx
  00402259: 89 45 E8           mov         dword ptr [ebp-18h],eax
  0040225C: 75 0E              jne         0040226C
  0040225E: 8B 45 08           mov         eax,dword ptr [ebp+8]
  00402261: 68 00 60 43 00     push        436000h
  00402266: 50                 push        eax
  00402267: 8B 08              mov         ecx,dword ptr [eax]
  00402269: FF 51 24           call        dword ptr [ecx+24h]
  0040226C: 3B F3              cmp         esi,ebx
  0040226E: 74 0A              je          0040227A
  00402270: 8B 45 08           mov         eax,dword ptr [ebp+8]
  00402273: 56                 push        esi
  00402274: 50                 push        eax
  00402275: 8B 08              mov         ecx,dword ptr [eax]
  00402277: FF 51 3C           call        dword ptr [ecx+3Ch]
  0040227A: 8B 45 08           mov         eax,dword ptr [ebp+8]
  0040227D: FF 75 C0           push        dword ptr [ebp-40h]
  00402280: 8B 08              mov         ecx,dword ptr [eax]
  00402282: 50                 push        eax
  00402283: FF 51 34           call        dword ptr [ecx+34h]
  00402286: 8B 4D B4           mov         ecx,dword ptr [ebp-4Ch]
  00402289: 66 39 19           cmp         word ptr [ecx],bx
  0040228C: 74 0D              je          0040229B
  0040228E: 8B 45 08           mov         eax,dword ptr [ebp+8]
  00402291: FF 75 B0           push        dword ptr [ebp-50h]
  00402294: 8B 10              mov         edx,dword ptr [eax]
  00402296: 51                 push        ecx
  00402297: 50                 push        eax
  00402298: FF 52 44           call        dword ptr [edx+44h]
  0040229B: 8B 45 08           mov         eax,dword ptr [ebp+8]
  0040229E: FF 75 F8           push        dword ptr [ebp-8]
  004022A1: 8B 08              mov         ecx,dword ptr [eax]
  004022A3: 50                 push        eax
  004022A4: FF 51 2C           call        dword ptr [ecx+2Ch]
  004022A7: 8B 45 08           mov         eax,dword ptr [ebp+8]
  004022AA: FF 75 F4           push        dword ptr [ebp-0Ch]
  004022AD: 8B 08              mov         ecx,dword ptr [eax]
  004022AF: 50                 push        eax
  004022B0: FF 51 1C           call        dword ptr [ecx+1Ch]
  004022B3: 39 5D E8           cmp         dword ptr [ebp-18h],ebx
  004022B6: 7C 11              jl          004022C9
  004022B8: 8B 45 C8           mov         eax,dword ptr [ebp-38h]
  004022BB: 6A 01              push        1
  004022BD: FF 75 F0           push        dword ptr [ebp-10h]
  004022C0: 8B 08              mov         ecx,dword ptr [eax]
  004022C2: 50                 push        eax
  004022C3: FF 51 18           call        dword ptr [ecx+18h]
  004022C6: 89 45 E8           mov         dword ptr [ebp-18h],eax
  004022C9: 8B 45 C8           mov         eax,dword ptr [ebp-38h]
  004022CC: 50                 push        eax
  004022CD: 8B 08              mov         ecx,dword ptr [eax]
  004022CF: FF 51 08           call        dword ptr [ecx+8]
  004022D2: 8B 45 08           mov         eax,dword ptr [ebp+8]
  004022D5: 50                 push        eax
  004022D6: 8B 08              mov         ecx,dword ptr [eax]
  004022D8: FF 51 08           call        dword ptr [ecx+8]
  004022DB: 39 5D E8           cmp         dword ptr [ebp-18h],ebx
  004022DE: 7D 13              jge         004022F3
  004022E0: C7 45 FC 01 00 00  mov         dword ptr [ebp-4],1
            00
  004022E7: 6A F0              push        0FFFFFFF0h
  004022E9: E8 35 F1 FF FF     call        00401423
  004022EE: E9 CF 08 00 00     jmp         00402BC2
  004022F3: 6A F4              push        0FFFFFFF4h
  004022F5: EB F2              jmp         004022E9
  004022F7: 53                 push        ebx
  004022F8: E8 41 0A 00 00     call        00402D3E
  004022FD: 6A 11              push        11h
  004022FF: 8B F0              mov         esi,eax
  00402301: E8 38 0A 00 00     call        00402D3E
  00402306: 6A 23              push        23h
  00402308: 8B F8              mov         edi,eax
  0040230A: E8 2F 0A 00 00     call        00402D3E
  0040230F: 56                 push        esi
  00402310: 89 45 08           mov         dword ptr [ebp+8],eax
  00402313: E8 82 45 00 00     call        0040689A
  00402318: 85 C0              test        eax,eax
  0040231A: 75 0D              jne         00402329
  0040231C: 53                 push        ebx
  0040231D: 6A F9              push        0FFFFFFF9h
  0040231F: E8 80 32 00 00     call        004055A4
  00402324: E9 FC 05 00 00     jmp         00402925
  00402329: 8B 45 F8           mov         eax,dword ptr [ebp-8]
  0040232C: 56                 push        esi
  0040232D: 89 45 90           mov         dword ptr [ebp-70h],eax
  00402330: C7 45 94 02 00 00  mov         dword ptr [ebp-6Ch],2
            00
  00402337: E8 16 42 00 00     call        00406552
  0040233C: 57                 push        edi
  0040233D: 66 89 5C 46 02     mov         word ptr [esi+eax*2+2],bx
  00402342: E8 0B 42 00 00     call        00406552
  00402347: 66 89 5C 47 02     mov         word ptr [edi+eax*2+2],bx
  0040234C: 8B 45 08           mov         eax,dword ptr [ebp+8]
  0040234F: 66 8B 4D D8        mov         cx,word ptr [ebp-28h]
  00402353: 50                 push        eax
  00402354: 53                 push        ebx
  00402355: 89 75 98           mov         dword ptr [ebp-68h],esi
  00402358: 89 7D 9C           mov         dword ptr [ebp-64h],edi
  0040235B: 89 45 AA           mov         dword ptr [ebp-56h],eax
  0040235E: 66 89 4D A0        mov         word ptr [ebp-60h],cx
  00402362: E8 3D 32 00 00     call        004055A4
  00402367: 8D 45 90           lea         eax,[ebp-70h]
  0040236A: 50                 push        eax
  0040236B: FF 15 7C 81 40 00  call        dword ptr ds:[0040817Ch]
  00402371: 85 C0              test        eax,eax
  00402373: 0F 84 49 08 00 00  je          00402BC2
  00402379: EB A1              jmp         0040231C
  0040237B: 3D 0D F0 AD 0B     cmp         eax,0BADF00Dh
  00402380: 74 1D              je          0040239F
  00402382: 68 10 00 20 00     push        200010h
  00402387: 6A E8              push        0FFFFFFE8h
  00402389: 53                 push        ebx
  0040238A: E8 EA 41 00 00     call        00406579
  0040238F: 50                 push        eax
  00402390: E8 0D 38 00 00     call        00405BA2
  00402395: B8 FF FF FF 7F     mov         eax,7FFFFFFFh
  0040239A: E9 2E 08 00 00     jmp         00402BCD
  0040239F: FF 05 14 A3 42 00  inc         dword ptr ds:[0042A314h]
  004023A5: E9 18 08 00 00     jmp         00402BC2
  004023AA: 33 F6              xor         esi,esi
  004023AC: 33 FF              xor         edi,edi
  004023AE: 3B C3              cmp         eax,ebx
  004023B0: 74 08              je          004023BA
  004023B2: 53                 push        ebx
  004023B3: E8 86 09 00 00     call        00402D3E
  004023B8: 8B F0              mov         esi,eax
  004023BA: 39 5D D4           cmp         dword ptr [ebp-2Ch],ebx
  004023BD: 74 09              je          004023C8
  004023BF: 6A 11              push        11h
  004023C1: E8 78 09 00 00     call        00402D3E
  004023C6: 8B F8              mov         edi,eax
  004023C8: 39 5D E0           cmp         dword ptr [ebp-20h],ebx
  004023CB: 74 09              je          004023D6
  004023CD: 6A 22              push        22h
  004023CF: E8 6A 09 00 00     call        00402D3E
  004023D4: 8B D8              mov         ebx,eax
  004023D6: 6A CD              push        0FFFFFFCDh
  004023D8: E8 61 09 00 00     call        00402D3E
  004023DD: 50                 push        eax
  004023DE: 53                 push        ebx
  004023DF: 57                 push        edi
  004023E0: 56                 push        esi
  004023E1: FF 15 4C 81 40 00  call        dword ptr ds:[0040814Ch]
  004023E7: E9 C8 F1 FF FF     jmp         004015B4
  004023EC: A1 10 A0 40 00     mov         eax,dword ptr ds:[0040A010h]
  004023F1: 6A 01              push        1
  004023F3: 89 45 08           mov         dword ptr [ebp+8],eax
  004023F6: E8 43 09 00 00     call        00402D3E
  004023FB: 6A 12              push        12h
  004023FD: 8B F0              mov         esi,eax
  004023FF: E8 3A 09 00 00     call        00402D3E
  00402404: 6A DD              push        0FFFFFFDDh
  00402406: 89 45 F0           mov         dword ptr [ebp-10h],eax
  00402409: E8 30 09 00 00     call        00402D3E
  0040240E: 50                 push        eax
  0040240F: 68 FF 03 00 00     push        3FFh
  00402414: 8D 45 08           lea         eax,[ebp+8]
  00402417: 57                 push        edi
  00402418: 50                 push        eax
  00402419: FF 75 F0           push        dword ptr [ebp-10h]
  0040241C: 56                 push        esi
  0040241D: FF 15 50 81 40 00  call        dword ptr ds:[00408150h]
  00402423: 66 83 3F 0A        cmp         word ptr [edi],0Ah
  00402427: E9 25 F3 FF FF     jmp         00401751
  0040242C: 39 5D E0           cmp         dword ptr [ebp-20h],ebx
  0040242F: 8B 75 D4           mov         esi,dword ptr [ebp-2Ch]
  00402432: 75 2B              jne         0040245F
  00402434: 6A 02              push        2
  00402436: E8 43 09 00 00     call        00402D7E
  0040243B: 8B F0              mov         esi,eax
  0040243D: 3B F3              cmp         esi,ebx
  0040243F: 0F 84 E0 04 00 00  je          00402925
  00402445: 6A 33              push        33h
  00402447: E8 F2 08 00 00     call        00402D3E
  0040244C: 50                 push        eax
  0040244D: 56                 push        esi
  0040244E: FF 15 14 80 40 00  call        dword ptr ds:[00408014h]
  00402454: 56                 push        esi
  00402455: 8B F8              mov         edi,eax
  00402457: FF 15 10 80 40 00  call        dword ptr ds:[00408010h]
  0040245D: EB 16              jmp         00402475
  0040245F: 6A 22              push        22h
  00402461: E8 D8 08 00 00     call        00402D3E
  00402466: 8B 4D E0           mov         ecx,dword ptr [ebp-20h]
  00402469: D1 F9              sar         ecx,1
  0040246B: 51                 push        ecx
  0040246C: 50                 push        eax
  0040246D: 56                 push        esi
  0040246E: E8 89 09 00 00     call        00402DFC
  00402473: 8B F8              mov         edi,eax
  00402475: 3B FB              cmp         edi,ebx
  00402477: 0F 84 45 07 00 00  je          00402BC2
  0040247D: E9 A3 04 00 00     jmp         00402925
  00402482: 8B 75 E0           mov         esi,dword ptr [ebp-20h]
  00402485: 8B F8              mov         edi,eax
  00402487: 8B 45 E4           mov         eax,dword ptr [ebp-1Ch]
  0040248A: 6A 02              push        2
  0040248C: 89 45 F0           mov         dword ptr [ebp-10h],eax
  0040248F: E8 AA 08 00 00     call        00402D3E
  00402494: 6A 11              push        11h
  00402496: 89 45 BC           mov         dword ptr [ebp-44h],eax
  00402499: E8 A0 08 00 00     call        00402D3E
  0040249E: 6A 02              push        2
  004024A0: 50                 push        eax
  004024A1: 57                 push        edi
  004024A2: C7 45 FC 01 00 00  mov         dword ptr [ebp-4],1
            00
  004024A9: E8 20 09 00 00     call        00402DCE
  004024AE: 3B C3              cmp         eax,ebx
  004024B0: 89 45 08           mov         dword ptr [ebp+8],eax
  004024B3: 0F 84 09 07 00 00  je          00402BC2
  004024B9: 33 C0              xor         eax,eax
  004024BB: 83 FE 01           cmp         esi,1
  004024BE: BF F8 B5 40 00     mov         edi,40B5F8h
  004024C3: 75 11              jne         004024D6
  004024C5: 6A 23              push        23h
  004024C7: E8 72 08 00 00     call        00402D3E
  004024CC: 57                 push        edi
  004024CD: E8 80 40 00 00     call        00406552
  004024D2: 8D 44 00 02        lea         eax,[eax+eax+2]
  004024D6: 83 FE 04           cmp         esi,4
  004024D9: 75 12              jne         004024ED
  004024DB: 6A 03              push        3
  004024DD: E8 3A 08 00 00     call        00402D1C
  004024E2: 59                 pop         ecx
  004024E3: A3 F8 B5 40 00     mov         dword ptr ds:[0040B5F8h],eax
  004024E8: 56                 push        esi
  004024E9: 89 55 C8           mov         dword ptr [ebp-38h],edx
  004024EC: 58                 pop         eax
  004024ED: 83 FE 03           cmp         esi,3
  004024F0: 75 0F              jne         00402501
  004024F2: 68 00 18 00 00     push        1800h
  004024F7: 57                 push        edi
  004024F8: 53                 push        ebx
  004024F9: FF 75 DC           push        dword ptr [ebp-24h]
  004024FC: E8 08 0E 00 00     call        00403309
  00402501: 50                 push        eax
  00402502: 57                 push        edi
  00402503: FF 75 F0           push        dword ptr [ebp-10h]
  00402506: 53                 push        ebx
  00402507: FF 75 BC           push        dword ptr [ebp-44h]
  0040250A: FF 75 08           push        dword ptr [ebp+8]
  0040250D: FF 15 0C 80 40 00  call        dword ptr ds:[0040800Ch]
  00402513: 85 C0              test        eax,eax
  00402515: 75 03              jne         0040251A
  00402517: 89 5D FC           mov         dword ptr [ebp-4],ebx
  0040251A: FF 75 08           push        dword ptr [ebp+8]
  0040251D: E9 D3 00 00 00     jmp         004025F5
  00402522: 68 19 00 02 00     push        20019h
  00402527: E8 52 08 00 00     call        00402D7E
  0040252C: 6A 33              push        33h
  0040252E: 8B F0              mov         esi,eax
  00402530: E8 09 08 00 00     call        00402D3E
  00402535: 3B F3              cmp         esi,ebx
  00402537: 66 89 1F           mov         word ptr [edi],bx
  0040253A: 0F 84 E5 03 00 00  je          00402925
  00402540: 8D 4D F0           lea         ecx,[ebp-10h]
  00402543: C7 45 F0 00 08 00  mov         dword ptr [ebp-10h],800h
            00
  0040254A: 51                 push        ecx
  0040254B: 8D 4D 08           lea         ecx,[ebp+8]
  0040254E: 57                 push        edi
  0040254F: 51                 push        ecx
  00402550: 53                 push        ebx
  00402551: 50                 push        eax
  00402552: 56                 push        esi
  00402553: FF 15 08 80 40 00  call        dword ptr ds:[00408008h]
  00402559: 33 C9              xor         ecx,ecx
  0040255B: 41                 inc         ecx
  0040255C: 85 C0              test        eax,eax
  0040255E: 75 2E              jne         0040258E
  00402560: 83 7D 08 04        cmp         dword ptr [ebp+8],4
  00402564: 74 13              je          00402579
  00402566: 39 4D 08           cmp         dword ptr [ebp+8],ecx
  00402569: 74 06              je          00402571
  0040256B: 83 7D 08 02        cmp         dword ptr [ebp+8],2
  0040256F: 75 1D              jne         0040258E
  00402571: 8B 45 E0           mov         eax,dword ptr [ebp-20h]
  00402574: 89 45 FC           mov         dword ptr [ebp-4],eax
  00402577: EB 74              jmp         004025ED
  00402579: FF 37              push        dword ptr [edi]
  0040257B: 33 C0              xor         eax,eax
  0040257D: 39 5D E0           cmp         dword ptr [ebp-20h],ebx
  00402580: 57                 push        edi
  00402581: 0F 94 C0           sete        al
  00402584: 89 45 FC           mov         dword ptr [ebp-4],eax
  00402587: E8 F7 3E 00 00     call        00406483
  0040258C: EB 66              jmp         004025F4
  0040258E: 66 89 1F           mov         word ptr [edi],bx
  00402591: 89 4D FC           mov         dword ptr [ebp-4],ecx
  00402594: EB 5E              jmp         004025F4
  00402596: 68 19 00 02 00     push        20019h
  0040259B: E8 DE 07 00 00     call        00402D7E
  004025A0: 6A 03              push        3
  004025A2: 8B F0              mov         esi,eax
  004025A4: E8 73 07 00 00     call        00402D1C
  004025A9: 3B F3              cmp         esi,ebx
  004025AB: 59                 pop         ecx
  004025AC: 89 55 F0           mov         dword ptr [ebp-10h],edx
  004025AF: 66 89 1F           mov         word ptr [edi],bx
  004025B2: 0F 84 6D 03 00 00  je          00402925
  004025B8: 39 5D E0           cmp         dword ptr [ebp-20h],ebx
  004025BB: B9 FF 03 00 00     mov         ecx,3FFh
  004025C0: 89 4D 08           mov         dword ptr [ebp+8],ecx
  004025C3: 74 0C              je          004025D1
  004025C5: 51                 push        ecx
  004025C6: 57                 push        edi
  004025C7: 50                 push        eax
  004025C8: 56                 push        esi
  004025C9: FF 15 04 80 40 00  call        dword ptr ds:[00408004h]
  004025CF: EB 1C              jmp         004025ED
  004025D1: 53                 push        ebx
  004025D2: 53                 push        ebx
  004025D3: 53                 push        ebx
  004025D4: 8D 4D 08           lea         ecx,[ebp+8]
  004025D7: 53                 push        ebx
  004025D8: 51                 push        ecx
  004025D9: 57                 push        edi
  004025DA: 50                 push        eax
  004025DB: 56                 push        esi
  004025DC: FF 15 30 80 40 00  call        dword ptr ds:[00408030h]
  004025E2: 85 C0              test        eax,eax
  004025E4: 74 07              je          004025ED
  004025E6: C7 45 FC 01 00 00  mov         dword ptr [ebp-4],1
            00
  004025ED: 66 89 9F FE 07 00  mov         word ptr [edi+000007FEh],bx
            00
  004025F4: 56                 push        esi
  004025F5: FF 15 10 80 40 00  call        dword ptr ds:[00408010h]
  004025FB: E9 C2 05 00 00     jmp         00402BC2
  00402600: 57                 push        edi
  00402601: E8 96 3E 00 00     call        0040649C
  00402606: 3B C3              cmp         eax,ebx
  00402608: 0F 84 B4 05 00 00  je          00402BC2
  0040260E: 50                 push        eax
  0040260F: E9 D7 F9 FF FF     jmp         00401FEB
  00402614: 6A ED              push        0FFFFFFEDh
  00402616: E8 23 07 00 00     call        00402D3E
  0040261B: FF 75 D8           push        dword ptr [ebp-28h]
  0040261E: FF 75 D4           push        dword ptr [ebp-2Ch]
  00402621: 50                 push        eax
  00402622: E8 0B 3A 00 00     call        00406032
  00402627: 83 F8 FF           cmp         eax,0FFFFFFFFh
  0040262A: 0F 84 F2 02 00 00  je          00402922
  00402630: 50                 push        eax
  00402631: E9 37 EF FF FF     jmp         0040156D
  00402636: 8B 45 D8           mov         eax,dword ptr [ebp-28h]
  00402639: 33 C9              xor         ecx,ecx
  0040263B: 83 FA 38           cmp         edx,38h
  0040263E: 89 45 F0           mov         dword ptr [ebp-10h],eax
  00402641: 0F 94 C1           sete        cl
  00402644: 3B C3              cmp         eax,ebx
  00402646: 8B F1              mov         esi,ecx
  00402648: 74 1B              je          00402665
  0040264A: 6A 01              push        1
  0040264C: E8 CB 06 00 00     call        00402D1C
  00402651: 66 A3 F8 AD 40 00  mov         word ptr ds:[0040ADF8h],ax
  00402657: 33 C0              xor         eax,eax
  00402659: 3B F3              cmp         esi,ebx
  0040265B: 59                 pop         ecx
  0040265C: 0F 94 C0           sete        al
  0040265F: 89 55 BC           mov         dword ptr [ebp-44h],edx
  00402662: 40                 inc         eax
  00402663: EB 3F              jmp         004026A4
  00402665: 83 FA 38           cmp         edx,38h
  00402668: 75 2B              jne         00402695
  0040266A: 6A 21              push        21h
  0040266C: E8 CD 06 00 00     call        00402D3E
  00402671: 68 00 04 00 00     push        400h
  00402676: 68 F8 AD 40 00     push        40ADF8h
  0040267B: 68 F8 B5 40 00     push        40B5F8h
  00402680: E8 D9 3E 00 00     call        0040655E
  00402685: 83 C4 0C           add         esp,0Ch
  00402688: 68 F8 AD 40 00     push        40ADF8h
  0040268D: FF 15 54 81 40 00  call        dword ptr ds:[00408154h]
  00402693: EB 0F              jmp         004026A4
  00402695: 6A 11              push        11h
  00402697: E8 A2 06 00 00     call        00402D3E
  0040269C: 50                 push        eax
  0040269D: E8 B0 3E 00 00     call        00406552
  004026A2: 03 C0              add         eax,eax
  004026A4: 66 39 1F           cmp         word ptr [edi],bx
  004026A7: 89 45 08           mov         dword ptr [ebp+8],eax
  004026AA: 0F 84 75 02 00 00  je          00402925
  004026B0: 57                 push        edi
  004026B1: E8 E6 3D 00 00     call        0040649C
  004026B6: 0B 75 F0           or          esi,dword ptr [ebp-10h]
  004026B9: 8B F8              mov         edi,eax
  004026BB: 75 14              jne         004026D1
  004026BD: 39 5D DC           cmp         dword ptr [ebp-24h],ebx
  004026C0: 74 0F              je          004026D1
  004026C2: 57                 push        edi
  004026C3: 57                 push        edi
  004026C4: E8 4A 3A 00 00     call        00406113
  004026C9: 85 C0              test        eax,eax
  004026CB: 0F 8C 54 02 00 00  jl          00402925
  004026D1: FF 75 08           push        dword ptr [ebp+8]
  004026D4: 68 F8 AD 40 00     push        40ADF8h
  004026D9: 57                 push        edi
  004026DA: E8 05 3A 00 00     call        004060E4
  004026DF: E9 D0 EE FF FF     jmp         004015B4
  004026E4: 6A 02              push        2
  004026E6: 89 5D F8           mov         dword ptr [ebp-8],ebx
  004026E9: 58                 pop         eax
  004026EA: 50                 push        eax
  004026EB: 89 45 B4           mov         dword ptr [ebp-4Ch],eax
  004026EE: E8 29 06 00 00     call        00402D1C
  004026F3: 83 F8 01           cmp         eax,1
  004026F6: 59                 pop         ecx
  004026F7: 89 55 F0           mov         dword ptr [ebp-10h],edx
  004026FA: 89 45 BC           mov         dword ptr [ebp-44h],eax
  004026FD: 0F 8C BF 04 00 00  jl          00402BC2
  00402703: B9 FF 03 00 00     mov         ecx,3FFh
  00402708: 3B C1              cmp         eax,ecx
  0040270A: 7E 03              jle         0040270F
  0040270C: 89 4D BC           mov         dword ptr [ebp-44h],ecx
  0040270F: 66 39 1F           cmp         word ptr [edi],bx
  00402712: 0F 84 5E 01 00 00  je          00402876
  00402718: 57                 push        edi
  00402719: 89 5D C8           mov         dword ptr [ebp-38h],ebx
  0040271C: E8 7B 3D 00 00     call        0040649C
  00402721: 39 5D BC           cmp         dword ptr [ebp-44h],ebx
  00402724: 89 45 E8           mov         dword ptr [ebp-18h],eax
  00402727: 0F 8E 49 01 00 00  jle         00402876
  0040272D: 8B 35 58 81 40 00  mov         esi,dword ptr ds:[00408158h]
  00402733: 83 7D CC 39        cmp         dword ptr [ebp-34h],39h
  00402737: 0F 85 8F 00 00 00  jne         004027CC
  0040273D: 8D 45 C0           lea         eax,[ebp-40h]
  00402740: 53                 push        ebx
  00402741: 50                 push        eax
  00402742: 6A 02              push        2
  00402744: 58                 pop         eax
  00402745: 2B 45 DC           sub         eax,dword ptr [ebp-24h]
  00402748: 50                 push        eax
  00402749: 8D 45 0A           lea         eax,[ebp+0Ah]
  0040274C: 50                 push        eax
  0040274D: FF 75 E8           push        dword ptr [ebp-18h]
  00402750: FF 15 5C 81 40 00  call        dword ptr ds:[0040815Ch]
  00402756: 85 C0              test        eax,eax
  00402758: 0F 84 18 01 00 00  je          00402876
  0040275E: 8B 4D C0           mov         ecx,dword ptr [ebp-40h]
  00402761: 3B CB              cmp         ecx,ebx
  00402763: 0F 84 0D 01 00 00  je          00402876
  00402769: 66 0F B6 45 0A     movzx       ax,byte ptr [ebp+0Ah]
  0040276E: 39 5D DC           cmp         dword ptr [ebp-24h],ebx
  00402771: 89 4D B4           mov         dword ptr [ebp-4Ch],ecx
  00402774: 89 45 B0           mov         dword ptr [ebp-50h],eax
  00402777: 0F 85 B5 00 00 00  jne         00402832
  0040277D: 8D 45 B0           lea         eax,[ebp-50h]
  00402780: 6A 01              push        1
  00402782: 50                 push        eax
  00402783: 8D 45 0A           lea         eax,[ebp+0Ah]
  00402786: 51                 push        ecx
  00402787: 50                 push        eax
  00402788: 6A 08              push        8
  0040278A: 53                 push        ebx
  0040278B: FF D6              call        esi
  0040278D: 85 C0              test        eax,eax
  0040278F: 75 68              jne         004027F9
  00402791: 8B 7D B4           mov         edi,dword ptr [ebp-4Ch]
  00402794: F7 DF              neg         edi
  00402796: FF 4D C0           dec         dword ptr [ebp-40h]
  00402799: B8 FD FF 00 00     mov         eax,0FFFDh
  0040279E: 89 45 B0           mov         dword ptr [ebp-50h],eax
  004027A1: 74 59              je          004027FC
  004027A3: FF 4D B4           dec         dword ptr [ebp-4Ch]
  004027A6: 47                 inc         edi
  004027A7: 6A 01              push        1
  004027A9: 53                 push        ebx
  004027AA: 57                 push        edi
  004027AB: FF 75 E8           push        dword ptr [ebp-18h]
  004027AE: FF 15 60 81 40 00  call        dword ptr ds:[00408160h]
  004027B4: 8D 45 B0           lea         eax,[ebp-50h]
  004027B7: 6A 01              push        1
  004027B9: 50                 push        eax
  004027BA: 8D 45 0A           lea         eax,[ebp+0Ah]
  004027BD: FF 75 C0           push        dword ptr [ebp-40h]
  004027C0: 50                 push        eax
  004027C1: 6A 08              push        8
  004027C3: 53                 push        ebx
  004027C4: FF D6              call        esi
  004027C6: 85 C0              test        eax,eax
  004027C8: 74 CC              je          00402796
  004027CA: EB 2D              jmp         004027F9
  004027CC: 39 5D DC           cmp         dword ptr [ebp-24h],ebx
  004027CF: 75 16              jne         004027E7
  004027D1: 39 5D F8           cmp         dword ptr [ebp-8],ebx
  004027D4: 75 11              jne         004027E7
  004027D6: 53                 push        ebx
  004027D7: FF 75 E8           push        dword ptr [ebp-18h]
  004027DA: E8 34 39 00 00     call        00406113
  004027DF: 85 C0              test        eax,eax
  004027E1: 0F 8C 8F 00 00 00  jl          00402876
  004027E7: 8D 45 B0           lea         eax,[ebp-50h]
  004027EA: 6A 02              push        2
  004027EC: 50                 push        eax
  004027ED: FF 75 E8           push        dword ptr [ebp-18h]
  004027F0: E8 C0 38 00 00     call        004060B5
  004027F5: 85 C0              test        eax,eax
  004027F7: 74 7D              je          00402876
  004027F9: 8B 45 B0           mov         eax,dword ptr [ebp-50h]
  004027FC: 39 5D DC           cmp         dword ptr [ebp-24h],ebx
  004027FF: 75 31              jne         00402832
  00402801: 66 83 7D C8 0D     cmp         word ptr [ebp-38h],0Dh
  00402806: 74 3B              je          00402843
  00402808: 66 83 7D C8 0A     cmp         word ptr [ebp-38h],0Ah
  0040280D: 74 34              je          00402843
  0040280F: 8B 4D F4           mov         ecx,dword ptr [ebp-0Ch]
  00402812: 8B 55 F8           mov         edx,dword ptr [ebp-8]
  00402815: FF 45 F8           inc         dword ptr [ebp-8]
  00402818: 66 3B C3           cmp         ax,bx
  0040281B: 66 89 04 51        mov         word ptr [ecx+edx*2],ax
  0040281F: 89 45 C8           mov         dword ptr [ebp-38h],eax
  00402822: 74 52              je          00402876
  00402824: 8B 45 F8           mov         eax,dword ptr [ebp-8]
  00402827: 3B 45 BC           cmp         eax,dword ptr [ebp-44h]
  0040282A: 0F 8C 03 FF FF FF  jl          00402733
  00402830: EB 44              jmp         00402876
  00402832: 0F B7 C0           movzx       eax,ax
  00402835: 50                 push        eax
  00402836: FF 75 F4           push        dword ptr [ebp-0Ch]
  00402839: E8 45 3C 00 00     call        00406483
  0040283E: E9 88 03 00 00     jmp         00402BCB
  00402843: 66 39 45 C8        cmp         word ptr [ebp-38h],ax
  00402847: 74 1B              je          00402864
  00402849: 66 3D 0D 00        cmp         ax,0Dh
  0040284D: 74 06              je          00402855
  0040284F: 66 3D 0A 00        cmp         ax,0Ah
  00402853: 75 0F              jne         00402864
  00402855: 8B 4D F4           mov         ecx,dword ptr [ebp-0Ch]
  00402858: 8B 55 F8           mov         edx,dword ptr [ebp-8]
  0040285B: FF 45 F8           inc         dword ptr [ebp-8]
  0040285E: 66 89 04 51        mov         word ptr [ecx+edx*2],ax
  00402862: EB 12              jmp         00402876
  00402864: 8B 45 B4           mov         eax,dword ptr [ebp-4Ch]
  00402867: 6A 01              push        1
  00402869: F7 D8              neg         eax
  0040286B: 53                 push        ebx
  0040286C: 50                 push        eax
  0040286D: FF 75 E8           push        dword ptr [ebp-18h]
  00402870: FF 15 60 81 40 00  call        dword ptr ds:[00408160h]
  00402876: 8B 4D F4           mov         ecx,dword ptr [ebp-0Ch]
  00402879: 8B 45 F8           mov         eax,dword ptr [ebp-8]
  0040287C: 3B C3              cmp         eax,ebx
  0040287E: 66 89 1C 41        mov         word ptr [ecx+eax*2],bx
  00402882: E9 2F ED FF FF     jmp         004015B6
  00402887: 66 39 1F           cmp         word ptr [edi],bx
  0040288A: 0F 84 32 03 00 00  je          00402BC2
  00402890: 6A 02              push        2
  00402892: E8 85 04 00 00     call        00402D1C
  00402897: 59                 pop         ecx
  00402898: 89 55 F0           mov         dword ptr [ebp-10h],edx
  0040289B: FF 75 DC           push        dword ptr [ebp-24h]
  0040289E: 53                 push        ebx
  0040289F: 50                 push        eax
  004028A0: 57                 push        edi
  004028A1: E8 F6 3B 00 00     call        0040649C
  004028A6: 50                 push        eax
  004028A7: FF 15 60 81 40 00  call        dword ptr ds:[00408160h]
  004028AD: 39 5D D4           cmp         dword ptr [ebp-2Ch],ebx
  004028B0: 0F 8C 0C 03 00 00  jl          00402BC2
  004028B6: E9 49 02 00 00     jmp         00402B04
  004028BB: 57                 push        edi
  004028BC: E8 DB 3B 00 00     call        0040649C
  004028C1: 3B C3              cmp         eax,ebx
  004028C3: 0F 84 F9 02 00 00  je          00402BC2
  004028C9: 50                 push        eax
  004028CA: FF 15 64 81 40 00  call        dword ptr ds:[00408164h]
  004028D0: E9 ED 02 00 00     jmp         00402BC2
  004028D5: FF 75 F4           push        dword ptr [ebp-0Ch]
  004028D8: E8 BF 3B 00 00     call        0040649C
  004028DD: 3B C3              cmp         eax,ebx
  004028DF: 74 12              je          004028F3
  004028E1: 8D 8D 24 FD FF FF  lea         ecx,[ebp+FFFFFD24h]
  004028E7: 51                 push        ecx
  004028E8: 50                 push        eax
  004028E9: FF 15 68 81 40 00  call        dword ptr ds:[00408168h]
  004028EF: 85 C0              test        eax,eax
  004028F1: 75 47              jne         0040293A
  004028F3: C7 45 FC 01 00 00  mov         dword ptr [ebp-4],1
            00
  004028FA: 66 89 1F           mov         word ptr [edi],bx
  004028FD: E9 C0 02 00 00     jmp         00402BC2
  00402902: 6A 02              push        2
  00402904: E8 35 04 00 00     call        00402D3E
  00402909: 8D 8D 24 FD FF FF  lea         ecx,[ebp+FFFFFD24h]
  0040290F: 51                 push        ecx
  00402910: 50                 push        eax
  00402911: FF 15 6C 81 40 00  call        dword ptr ds:[0040816Ch]
  00402917: 83 F8 FF           cmp         eax,0FFFFFFFFh
  0040291A: 75 15              jne         00402931
  0040291C: 8B 45 F4           mov         eax,dword ptr [ebp-0Ch]
  0040291F: 66 89 18           mov         word ptr [eax],bx
  00402922: 66 89 1F           mov         word ptr [edi],bx
  00402925: C7 45 FC 01 00 00  mov         dword ptr [ebp-4],1
            00
  0040292C: E9 91 02 00 00     jmp         00402BC2
  00402931: 50                 push        eax
  00402932: FF 75 F4           push        dword ptr [ebp-0Ch]
  00402935: E8 49 3B 00 00     call        00406483
  0040293A: 8D 85 50 FD FF FF  lea         eax,[ebp+FFFFFD50h]
  00402940: 50                 push        eax
  00402941: 57                 push        edi
  00402942: E9 34 01 00 00     jmp         00402A7B
  00402947: 6A F0              push        0FFFFFFF0h
  00402949: C7 45 C8 66 FD FF  mov         dword ptr [ebp-38h],0FFFFFD66h
            FF
  00402950: E8 E9 03 00 00     call        00402D3E
  00402955: 8B F0              mov         esi,eax
  00402957: 56                 push        esi
  00402958: 89 75 C0           mov         dword ptr [ebp-40h],esi
  0040295B: E8 28 35 00 00     call        00405E88
  00402960: 85 C0              test        eax,eax
  00402962: 75 07              jne         0040296B
  00402964: 6A ED              push        0FFFFFFEDh
  00402966: E8 D3 03 00 00     call        00402D3E
  0040296B: 56                 push        esi
  0040296C: E8 9C 36 00 00     call        0040600D
  00402971: 6A 02              push        2
  00402973: 68 00 00 00 40     push        40000000h
  00402978: 56                 push        esi
  00402979: E8 B4 36 00 00     call        00406032
  0040297E: 83 F8 FF           cmp         eax,0FFFFFFFFh
  00402981: 89 45 08           mov         dword ptr [ebp+8],eax
  00402984: 0F 84 97 00 00 00  je          00402A21
  0040298A: A1 78 A2 42 00     mov         eax,dword ptr ds:[0042A278h]
  0040298F: 8B 35 38 81 40 00  mov         esi,dword ptr ds:[00408138h]
  00402995: 50                 push        eax
  00402996: 6A 40              push        40h
  00402998: 89 45 BC           mov         dword ptr [ebp-44h],eax
  0040299B: FF D6              call        esi
  0040299D: 8B F8              mov         edi,eax
  0040299F: 3B FB              cmp         edi,ebx
  004029A1: 74 75              je          00402A18
  004029A3: 53                 push        ebx
  004029A4: E8 E7 0B 00 00     call        00403590
  004029A9: FF 75 BC           push        dword ptr [ebp-44h]
  004029AC: 57                 push        edi
  004029AD: E8 C8 0B 00 00     call        0040357A
  004029B2: FF 75 D8           push        dword ptr [ebp-28h]
  004029B5: 6A 40              push        40h
  004029B7: FF D6              call        esi
  004029B9: 8B F0              mov         esi,eax
  004029BB: 3B F3              cmp         esi,ebx
  004029BD: 89 75 F0           mov         dword ptr [ebp-10h],esi
  004029C0: 74 34              je          004029F6
  004029C2: FF 75 D8           push        dword ptr [ebp-28h]
  004029C5: 56                 push        esi
  004029C6: 53                 push        ebx
  004029C7: FF 75 D4           push        dword ptr [ebp-2Ch]
  004029CA: E8 3A 09 00 00     call        00403309
  004029CF: EB 18              jmp         004029E9
  004029D1: 8B 0E              mov         ecx,dword ptr [esi]
  004029D3: 8B 46 04           mov         eax,dword ptr [esi+4]
  004029D6: 83 C6 08           add         esi,8
  004029D9: 51                 push        ecx
  004029DA: 03 C7              add         eax,edi
  004029DC: 56                 push        esi
  004029DD: 50                 push        eax
  004029DE: 89 4D C4           mov         dword ptr [ebp-3Ch],ecx
  004029E1: E8 07 36 00 00     call        00405FED
  004029E6: 03 75 C4           add         esi,dword ptr [ebp-3Ch]
  004029E9: 38 1E              cmp         byte ptr [esi],bl
  004029EB: 75 E4              jne         004029D1
  004029ED: FF 75 F0           push        dword ptr [ebp-10h]
  004029F0: FF 15 34 81 40 00  call        dword ptr ds:[00408134h]
  004029F6: FF 75 BC           push        dword ptr [ebp-44h]
  004029F9: 57                 push        edi
  004029FA: FF 75 08           push        dword ptr [ebp+8]
  004029FD: E8 E2 36 00 00     call        004060E4
  00402A02: 57                 push        edi
  00402A03: FF 15 34 81 40 00  call        dword ptr ds:[00408134h]
  00402A09: 53                 push        ebx
  00402A0A: 53                 push        ebx
  00402A0B: FF 75 08           push        dword ptr [ebp+8]
  00402A0E: 6A FF              push        0FFFFFFFFh
  00402A10: E8 F4 08 00 00     call        00403309
  00402A15: 89 45 C8           mov         dword ptr [ebp-38h],eax
  00402A18: FF 75 08           push        dword ptr [ebp+8]
  00402A1B: FF 15 24 81 40 00  call        dword ptr ds:[00408124h]
  00402A21: 39 5D C8           cmp         dword ptr [ebp-38h],ebx
  00402A24: 6A F3              push        0FFFFFFF3h
  00402A26: 5E                 pop         esi
  00402A27: 7D 13              jge         00402A3C
  00402A29: 6A EF              push        0FFFFFFEFh
  00402A2B: 5E                 pop         esi
  00402A2C: FF 75 C0           push        dword ptr [ebp-40h]
  00402A2F: FF 15 70 81 40 00  call        dword ptr ds:[00408170h]
  00402A35: C7 45 FC 01 00 00  mov         dword ptr [ebp-4],1
            00
  00402A3C: 56                 push        esi
  00402A3D: E9 A7 F8 FF FF     jmp         004022E9
  00402A42: 53                 push        ebx
  00402A43: E8 D4 02 00 00     call        00402D1C
  00402A48: 8B F8              mov         edi,eax
  00402A4A: 59                 pop         ecx
  00402A4B: 3B 3D AC A2 42 00  cmp         edi,dword ptr ds:[0042A2ACh]
  00402A51: 89 55 F0           mov         dword ptr [ebp-10h],edx
  00402A54: 0F 83 CB FE FF FF  jae         00402925
  00402A5A: 8B F7              mov         esi,edi
  00402A5C: 8B 45 D8           mov         eax,dword ptr [ebp-28h]
  00402A5F: 69 F6 18 08 00 00  imul        esi,esi,818h
  00402A65: 03 35 A8 A2 42 00  add         esi,dword ptr ds:[0042A2A8h]
  00402A6B: 3B C3              cmp         eax,ebx
  00402A6D: 7C 19              jl          00402A88
  00402A6F: 8B 0C 86           mov         ecx,dword ptr [esi+eax*4]
  00402A72: 75 11              jne         00402A85
  00402A74: 83 C6 18           add         esi,18h
  00402A77: 56                 push        esi
  00402A78: FF 75 F4           push        dword ptr [ebp-0Ch]
  00402A7B: E8 BC 3A 00 00     call        0040653C
  00402A80: E9 3D 01 00 00     jmp         00402BC2
  00402A85: 51                 push        ecx
  00402A86: EB 7D              jmp         00402B05
  00402A88: 83 C9 FF           or          ecx,0FFFFFFFFh
  00402A8B: 2B C8              sub         ecx,eax
  00402A8D: 89 4D D8           mov         dword ptr [ebp-28h],ecx
  00402A90: 74 10              je          00402AA2
  00402A92: 6A 01              push        1
  00402A94: E8 83 02 00 00     call        00402D1C
  00402A99: 59                 pop         ecx
  00402A9A: 89 55 F0           mov         dword ptr [ebp-10h],edx
  00402A9D: 89 45 D4           mov         dword ptr [ebp-2Ch],eax
  00402AA0: EB 10              jmp         00402AB2
  00402AA2: FF 75 E0           push        dword ptr [ebp-20h]
  00402AA5: 8D 46 18           lea         eax,[esi+18h]
  00402AA8: 50                 push        eax
  00402AA9: E8 CB 3A 00 00     call        00406579
  00402AAE: 80 4E 09 01        or          byte ptr [esi+9],1
  00402AB2: 8B 45 D8           mov         eax,dword ptr [ebp-28h]
  00402AB5: 8B 4D D4           mov         ecx,dword ptr [ebp-2Ch]
  00402AB8: 89 0C 86           mov         dword ptr [esi+eax*4],ecx
  00402ABB: 39 5D DC           cmp         dword ptr [ebp-24h],ebx
  00402ABE: 0F 84 FE 00 00 00  je          00402BC2
  00402AC4: 57                 push        edi
  00402AC5: E8 B3 E6 FF FF     call        0040117D
  00402ACA: E9 F3 00 00 00     jmp         00402BC2
  00402ACF: 53                 push        ebx
  00402AD0: E8 47 02 00 00     call        00402D1C
  00402AD5: 83 F8 20           cmp         eax,20h
  00402AD8: 59                 pop         ecx
  00402AD9: 89 55 F0           mov         dword ptr [ebp-10h],edx
  00402ADC: 0F 83 43 FE FF FF  jae         00402925
  00402AE2: 39 5D DC           cmp         dword ptr [ebp-24h],ebx
  00402AE5: 74 2B              je          00402B12
  00402AE7: 39 5D D8           cmp         dword ptr [ebp-28h],ebx
  00402AEA: 74 12              je          00402AFE
  00402AEC: 50                 push        eax
  00402AED: E8 A7 E7 FF FF     call        00401299
  00402AF2: 53                 push        ebx
  00402AF3: 53                 push        ebx
  00402AF4: E8 F6 E6 FF FF     call        004011EF
  00402AF9: E9 C4 00 00 00     jmp         00402BC2
  00402AFE: 53                 push        ebx
  00402AFF: E8 DE E7 FF FF     call        004012E2
  00402B04: 50                 push        eax
  00402B05: FF 75 F4           push        dword ptr [ebp-0Ch]
  00402B08: E8 76 39 00 00     call        00406483
  00402B0D: E9 B0 00 00 00     jmp         00402BC2
  00402B12: 39 5D D8           cmp         dword ptr [ebp-28h],ebx
  00402B15: 74 15              je          00402B2C
  00402B17: 8B 15 74 A2 42 00  mov         edx,dword ptr ds:[0042A274h]
  00402B1D: 8B 4D D4           mov         ecx,dword ptr [ebp-2Ch]
  00402B20: 89 8C 82 94 00 00  mov         dword ptr [edx+eax*4+00000094h],ecx
            00
  00402B27: E9 96 00 00 00     jmp         00402BC2
  00402B2C: 8B 0D 74 A2 42 00  mov         ecx,dword ptr ds:[0042A274h]
  00402B32: FF B4 81 94 00 00  push        dword ptr [ecx+eax*4+00000094h]
            00
  00402B39: FF 75 F4           push        dword ptr [ebp-0Ch]
  00402B3C: E8 38 3A 00 00     call        00406579
  00402B41: EB 7F              jmp         00402BC2
  00402B43: 6A 05              push        5
  00402B45: E8 E7 3D 00 00     call        00406931
  00402B4A: 6A 22              push        22h
  00402B4C: 8B F0              mov         esi,eax
  00402B4E: E8 EB 01 00 00     call        00402D3E
  00402B53: 3B F3              cmp         esi,ebx
  00402B55: 74 37              je          00402B8E
  00402B57: 8D 4D A0           lea         ecx,[ebp-60h]
  00402B5A: 51                 push        ecx
  00402B5B: 50                 push        eax
  00402B5C: FF 15 A4 82 40 00  call        dword ptr ds:[004082A4h]
  00402B62: 85 C0              test        eax,eax
  00402B64: 7C 28              jl          00402B8E
  00402B66: 8D 45 08           lea         eax,[ebp+8]
  00402B69: 50                 push        eax
  00402B6A: 53                 push        ebx
  00402B6B: FF 75 DC           push        dword ptr [ebp-24h]
  00402B6E: 8D 45 A0           lea         eax,[ebp-60h]
  00402B71: 50                 push        eax
  00402B72: FF D6              call        esi
  00402B74: 85 C0              test        eax,eax
  00402B76: 7C 16              jl          00402B8E
  00402B78: FF 75 08           push        dword ptr [ebp+8]
  00402B7B: FF 75 F4           push        dword ptr [ebp-0Ch]
  00402B7E: E8 B9 39 00 00     call        0040653C
  00402B83: FF 75 08           push        dword ptr [ebp+8]
  00402B86: FF 15 A8 82 40 00  call        dword ptr ds:[004082A8h]
  00402B8C: EB 34              jmp         00402BC2
  00402B8E: 8B 45 F4           mov         eax,dword ptr [ebp-0Ch]
  00402B91: C7 45 FC 01 00 00  mov         dword ptr [ebp-4],1
            00
  00402B98: 66 89 18           mov         word ptr [eax],bx
  00402B9B: EB 25              jmp         00402BC2
  00402B9D: 8B 0D 48 57 42 00  mov         ecx,dword ptr ds:[00425748h]
  00402BA3: 53                 push        ebx
  00402BA4: 23 C8              and         ecx,eax
  00402BA6: 51                 push        ecx
  00402BA7: 6A 0B              push        0Bh
  00402BA9: FF 75 F8           push        dword ptr [ebp-8]
  00402BAC: FF 15 80 82 40 00  call        dword ptr ds:[00408280h]
  00402BB2: 39 5D D0           cmp         dword ptr [ebp-30h],ebx
  00402BB5: 74 0B              je          00402BC2
  00402BB7: 53                 push        ebx
  00402BB8: 53                 push        ebx
  00402BB9: FF 75 F8           push        dword ptr [ebp-8]
  00402BBC: FF 15 7C 82 40 00  call        dword ptr ds:[0040827Ch]
  00402BC2: 8B 45 FC           mov         eax,dword ptr [ebp-4]
  00402BC5: 01 05 08 A3 42 00  add         dword ptr ds:[0042A308h],eax
  00402BCB: 33 C0              xor         eax,eax
  00402BCD: 5F                 pop         edi
  00402BCE: 5E                 pop         esi
  00402BCF: 5B                 pop         ebx
  00402BD0: C9                 leave
  00402BD1: C2 04 00           ret         4
  00402BD4: CD 2B              int         2Bh
  00402BD6: 40                 inc         eax
  00402BD7: 00 91 14 40 00 9D  add         byte ptr [ecx+9D004014h],dl
  00402BDD: 14 40              adc         al,40h
  00402BDF: 00 B8 14 40 00 CB  add         byte ptr [eax+CB004014h],bh
  00402BE5: 14 40              adc         al,40h
  00402BE7: 00 D7              add         bh,dl
  00402BE9: 14 40              adc         al,40h
  00402BEB: 00 F5              add         ch,dh
  00402BED: 14 40              adc         al,40h
  00402BEF: 00 73 15           add         byte ptr [ebx+15h],dh
  00402BF2: 40                 inc         eax
  00402BF3: 00 A3 15 40 00 C1  add         byte ptr [ebx+C1004015h],ah
  00402BF9: 15 40 00 6A 16     adc         eax,166A0040h
  00402BFE: 40                 inc         eax
  00402BFF: 00 03              add         byte ptr [ebx],al
  00402C01: 15 40 00 42 15     adc         eax,15420040h
  00402C06: 40                 inc         eax
  00402C07: 00 63 15           add         byte ptr [ebx+15h],ah
  00402C0A: 40                 inc         eax
  00402C0B: 00 7B 16           add         byte ptr [ebx+16h],bh
  00402C0E: 40                 inc         eax
  00402C0F: 00 CC              add         ah,cl
  00402C11: 16                 push        ss
  00402C12: 40                 inc         eax
  00402C13: 00 35 17 40 00 5C  add         byte ptr ds:[5C004017h],dh
  00402C19: 17                 pop         ss
  00402C1A: 40                 inc         eax
  00402C1B: 00 6F 17           add         byte ptr [edi+17h],ch
  00402C1E: 40                 inc         eax
  00402C1F: 00 0C 19           add         byte ptr [ecx+ebx],cl
  00402C22: 40                 inc         eax
  00402C23: 00 0F              add         byte ptr [edi],cl
  00402C25: 19 40 00           sbb         dword ptr [eax],eax
  00402C28: 41                 inc         ecx
  00402C29: 19 40 00           sbb         dword ptr [eax],eax
  00402C2C: 56                 push        esi
  00402C2D: 19 40 00           sbb         dword ptr [eax],eax
  00402C30: 68 19 40 00 FF     push        0FF004019h
  00402C35: 19 40 00           sbb         dword ptr [eax],eax
  00402C38: 30 1A              xor         byte ptr [edx],bl
  00402C3A: 40                 inc         eax
  00402C3B: 00 72 1A           add         byte ptr [edx+1Ah],dh
  00402C3E: 40                 inc         eax
  00402C3F: 00 B2 1A 40 00 77  add         byte ptr [edx+7700401Ah],dh
  00402C45: 1B 40 00           sbb         eax,dword ptr [eax]
  00402C48: 9B                 wait
  00402C49: 1B 40 00           sbb         eax,dword ptr [eax]
  00402C4C: 43                 inc         ebx
  00402C4D: 1C 40              sbb         al,40h
  00402C4F: 00 43 1C           add         byte ptr [ebx+1Ch],al
  00402C52: 40                 inc         eax
  00402C53: 00 17              add         byte ptr [edi],dl
  00402C55: 1D 40 00 38 1D     sbb         eax,1D380040h
  00402C5A: 40                 inc         eax
  00402C5B: 00 5D 1D           add         byte ptr [ebp+1Dh],bl
  00402C5E: 40                 inc         eax
  00402C5F: 00 81 1D 40 00 4E  add         byte ptr [ecx+4E00401Dh],al
  00402C65: 1E                 push        ds
  00402C66: 40                 inc         eax
  00402C67: 00 DE              add         dh,bl
  00402C69: 1E                 push        ds
  00402C6A: 40                 inc         eax
  00402C6B: 00 12              add         byte ptr [edx],dl
  00402C6D: 1F                 pop         ds
  00402C6E: 40                 inc         eax
  00402C6F: 00 A4 1F 40 00 F6  add         byte ptr [edi+ebx+1FF60040h],ah
            1F
  00402C76: 40                 inc         eax
  00402C77: 00 2A              add         byte ptr [edx],ch
  00402C79: 20 40 00           and         byte ptr [eax],al
  00402C7C: CF                 iretd
  00402C7D: 20 40 00           and         byte ptr [eax],al
  00402C80: A2 21 40 00 F7     mov         byte ptr ds:[F7004021h],al
  00402C85: 22 40 00           and         al,byte ptr [eax]
  00402C88: 7B 23              jnp         00402CAD
  00402C8A: 40                 inc         eax
  00402C8B: 00 AA 23 40 00 EC  add         byte ptr [edx+EC004023h],ch
  00402C91: 23 40 00           and         eax,dword ptr [eax]
  00402C94: 2C 24              sub         al,24h
  00402C96: 40                 inc         eax
  00402C97: 00 82 24 40 00 22  add         byte ptr [edx+22004024h],al
  00402C9D: 25 40 00 96 25     and         eax,25960040h
  00402CA2: 40                 inc         eax
  00402CA3: 00 00              add         byte ptr [eax],al
  00402CA5: 26 40              inc         eax
  00402CA7: 00 14 26           add         byte ptr [esi],dl
  00402CAA: 40                 inc         eax
  00402CAB: 00 36              add         byte ptr [esi],dh
  00402CAD: 26 40              inc         eax
  00402CAF: 00 E4              add         ah,ah
  00402CB1: 26 40              inc         eax
  00402CB3: 00 87 28 40 00 BB  add         byte ptr [edi+BB004028h],al
  00402CB9: 28 40 00           sub         byte ptr [eax],al
  00402CBC: D5 28              aadb        28h
  00402CBE: 40                 inc         eax
  00402CBF: 00 02              add         byte ptr [edx],al
  00402CC1: 29 40 00           sub         dword ptr [eax],eax
  00402CC4: 47                 inc         edi
  00402CC5: 29 40 00           sub         dword ptr [eax],eax
  00402CC8: 42                 inc         edx
  00402CC9: 2A 40 00           sub         al,byte ptr [eax]
  00402CCC: CF                 iretd
  00402CCD: 2A 40 00           sub         al,byte ptr [eax]
  00402CD0: 43                 inc         ebx
  00402CD1: 2B 40 00           sub         eax,dword ptr [eax]
  00402CD4: C2 2B 40           ret         402Bh
  00402CD7: 00 9D 2B 40 00 36  add         byte ptr [ebp+3600402Bh],bl
  00402CDD: 26 40              inc         eax
  00402CDF: 00 E4              add         ah,ah
  00402CE1: 26 40              inc         eax
  00402CE3: 00 E2              add         dl,ah
  00402CE5: 1A 40 00           sbb         al,byte ptr [eax]
  00402CE8: E9 1A 40 00 F0     jmp         F0406D07
  00402CED: 1A 40 00           sbb         al,byte ptr [eax]
  00402CF0: F5                 cmc
  00402CF1: 1A 40 00           sbb         al,byte ptr [eax]
  00402CF4: 05 1B 40 00 09     add         eax,900401Bh
  00402CF9: 1B 40 00           sbb         eax,dword ptr [eax]
  00402CFC: 0D 1B 40 00 16     or          eax,1600401Bh
  00402D01: 1B 40 00           sbb         eax,dword ptr [eax]
  00402D04: 1F                 pop         ds
  00402D05: 1B 40 00           sbb         eax,dword ptr [eax]
  00402D08: 2C 1B              sub         al,1Bh
  00402D0A: 40                 inc         eax
  00402D0B: 00 3C 1B           add         byte ptr [ebx+ebx],bh
  00402D0E: 40                 inc         eax
  00402D0F: 00 5A 1B           add         byte ptr [edx+1Bh],bl
  00402D12: 40                 inc         eax
  00402D13: 00 61 1B           add         byte ptr [ecx+1Bh],ah
  00402D16: 40                 inc         eax
  00402D17: 00 68 1B           add         byte ptr [eax+1Bh],ch
  00402D1A: 40                 inc         eax
  00402D1B: 00 8B 44 24 04 8B  add         byte ptr [ebx+8B042444h],cl
  00402D21: 0D 54 CE 40 00     or          eax,40CE54h
  00402D26: 56                 push        esi
  00402D27: FF 34 81           push        dword ptr [ecx+eax*4]
  00402D2A: 6A 00              push        0
  00402D2C: E8 48 38 00 00     call        00406579
  00402D31: 8B F0              mov         esi,eax
  00402D33: 56                 push        esi
  00402D34: E8 63 37 00 00     call        0040649C
  00402D39: 0F B7 16           movzx       edx,word ptr [esi]
  00402D3C: 5E                 pop         esi
  00402D3D: C3                 ret
  00402D3E: 56                 push        esi
  00402D3F: 8B 74 24 08        mov         esi,dword ptr [esp+8]
  00402D43: 85 F6              test        esi,esi
  00402D45: 57                 push        edi
  00402D46: 8B C6              mov         eax,esi
  00402D48: 7D 02              jge         00402D4C
  00402D4A: F7 D8              neg         eax
  00402D4C: 8B 15 54 CE 40 00  mov         edx,dword ptr ds:[0040CE54h]
  00402D52: 8B C8              mov         ecx,eax
  00402D54: 83 E1 0F           and         ecx,0Fh
  00402D57: C1 F8 04           sar         eax,4
  00402D5A: FF 34 8A           push        dword ptr [edx+ecx*4]
  00402D5D: C1 E0 0B           shl         eax,0Bh
  00402D60: 05 F8 A5 40 00     add         eax,40A5F8h
  00402D65: 50                 push        eax
  00402D66: E8 0E 38 00 00     call        00406579
  00402D6B: 85 F6              test        esi,esi
  00402D6D: 8B F8              mov         edi,eax
  00402D6F: 7D 06              jge         00402D77
  00402D71: 57                 push        edi
  00402D72: E8 74 3A 00 00     call        004067EB
  00402D77: 8B C7              mov         eax,edi
  00402D79: 5F                 pop         edi
  00402D7A: 5E                 pop         esi
  00402D7B: C2 04 00           ret         4
  00402D7E: 55                 push        ebp
  00402D7F: 8B EC              mov         ebp,esp
  00402D81: 8D 45 08           lea         eax,[ebp+8]
  00402D84: 50                 push        eax
  00402D85: 8B 45 08           mov         eax,dword ptr [ebp+8]
  00402D88: 0D 20 00 10 00     or          eax,100020h
  00402D8D: 50                 push        eax
  00402D8E: 6A 22              push        22h
  00402D90: E8 A9 FF FF FF     call        00402D3E
  00402D95: 50                 push        eax
  00402D96: A1 54 CE 40 00     mov         eax,dword ptr ds:[0040CE54h]
  00402D9B: FF 70 04           push        dword ptr [eax+4]
  00402D9E: E8 13 00 00 00     call        00402DB6
  00402DA3: 50                 push        eax
  00402DA4: E8 00 36 00 00     call        004063A9
  00402DA9: F7 D8              neg         eax
  00402DAB: 1B C0              sbb         eax,eax
  00402DAD: F7 D0              not         eax
  00402DAF: 23 45 08           and         eax,dword ptr [ebp+8]
  00402DB2: 5D                 pop         ebp
  00402DB3: C2 04 00           ret         4
  00402DB6: 8B 44 24 04        mov         eax,dword ptr [esp+4]
  00402DBA: 85 C0              test        eax,eax
  00402DBC: 7C 0D              jl          00402DCB
  00402DBE: 8B 0D 04 A3 42 00  mov         ecx,dword ptr ds:[0042A304h]
  00402DC4: 8D 84 01 01 00 00  lea         eax,[ecx+eax+80000001h]
            80
  00402DCB: C2 04 00           ret         4
  00402DCE: 55                 push        ebp
  00402DCF: 8B EC              mov         ebp,esp
  00402DD1: 8D 45 10           lea         eax,[ebp+10h]
  00402DD4: 50                 push        eax
  00402DD5: 8B 45 10           mov         eax,dword ptr [ebp+10h]
  00402DD8: 0D 20 00 10 00     or          eax,100020h
  00402DDD: 50                 push        eax
  00402DDE: FF 75 0C           push        dword ptr [ebp+0Ch]
  00402DE1: FF 75 08           push        dword ptr [ebp+8]
  00402DE4: E8 CD FF FF FF     call        00402DB6
  00402DE9: 50                 push        eax
  00402DEA: E8 E8 35 00 00     call        004063D7
  00402DEF: F7 D8              neg         eax
  00402DF1: 1B C0              sbb         eax,eax
  00402DF3: F7 D0              not         eax
  00402DF5: 23 45 10           and         eax,dword ptr [ebp+10h]
  00402DF8: 5D                 pop         ebp
  00402DF9: C2 0C 00           ret         0Ch
  00402DFC: 55                 push        ebp
  00402DFD: 8B EC              mov         ebp,esp
  00402DFF: 56                 push        esi
  00402E00: 8B 75 0C           mov         esi,dword ptr [ebp+0Ch]
  00402E03: 66 83 3E 00        cmp         word ptr [esi],0
  00402E07: 75 07              jne         00402E10
  00402E09: B8 EB 03 00 00     mov         eax,3EBh
  00402E0E: EB 2C              jmp         00402E3C
  00402E10: 81 4D 10 20 00 10  or          dword ptr [ebp+10h],100020h
            00
  00402E17: 8D 45 10           lea         eax,[ebp+10h]
  00402E1A: 50                 push        eax
  00402E1B: FF 75 08           push        dword ptr [ebp+8]
  00402E1E: E8 93 FF FF FF     call        00402DB6
  00402E23: 50                 push        eax
  00402E24: E8 05 35 00 00     call        0040632E
  00402E29: 85 C0              test        eax,eax
  00402E2B: 74 0C              je          00402E39
  00402E2D: FF 75 10           push        dword ptr [ebp+10h]
  00402E30: 56                 push        esi
  00402E31: 50                 push        eax
  00402E32: E8 0A 00 00 00     call        00402E41
  00402E37: EB 03              jmp         00402E3C
  00402E39: 6A 06              push        6
  00402E3B: 58                 pop         eax
  00402E3C: 5E                 pop         esi
  00402E3D: 5D                 pop         ebp
  00402E3E: C2 0C 00           ret         0Ch
  00402E41: 55                 push        ebp
  00402E42: 8B EC              mov         ebp,esp
  00402E44: 81 EC 14 02 00 00  sub         esp,214h
  00402E4A: 53                 push        ebx
  00402E4B: 56                 push        esi
  00402E4C: 8B 75 10           mov         esi,dword ptr [ebp+10h]
  00402E4F: 57                 push        edi
  00402E50: 8B FE              mov         edi,esi
  00402E52: 8D 45 FC           lea         eax,[ebp-4]
  00402E55: 81 E6 00 03 00 00  and         esi,300h
  00402E5B: 50                 push        eax
  00402E5C: 8B C6              mov         eax,esi
  00402E5E: 83 E7 01           and         edi,1
  00402E61: 0C 09              or          al,9
  00402E63: 50                 push        eax
  00402E64: FF 75 0C           push        dword ptr [ebp+0Ch]
  00402E67: FF 75 08           push        dword ptr [ebp+8]
  00402E6A: E8 3A 35 00 00     call        004063A9
  00402E6F: 33 DB              xor         ebx,ebx
  00402E71: 3B C3              cmp         eax,ebx
  00402E73: 0F 85 AB 00 00 00  jne         00402F24
  00402E79: F6 45 10 02        test        byte ptr [ebp+10h],2
  00402E7D: 74 23              je          00402EA2
  00402E7F: 53                 push        ebx
  00402E80: 53                 push        ebx
  00402E81: 53                 push        ebx
  00402E82: 8D 45 F8           lea         eax,[ebp-8]
  00402E85: 53                 push        ebx
  00402E86: 50                 push        eax
  00402E87: 8D 85 EC FD FF FF  lea         eax,[ebp+FFFFFDECh]
  00402E8D: 89 5D F8           mov         dword ptr [ebp-8],ebx
  00402E90: 50                 push        eax
  00402E91: 53                 push        ebx
  00402E92: FF 75 FC           push        dword ptr [ebp-4]
  00402E95: FF 15 30 80 40 00  call        dword ptr ds:[00408030h]
  00402E9B: 3D 03 01 00 00     cmp         eax,103h
  00402EA0: 75 67              jne         00402F09
  00402EA2: 8D 85 EC FD FF FF  lea         eax,[ebp+FFFFFDECh]
  00402EA8: 68 05 01 00 00     push        105h
  00402EAD: 50                 push        eax
  00402EAE: 53                 push        ebx
  00402EAF: 8B 1D 04 80 40 00  mov         ebx,dword ptr ds:[00408004h]
  00402EB5: EB 27              jmp         00402EDE
  00402EB7: 85 FF              test        edi,edi
  00402EB9: 75 4E              jne         00402F09
  00402EBB: FF 75 10           push        dword ptr [ebp+10h]
  00402EBE: 8D 85 EC FD FF FF  lea         eax,[ebp+FFFFFDECh]
  00402EC4: 50                 push        eax
  00402EC5: FF 75 FC           push        dword ptr [ebp-4]
  00402EC8: E8 74 FF FF FF     call        00402E41
  00402ECD: 85 C0              test        eax,eax
  00402ECF: 75 16              jne         00402EE7
  00402ED1: 8D 85 EC FD FF FF  lea         eax,[ebp+FFFFFDECh]
  00402ED7: 68 05 01 00 00     push        105h
  00402EDC: 50                 push        eax
  00402EDD: 57                 push        edi
  00402EDE: FF 75 FC           push        dword ptr [ebp-4]
  00402EE1: FF D3              call        ebx
  00402EE3: 85 C0              test        eax,eax
  00402EE5: 74 D0              je          00402EB7
  00402EE7: FF 75 FC           push        dword ptr [ebp-4]
  00402EEA: FF 15 10 80 40 00  call        dword ptr ds:[00408010h]
  00402EF0: 6A 03              push        3
  00402EF2: E8 3A 3A 00 00     call        00406931
  00402EF7: 85 C0              test        eax,eax
  00402EF9: 75 1E              jne         00402F19
  00402EFB: FF 75 0C           push        dword ptr [ebp+0Ch]
  00402EFE: FF 75 08           push        dword ptr [ebp+8]
  00402F01: FF 15 18 80 40 00  call        dword ptr ds:[00408018h]
  00402F07: EB 1B              jmp         00402F24
  00402F09: FF 75 FC           push        dword ptr [ebp-4]
  00402F0C: FF 15 10 80 40 00  call        dword ptr ds:[00408010h]
  00402F12: B8 EB 03 00 00     mov         eax,3EBh
  00402F17: EB 0B              jmp         00402F24
  00402F19: 6A 00              push        0
  00402F1B: 56                 push        esi
  00402F1C: FF 75 0C           push        dword ptr [ebp+0Ch]
  00402F1F: FF 75 08           push        dword ptr [ebp+8]
  00402F22: FF D0              call        eax
  00402F24: 5F                 pop         edi
  00402F25: 5E                 pop         esi
  00402F26: 5B                 pop         ebx
  00402F27: C9                 leave
  00402F28: C2 0C 00           ret         0Ch
  00402F2B: 55                 push        ebp
  00402F2C: 8B EC              mov         ebp,esp
  00402F2E: 81 EC 80 00 00 00  sub         esp,80h
  00402F34: 81 7D 0C 10 01 00  cmp         dword ptr [ebp+0Ch],110h
            00
  00402F3B: 75 19              jne         00402F56
  00402F3D: 6A 00              push        0
  00402F3F: 68 FA 00 00 00     push        0FAh
  00402F44: 6A 01              push        1
  00402F46: FF 75 08           push        dword ptr [ebp+8]
  00402F49: FF 15 40 82 40 00  call        dword ptr ds:[00408240h]
  00402F4F: C7 45 0C 13 01 00  mov         dword ptr [ebp+0Ch],113h
            00
  00402F56: 81 7D 0C 13 01 00  cmp         dword ptr [ebp+0Ch],113h
            00
  00402F5D: 75 45              jne         00402FA4
  00402F5F: E8 46 00 00 00     call        00402FAA
  00402F64: 83 3D 74 A2 42 00  cmp         dword ptr ds:[0042A274h],0
            00
  00402F6B: B9 54 A0 40 00     mov         ecx,40A054h
  00402F70: 75 05              jne         00402F77
  00402F72: B9 20 A0 40 00     mov         ecx,40A020h
  00402F77: 50                 push        eax
  00402F78: 8D 45 80           lea         eax,[ebp-80h]
  00402F7B: 51                 push        ecx
  00402F7C: 50                 push        eax
  00402F7D: FF 15 54 82 40 00  call        dword ptr ds:[00408254h]
  00402F83: 83 C4 0C           add         esp,0Ch
  00402F86: 8D 45 80           lea         eax,[ebp-80h]
  00402F89: 50                 push        eax
  00402F8A: FF 75 08           push        dword ptr [ebp+8]
  00402F8D: FF 15 44 82 40 00  call        dword ptr ds:[00408244h]
  00402F93: 8D 45 80           lea         eax,[ebp-80h]
  00402F96: 50                 push        eax
  00402F97: 68 06 04 00 00     push        406h
  00402F9C: FF 75 08           push        dword ptr [ebp+8]
  00402F9F: E8 DC 2B 00 00     call        00405B80
  00402FA4: 33 C0              xor         eax,eax
  00402FA6: C9                 leave
  00402FA7: C2 10 00           ret         10h
  00402FAA: 8B 0D F0 0E 42 00  mov         ecx,dword ptr ds:[00420EF0h]
  00402FB0: A1 00 0F 42 00     mov         eax,dword ptr ds:[00420F00h]
  00402FB5: 3B C8              cmp         ecx,eax
  00402FB7: 72 02              jb          00402FBB
  00402FB9: 8B C8              mov         ecx,eax
  00402FBB: 50                 push        eax
  00402FBC: 6A 64              push        64h
  00402FBE: 51                 push        ecx
  00402FBF: FF 15 FC 80 40 00  call        dword ptr ds:[004080FCh]
  00402FC5: C3                 ret
  00402FC6: 55                 push        ebp
  00402FC7: 8B EC              mov         ebp,esp
  00402FC9: 81 EC 80 00 00 00  sub         esp,80h
  00402FCF: 56                 push        esi
  00402FD0: 33 F6              xor         esi,esi
  00402FD2: 39 75 08           cmp         dword ptr [ebp+8],esi
  00402FD5: 74 18              je          00402FEF
  00402FD7: A1 FC 0E 42 00     mov         eax,dword ptr ds:[00420EFCh]
  00402FDC: 3B C6              cmp         eax,esi
  00402FDE: 74 07              je          00402FE7
  00402FE0: 50                 push        eax
  00402FE1: FF 15 38 82 40 00  call        dword ptr ds:[00408238h]
  00402FE7: 89 35 FC 0E 42 00  mov         dword ptr ds:[00420EFCh],esi
  00402FED: EB 76              jmp         00403065
  00402FEF: 39 35 FC 0E 42 00  cmp         dword ptr ds:[00420EFCh],esi
  00402FF5: 74 08              je          00402FFF
  00402FF7: 56                 push        esi
  00402FF8: E8 70 39 00 00     call        0040696D
  00402FFD: EB 66              jmp         00403065
  00402FFF: FF 15 F8 80 40 00  call        dword ptr ds:[004080F8h]
  00403005: 3B 05 70 A2 42 00  cmp         eax,dword ptr ds:[0042A270h]
  0040300B: 76 58              jbe         00403065
  0040300D: 39 35 68 A2 42 00  cmp         dword ptr ds:[0042A268h],esi
  00403013: 74 2D              je          00403042
  00403015: F6 05 34 A3 42 00  test        byte ptr ds:[0042A334h],1
            01
  0040301C: 74 47              je          00403065
  0040301E: E8 87 FF FF FF     call        00402FAA
  00403023: 50                 push        eax
  00403024: 8D 45 80           lea         eax,[ebp-80h]
  00403027: 68 80 A0 40 00     push        40A080h
  0040302C: 50                 push        eax
  0040302D: FF 15 54 82 40 00  call        dword ptr ds:[00408254h]
  00403033: 83 C4 0C           add         esp,0Ch
  00403036: 8D 45 80           lea         eax,[ebp-80h]
  00403039: 50                 push        eax
  0040303A: 56                 push        esi
  0040303B: E8 64 25 00 00     call        004055A4
  00403040: EB 23              jmp         00403065
  00403042: 56                 push        esi
  00403043: 68 2B 2F 40 00     push        402F2Bh
  00403048: 56                 push        esi
  00403049: 6A 6F              push        6Fh
  0040304B: FF 35 60 A2 42 00  push        dword ptr ds:[0042A260h]
  00403051: FF 15 3C 82 40 00  call        dword ptr ds:[0040823Ch]
  00403057: 6A 05              push        5
  00403059: 50                 push        eax
  0040305A: A3 FC 0E 42 00     mov         dword ptr ds:[00420EFCh],eax
  0040305F: FF 15 50 82 40 00  call        dword ptr ds:[00408250h]
  00403065: 5E                 pop         esi
  00403066: C9                 leave
  00403067: C3                 ret
  00403068: 55                 push        ebp
  00403069: 8B EC              mov         ebp,esp
  0040306B: 81 EC 2C 02 00 00  sub         esp,22Ch
  00403071: 53                 push        ebx
  00403072: 56                 push        esi
  00403073: 33 DB              xor         ebx,ebx
  00403075: 57                 push        edi
  00403076: 89 5D FC           mov         dword ptr [ebp-4],ebx
  00403079: 89 5D F8           mov         dword ptr [ebp-8],ebx
  0040307C: FF 15 F8 80 40 00  call        dword ptr ds:[004080F8h]
  00403082: BE 00 88 43 00     mov         esi,438800h
  00403087: 68 00 04 00 00     push        400h
  0040308C: 05 E8 03 00 00     add         eax,3E8h
  00403091: 56                 push        esi
  00403092: 53                 push        ebx
  00403093: A3 70 A2 42 00     mov         dword ptr ds:[0042A270h],eax
  00403098: FF 15 EC 80 40 00  call        dword ptr ds:[004080ECh]
  0040309E: 6A 03              push        3
  004030A0: 68 00 00 00 80     push        80000000h
  004030A5: 56                 push        esi
  004030A6: E8 87 2F 00 00     call        00406032
  004030AB: 8B F8              mov         edi,eax
  004030AD: 83 FF FF           cmp         edi,0FFFFFFFFh
  004030B0: 89 3D 18 A0 40 00  mov         dword ptr ds:[0040A018h],edi
  004030B6: 75 0A              jne         004030C2
  004030B8: B8 B8 A2 40 00     mov         eax,40A2B8h
  004030BD: E9 40 02 00 00     jmp         00403302
  004030C2: 56                 push        esi
  004030C3: BE 00 68 43 00     mov         esi,436800h
  004030C8: 56                 push        esi
  004030C9: E8 6E 34 00 00     call        0040653C
  004030CE: 56                 push        esi
  004030CF: E8 89 2D 00 00     call        00405E5D
  004030D4: 50                 push        eax
  004030D5: 68 00 90 43 00     push        439000h
  004030DA: E8 5D 34 00 00     call        0040653C
  004030DF: 53                 push        ebx
  004030E0: 57                 push        edi
  004030E1: FF 15 F0 80 40 00  call        dword ptr ds:[004080F0h]
  004030E7: 3B C3              cmp         eax,ebx
  004030E9: A3 00 0F 42 00     mov         dword ptr ds:[00420F00h],eax
  004030EE: 8B F0              mov         esi,eax
  004030F0: 0F 86 E5 00 00 00  jbe         004031DB
  004030F6: BB F0 8E 41 00     mov         ebx,418EF0h
  004030FB: A1 78 A2 42 00     mov         eax,dword ptr ds:[0042A278h]
  00403100: 8B FE              mov         edi,esi
  00403102: F7 D8              neg         eax
  00403104: 1B C0              sbb         eax,eax
  00403106: 25 00 7E 00 00     and         eax,7E00h
  0040310B: 05 00 02 00 00     add         eax,200h
  00403110: 3B F0              cmp         esi,eax
  00403112: 72 02              jb          00403116
  00403114: 8B F8              mov         edi,eax
  00403116: 57                 push        edi
  00403117: 53                 push        ebx
  00403118: E8 5D 04 00 00     call        0040357A
  0040311D: 85 C0              test        eax,eax
  0040311F: 0F 84 51 01 00 00  je          00403276
  00403125: 83 3D 78 A2 42 00  cmp         dword ptr ds:[0042A278h],0
            00
  0040312C: 75 7A              jne         004031A8
  0040312E: 6A 1C              push        1Ch
  00403130: 8D 45 DC           lea         eax,[ebp-24h]
  00403133: 53                 push        ebx
  00403134: 50                 push        eax
  00403135: E8 B3 2E 00 00     call        00405FED
  0040313A: 8B 45 DC           mov         eax,dword ptr [ebp-24h]
  0040313D: A9 F0 FF FF FF     test        eax,0FFFFFFF0h
  00403142: 75 72              jne         004031B6
  00403144: 81 7D E0 EF BE AD  cmp         dword ptr [ebp-20h],0DEADBEEFh
            DE
  0040314B: 75 69              jne         004031B6
  0040314D: 81 7D EC 49 6E 73  cmp         dword ptr [ebp-14h],74736E49h
            74
  00403154: 75 60              jne         004031B6
  00403156: 81 7D E8 73 6F 66  cmp         dword ptr [ebp-18h],74666F73h
            74
  0040315D: 75 57              jne         004031B6
  0040315F: 81 7D E4 4E 75 6C  cmp         dword ptr [ebp-1Ch],6C6C754Eh
            6C
  00403166: 75 4E              jne         004031B6
  00403168: 09 45 08           or          dword ptr [ebp+8],eax
  0040316B: 8B 45 08           mov         eax,dword ptr [ebp+8]
  0040316E: 8B 0D F0 0E 42 00  mov         ecx,dword ptr ds:[00420EF0h]
  00403174: 83 E0 02           and         eax,2
  00403177: 09 05 20 A3 42 00  or          dword ptr ds:[0042A320h],eax
  0040317D: 8B 45 F4           mov         eax,dword ptr [ebp-0Ch]
  00403180: 3B C6              cmp         eax,esi
  00403182: 89 0D 78 A2 42 00  mov         dword ptr ds:[0042A278h],ecx
  00403188: 0F 87 2C 01 00 00  ja          004032BA
  0040318E: F6 45 08 08        test        byte ptr [ebp+8],8
  00403192: 75 06              jne         0040319A
  00403194: F6 45 08 04        test        byte ptr [ebp+8],4
  00403198: 75 3F              jne         004031D9
  0040319A: FF 45 F8           inc         dword ptr [ebp-8]
  0040319D: 8D 70 FC           lea         esi,[eax-4]
  004031A0: 3B FE              cmp         edi,esi
  004031A2: 76 12              jbe         004031B6
  004031A4: 8B FE              mov         edi,esi
  004031A6: EB 0E              jmp         004031B6
  004031A8: F6 45 08 02        test        byte ptr [ebp+8],2
  004031AC: 75 08              jne         004031B6
  004031AE: 6A 00              push        0
  004031B0: E8 11 FE FF FF     call        00402FC6
  004031B5: 59                 pop         ecx
  004031B6: 3B 35 00 0F 42 00  cmp         esi,dword ptr ds:[00420F00h]
  004031BC: 73 0D              jae         004031CB
  004031BE: 57                 push        edi
  004031BF: 53                 push        ebx
  004031C0: FF 75 FC           push        dword ptr [ebp-4]
  004031C3: E8 56 38 00 00     call        00406A1E
  004031C8: 89 45 FC           mov         dword ptr [ebp-4],eax
  004031CB: 01 3D F0 0E 42 00  add         dword ptr ds:[00420EF0h],edi
  004031D1: 2B F7              sub         esi,edi
  004031D3: 0F 85 22 FF FF FF  jne         004030FB
  004031D9: 33 DB              xor         ebx,ebx
  004031DB: 6A 01              push        1
  004031DD: E8 E4 FD FF FF     call        00402FC6
  004031E2: 39 1D 78 A2 42 00  cmp         dword ptr ds:[0042A278h],ebx
  004031E8: 59                 pop         ecx
  004031E9: 0F 84 CB 00 00 00  je          004032BA
  004031EF: 39 5D F8           cmp         dword ptr [ebp-8],ebx
  004031F2: 74 2A              je          0040321E
  004031F4: FF 35 F0 0E 42 00  push        dword ptr ds:[00420EF0h]
  004031FA: E8 91 03 00 00     call        00403590
  004031FF: 8D 45 08           lea         eax,[ebp+8]
  00403202: 6A 04              push        4
  00403204: 50                 push        eax
  00403205: E8 70 03 00 00     call        0040357A
  0040320A: 85 C0              test        eax,eax
  0040320C: 0F 84 A8 00 00 00  je          004032BA
  00403212: 8B 45 FC           mov         eax,dword ptr [ebp-4]
  00403215: 3B 45 08           cmp         eax,dword ptr [ebp+8]
  00403218: 0F 85 9C 00 00 00  jne         004032BA
  0040321E: FF 75 F0           push        dword ptr [ebp-10h]
  00403221: 6A 40              push        40h
  00403223: FF 15 38 81 40 00  call        dword ptr ds:[00408138h]
  00403229: B9 68 CE 40 00     mov         ecx,40CE68h
  0040322E: 8B F0              mov         esi,eax
  00403230: E8 57 38 00 00     call        00406A8C
  00403235: 8D 85 D4 FD FF FF  lea         eax,[ebp+FFFFFDD4h]
  0040323B: 68 00 78 43 00     push        437800h
  00403240: 50                 push        eax
  00403241: E8 1B 2E 00 00     call        00406061
  00403246: 53                 push        ebx
  00403247: 68 00 01 00 04     push        4000100h
  0040324C: 6A 02              push        2
  0040324E: 53                 push        ebx
  0040324F: 53                 push        ebx
  00403250: 8D 85 D4 FD FF FF  lea         eax,[ebp+FFFFFDD4h]
  00403256: 68 00 00 00 C0     push        0C0000000h
  0040325B: 50                 push        eax
  0040325C: FF 15 F4 80 40 00  call        dword ptr ds:[004080F4h]
  00403262: 83 F8 FF           cmp         eax,0FFFFFFFFh
  00403265: A3 1C A0 40 00     mov         dword ptr ds:[0040A01Ch],eax
  0040326A: 75 14              jne         00403280
  0040326C: B8 30 A2 40 00     mov         eax,40A230h
  00403271: E9 8C 00 00 00     jmp         00403302
  00403276: 6A 01              push        1
  00403278: E8 49 FD FF FF     call        00402FC6
  0040327D: 59                 pop         ecx
  0040327E: EB 3A              jmp         004032BA
  00403280: A1 78 A2 42 00     mov         eax,dword ptr ds:[0042A278h]
  00403285: 83 C0 1C           add         eax,1Ch
  00403288: 50                 push        eax
  00403289: E8 02 03 00 00     call        00403590
  0040328E: 8B 4D DC           mov         ecx,dword ptr [ebp-24h]
  00403291: FF 75 F0           push        dword ptr [ebp-10h]
  00403294: F7 D1              not         ecx
  00403296: 83 E1 04           and         ecx,4
  00403299: A3 04 0F 42 00     mov         dword ptr ds:[00420F04h],eax
  0040329E: 2B C1              sub         eax,ecx
  004032A0: 8B 4D F4           mov         ecx,dword ptr [ebp-0Ch]
  004032A3: 56                 push        esi
  004032A4: 53                 push        ebx
  004032A5: 8D 44 08 E4        lea         eax,[eax+ecx-1Ch]
  004032A9: 6A FF              push        0FFFFFFFFh
  004032AB: A3 F8 0E 42 00     mov         dword ptr ds:[00420EF8h],eax
  004032B0: E8 54 00 00 00     call        00403309
  004032B5: 3B 45 F0           cmp         eax,dword ptr [ebp-10h]
  004032B8: 74 07              je          004032C1
  004032BA: B8 98 A0 40 00     mov         eax,40A098h
  004032BF: EB 41              jmp         00403302
  004032C1: F6 45 DC 01        test        byte ptr [ebp-24h],1
  004032C5: 89 35 74 A2 42 00  mov         dword ptr ds:[0042A274h],esi
  004032CB: 8B 06              mov         eax,dword ptr [esi]
  004032CD: A3 7C A2 42 00     mov         dword ptr ds:[0042A27Ch],eax
  004032D2: 74 06              je          004032DA
  004032D4: FF 05 80 A2 42 00  inc         dword ptr ds:[0042A280h]
  004032DA: 6A 08              push        8
  004032DC: 8D 46 44           lea         eax,[esi+44h]
  004032DF: 59                 pop         ecx
  004032E0: 83 E8 08           sub         eax,8
  004032E3: 01 30              add         dword ptr [eax],esi
  004032E5: 49                 dec         ecx
  004032E6: 75 F8              jne         004032E0
  004032E8: A1 F4 0E 42 00     mov         eax,dword ptr ds:[00420EF4h]
  004032ED: 6A 40              push        40h
  004032EF: 89 46 3C           mov         dword ptr [esi+3Ch],eax
  004032F2: 83 C6 04           add         esi,4
  004032F5: 56                 push        esi
  004032F6: 68 A0 A2 42 00     push        42A2A0h
  004032FB: E8 ED 2C 00 00     call        00405FED
  00403300: 33 C0              xor         eax,eax
  00403302: 5F                 pop         edi
  00403303: 5E                 pop         esi
  00403304: 5B                 pop         ebx
  00403305: C9                 leave
  00403306: C2 04 00           ret         4
  00403309: 55                 push        ebp
  0040330A: 8B EC              mov         ebp,esp
  0040330C: 51                 push        ecx
  0040330D: 8B 45 08           mov         eax,dword ptr [ebp+8]
  00403310: 53                 push        ebx
  00403311: 56                 push        esi
  00403312: 33 F6              xor         esi,esi
  00403314: 3B C6              cmp         eax,esi
  00403316: 7C 1C              jl          00403334
  00403318: 8B 0D D8 A2 42 00  mov         ecx,dword ptr ds:[0042A2D8h]
  0040331E: 56                 push        esi
  0040331F: 03 C1              add         eax,ecx
  00403321: 56                 push        esi
  00403322: 50                 push        eax
  00403323: A3 F4 0E 42 00     mov         dword ptr ds:[00420EF4h],eax
  00403328: FF 35 1C A0 40 00  push        dword ptr ds:[0040A01Ch]
  0040332E: FF 15 60 81 40 00  call        dword ptr ds:[00408160h]
  00403334: 6A 04              push        4
  00403336: E8 D6 00 00 00     call        00403411
  0040333B: 3B C6              cmp         eax,esi
  0040333D: 0F 8C C8 00 00 00  jl          0040340B
  00403343: 8D 45 08           lea         eax,[ebp+8]
  00403346: 6A 04              push        4
  00403348: 50                 push        eax
  00403349: FF 35 1C A0 40 00  push        dword ptr ds:[0040A01Ch]
  0040334F: E8 61 2D 00 00     call        004060B5
  00403354: 85 C0              test        eax,eax
  00403356: 0F 84 9F 00 00 00  je          004033FB
  0040335C: FF 75 08           push        dword ptr [ebp+8]
  0040335F: 83 05 F4 0E 42 00  add         dword ptr ds:[00420EF4h],4
            04
  00403366: E8 A6 00 00 00     call        00403411
  0040336B: 8B D8              mov         ebx,eax
  0040336D: 3B DE              cmp         ebx,esi
  0040336F: 0F 8C 94 00 00 00  jl          00403409
  00403375: 39 75 10           cmp         dword ptr [ebp+10h],esi
  00403378: 75 5D              jne         004033D7
  0040337A: 39 75 08           cmp         dword ptr [ebp+8],esi
  0040337D: 0F 8E 86 00 00 00  jle         00403409
  00403383: BE F0 4E 41 00     mov         esi,414EF0h
  00403388: 81 7D 08 00 40 00  cmp         dword ptr [ebp+8],4000h
            00
  0040338F: 8B 45 08           mov         eax,dword ptr [ebp+8]
  00403392: 7C 05              jl          00403399
  00403394: B8 00 40 00 00     mov         eax,4000h
  00403399: 50                 push        eax
  0040339A: 56                 push        esi
  0040339B: FF 35 1C A0 40 00  push        dword ptr ds:[0040A01Ch]
  004033A1: 89 45 FC           mov         dword ptr [ebp-4],eax
  004033A4: E8 0C 2D 00 00     call        004060B5
  004033A9: 85 C0              test        eax,eax
  004033AB: 74 4E              je          004033FB
  004033AD: FF 75 FC           push        dword ptr [ebp-4]
  004033B0: 56                 push        esi
  004033B1: FF 75 0C           push        dword ptr [ebp+0Ch]
  004033B4: E8 2B 2D 00 00     call        004060E4
  004033B9: 85 C0              test        eax,eax
  004033BB: 74 16              je          004033D3
  004033BD: 8B 45 FC           mov         eax,dword ptr [ebp-4]
  004033C0: 29 45 08           sub         dword ptr [ebp+8],eax
  004033C3: 01 05 F4 0E 42 00  add         dword ptr ds:[00420EF4h],eax
  004033C9: 03 D8              add         ebx,eax
  004033CB: 83 7D 08 00        cmp         dword ptr [ebp+8],0
  004033CF: 7F B7              jg          00403388
  004033D1: EB 36              jmp         00403409
  004033D3: 6A FE              push        0FFFFFFFEh
  004033D5: EB 26              jmp         004033FD
  004033D7: 8B 45 08           mov         eax,dword ptr [ebp+8]
  004033DA: 3B 45 14           cmp         eax,dword ptr [ebp+14h]
  004033DD: 7C 03              jl          004033E2
  004033DF: 8B 45 14           mov         eax,dword ptr [ebp+14h]
  004033E2: 8D 4D FC           lea         ecx,[ebp-4]
  004033E5: 56                 push        esi
  004033E6: 51                 push        ecx
  004033E7: 50                 push        eax
  004033E8: FF 75 10           push        dword ptr [ebp+10h]
  004033EB: FF 35 1C A0 40 00  push        dword ptr ds:[0040A01Ch]
  004033F1: FF 15 5C 81 40 00  call        dword ptr ds:[0040815Ch]
  004033F7: 85 C0              test        eax,eax
  004033F9: 75 05              jne         00403400
  004033FB: 6A FD              push        0FFFFFFFDh
  004033FD: 58                 pop         eax
  004033FE: EB 0B              jmp         0040340B
  00403400: 8B 5D FC           mov         ebx,dword ptr [ebp-4]
  00403403: 01 1D F4 0E 42 00  add         dword ptr ds:[00420EF4h],ebx
  00403409: 8B C3              mov         eax,ebx
  0040340B: 5E                 pop         esi
  0040340C: 5B                 pop         ebx
  0040340D: C9                 leave
  0040340E: C2 10 00           ret         10h
  00403411: 53                 push        ebx
  00403412: 55                 push        ebp
  00403413: 56                 push        esi
  00403414: 8B 35 F4 0E 42 00  mov         esi,dword ptr ds:[00420EF4h]
  0040341A: 2B 35 60 CE 40 00  sub         esi,dword ptr ds:[0040CE60h]
  00403420: 57                 push        edi
  00403421: 03 74 24 14        add         esi,dword ptr [esp+14h]
  00403425: FF 15 F8 80 40 00  call        dword ptr ds:[004080F8h]
  0040342B: 33 DB              xor         ebx,ebx
  0040342D: 05 F4 01 00 00     add         eax,1F4h
  00403432: 3B F3              cmp         esi,ebx
  00403434: A3 70 A2 42 00     mov         dword ptr ds:[0042A270h],eax
  00403439: 0F 8E 2A 01 00 00  jle         00403569
  0040343F: FF 35 04 0F 42 00  push        dword ptr ds:[00420F04h]
  00403445: E8 46 01 00 00     call        00403590
  0040344A: 53                 push        ebx
  0040344B: 53                 push        ebx
  0040344C: FF 35 60 CE 40 00  push        dword ptr ds:[0040CE60h]
  00403452: FF 35 1C A0 40 00  push        dword ptr ds:[0040A01Ch]
  00403458: FF 15 60 81 40 00  call        dword ptr ds:[00408160h]
  0040345E: 89 35 00 0F 42 00  mov         dword ptr ds:[00420F00h],esi
  00403464: 89 1D F0 0E 42 00  mov         dword ptr ds:[00420EF0h],ebx
  0040346A: BD F0 CE 40 00     mov         ebp,40CEF0h
  0040346F: A1 F8 0E 42 00     mov         eax,dword ptr ds:[00420EF8h]
  00403474: BF 00 40 00 00     mov         edi,4000h
  00403479: 2B 05 04 0F 42 00  sub         eax,dword ptr ds:[00420F04h]
  0040347F: 3B C7              cmp         eax,edi
  00403481: 7F 02              jg          00403485
  00403483: 8B F8              mov         edi,eax
  00403485: BE F0 4E 41 00     mov         esi,414EF0h
  0040348A: 57                 push        edi
  0040348B: 56                 push        esi
  0040348C: E8 E9 00 00 00     call        0040357A
  00403491: 85 C0              test        eax,eax
  00403493: 0F 84 C2 00 00 00  je          0040355B
  00403499: 01 3D 04 0F 42 00  add         dword ptr ds:[00420F04h],edi
  0040349F: 89 35 80 CE 40 00  mov         dword ptr ds:[0040CE80h],esi
  004034A5: 89 3D 84 CE 40 00  mov         dword ptr ds:[0040CE84h],edi
  004034AB: 39 1D 74 A2 42 00  cmp         dword ptr ds:[0042A274h],ebx
  004034B1: 74 29              je          004034DC
  004034B3: 39 1D 20 A3 42 00  cmp         dword ptr ds:[0042A320h],ebx
  004034B9: 75 21              jne         004034DC
  004034BB: A1 00 0F 42 00     mov         eax,dword ptr ds:[00420F00h]
  004034C0: 53                 push        ebx
  004034C1: 2B 05 F4 0E 42 00  sub         eax,dword ptr ds:[00420EF4h]
  004034C7: 2B 44 24 18        sub         eax,dword ptr [esp+18h]
  004034CB: 03 05 60 CE 40 00  add         eax,dword ptr ds:[0040CE60h]
  004034D1: A3 F0 0E 42 00     mov         dword ptr ds:[00420EF0h],eax
  004034D6: E8 EB FA FF FF     call        00402FC6
  004034DB: 59                 pop         ecx
  004034DC: B9 68 CE 40 00     mov         ecx,40CE68h
  004034E1: 89 2D 88 CE 40 00  mov         dword ptr ds:[0040CE88h],ebp
  004034E7: C7 05 8C CE 40 00  mov         dword ptr ds:[0040CE8Ch],8000h
            00 80 00 00
  004034F1: E8 B6 35 00 00     call        00406AAC
  004034F6: 85 C0              test        eax,eax
  004034F8: 7C 6A              jl          00403564
  004034FA: 8B 35 88 CE 40 00  mov         esi,dword ptr ds:[0040CE88h]
  00403500: 2B F5              sub         esi,ebp
  00403502: 74 21              je          00403525
  00403504: 56                 push        esi
  00403505: 55                 push        ebp
  00403506: FF 35 1C A0 40 00  push        dword ptr ds:[0040A01Ch]
  0040350C: E8 D3 2B 00 00     call        004060E4
  00403511: 85 C0              test        eax,eax
  00403513: 74 4B              je          00403560
  00403515: 01 35 60 CE 40 00  add         dword ptr ds:[0040CE60h],esi
  0040351B: 39 1D 84 CE 40 00  cmp         dword ptr ds:[0040CE84h],ebx
  00403521: 75 88              jne         004034AB
  00403523: EB 0C              jmp         00403531
  00403525: 39 1D 84 CE 40 00  cmp         dword ptr ds:[0040CE84h],ebx
  0040352B: 75 37              jne         00403564
  0040352D: 3B FB              cmp         edi,ebx
  0040352F: 74 33              je          00403564
  00403531: A1 F4 0E 42 00     mov         eax,dword ptr ds:[00420EF4h]
  00403536: 8B C8              mov         ecx,eax
  00403538: 2B 0D 60 CE 40 00  sub         ecx,dword ptr ds:[0040CE60h]
  0040353E: 03 4C 24 14        add         ecx,dword ptr [esp+14h]
  00403542: 85 C9              test        ecx,ecx
  00403544: 0F 8F 25 FF FF FF  jg          0040346F
  0040354A: 53                 push        ebx
  0040354B: 53                 push        ebx
  0040354C: 50                 push        eax
  0040354D: FF 35 1C A0 40 00  push        dword ptr ds:[0040A01Ch]
  00403553: FF 15 60 81 40 00  call        dword ptr ds:[00408160h]
  00403559: EB 0E              jmp         00403569
  0040355B: 83 C8 FF           or          eax,0FFFFFFFFh
  0040355E: EB 13              jmp         00403573
  00403560: 6A FE              push        0FFFFFFFEh
  00403562: EB 02              jmp         00403566
  00403564: 6A FD              push        0FFFFFFFDh
  00403566: 58                 pop         eax
  00403567: EB 0A              jmp         00403573
  00403569: 6A 01              push        1
  0040356B: E8 56 FA FF FF     call        00402FC6
  00403570: 59                 pop         ecx
  00403571: 33 C0              xor         eax,eax
  00403573: 5F                 pop         edi
  00403574: 5E                 pop         esi
  00403575: 5D                 pop         ebp
  00403576: 5B                 pop         ebx
  00403577: C2 04 00           ret         4
  0040357A: FF 74 24 08        push        dword ptr [esp+8]
  0040357E: FF 74 24 08        push        dword ptr [esp+8]
  00403582: FF 35 18 A0 40 00  push        dword ptr ds:[0040A018h]
  00403588: E8 28 2B 00 00     call        004060B5
  0040358D: C2 08 00           ret         8
  00403590: 6A 00              push        0
  00403592: 6A 00              push        0
  00403594: FF 74 24 0C        push        dword ptr [esp+0Ch]
  00403598: FF 35 18 A0 40 00  push        dword ptr ds:[0040A018h]
  0040359E: FF 15 60 81 40 00  call        dword ptr ds:[00408160h]
  004035A4: C2 04 00           ret         4
  004035A7: 56                 push        esi
  004035A8: BE 00 78 43 00     mov         esi,437800h
  004035AD: 56                 push        esi
  004035AE: E8 38 32 00 00     call        004067EB
  004035B3: 56                 push        esi
  004035B4: E8 CF 28 00 00     call        00405E88
  004035B9: 85 C0              test        eax,eax
  004035BB: 75 02              jne         004035BF
  004035BD: 5E                 pop         esi
  004035BE: C3                 ret
  004035BF: 56                 push        esi
  004035C0: E8 4C 28 00 00     call        00405E11
  004035C5: 56                 push        esi
  004035C6: E8 25 25 00 00     call        00405AF0
  004035CB: 56                 push        esi
  004035CC: 68 00 70 43 00     push        437000h
  004035D1: E8 8B 2A 00 00     call        00406061
  004035D6: 5E                 pop         esi
  004035D7: C3                 ret
  004035D8: 81 EC D4 02 00 00  sub         esp,2D4h
  004035DE: 53                 push        ebx
  004035DF: 56                 push        esi
  004035E0: 57                 push        edi
  004035E1: 6A 20              push        20h
  004035E3: 5F                 pop         edi
  004035E4: 33 DB              xor         ebx,ebx
  004035E6: 68 01 80 00 00     push        8001h
  004035EB: 89 5C 24 14        mov         dword ptr [esp+14h],ebx
  004035EF: C7 44 24 10 30 A2  mov         dword ptr [esp+10h],40A230h
            40 00
  004035F7: 89 5C 24 1C        mov         dword ptr [esp+1Ch],ebx
  004035FB: FF 15 C8 80 40 00  call        dword ptr ds:[004080C8h]
  00403601: FF 15 CC 80 40 00  call        dword ptr ds:[004080CCh]
  00403607: 25 FF FF FF BF     and         eax,0BFFFFFFFh
  0040360C: 66 3D 06 00        cmp         ax,6
  00403610: A3 6C A2 42 00     mov         dword ptr ds:[0042A26Ch],eax
  00403615: 74 11              je          00403628
  00403617: 53                 push        ebx
  00403618: E8 14 33 00 00     call        00406931
  0040361D: 3B C3              cmp         eax,ebx
  0040361F: 74 07              je          00403628
  00403621: 68 00 0C 00 00     push        0C00h
  00403626: FF D0              call        eax
  00403628: BE B0 82 40 00     mov         esi,4082B0h
  0040362D: 56                 push        esi
  0040362E: E8 8E 32 00 00     call        004068C1
  00403633: 56                 push        esi
  00403634: FF 15 54 81 40 00  call        dword ptr ds:[00408154h]
  0040363A: 8D 74 06 01        lea         esi,[esi+eax+1]
  0040363E: 80 3E 00           cmp         byte ptr [esi],0
  00403641: 75 EA              jne         0040362D
  00403643: 6A 0B              push        0Bh
  00403645: E8 E7 32 00 00     call        00406931
  0040364A: 6A 09              push        9
  0040364C: E8 E0 32 00 00     call        00406931
  00403651: 6A 07              push        7
  00403653: A3 64 A2 42 00     mov         dword ptr ds:[0042A264h],eax
  00403658: E8 D4 32 00 00     call        00406931
  0040365D: 3B C3              cmp         eax,ebx
  0040365F: 74 0F              je          00403670
  00403661: 6A 1E              push        1Eh
  00403663: FF D0              call        eax
  00403665: 85 C0              test        eax,eax
  00403667: 74 07              je          00403670
  00403669: 80 0D 6F A2 42 00  or          byte ptr ds:[0042A26Fh],40h
            40
  00403670: 55                 push        ebp
  00403671: FF 15 38 80 40 00  call        dword ptr ds:[00408038h]
  00403677: 53                 push        ebx
  00403678: FF 15 98 82 40 00  call        dword ptr ds:[00408298h]
  0040367E: A3 38 A3 42 00     mov         dword ptr ds:[0042A338h],eax
  00403683: 53                 push        ebx
  00403684: 8D 44 24 34        lea         eax,[esp+34h]
  00403688: 68 B4 02 00 00     push        2B4h
  0040368D: 50                 push        eax
  0040368E: 53                 push        ebx
  0040368F: 68 08 17 42 00     push        421708h
  00403694: FF 15 8C 81 40 00  call        dword ptr ds:[0040818Ch]
  0040369A: 68 84 A3 40 00     push        40A384h
  0040369F: 68 60 92 42 00     push        429260h
  004036A4: E8 93 2E 00 00     call        0040653C
  004036A9: FF 15 D0 80 40 00  call        dword ptr ds:[004080D0h]
  004036AF: BD 00 50 43 00     mov         ebp,435000h
  004036B4: 50                 push        eax
  004036B5: 55                 push        ebp
  004036B6: E8 81 2E 00 00     call        0040653C
  004036BB: 66 83 3D 00 50 43  cmp         word ptr ds:[00435000h],22h
            00 22
  004036C3: C7 05 60 A2 42 00  mov         dword ptr ds:[0042A260h],400000h
            00 00 40 00
  004036CD: 8B C5              mov         eax,ebp
  004036CF: 75 08              jne         004036D9
  004036D1: 6A 22              push        22h
  004036D3: B8 02 50 43 00     mov         eax,435002h
  004036D8: 5F                 pop         edi
  004036D9: 57                 push        edi
  004036DA: 50                 push        eax
  004036DB: E8 5E 27 00 00     call        00405E3E
  004036E0: 50                 push        eax
  004036E1: FF 15 30 82 40 00  call        dword ptr ds:[00408230h]
  004036E7: 8B C8              mov         ecx,eax
  004036E9: 89 4C 24 18        mov         dword ptr [esp+18h],ecx
  004036ED: 66 8B 01           mov         ax,word ptr [ecx]
  004036F0: 66 3B C3           cmp         ax,bx
  004036F3: 0F 84 11 01 00 00  je          0040380A
  004036F9: 6A 20              push        20h
  004036FB: 5B                 pop         ebx
  004036FC: 66 3B C3           cmp         ax,bx
  004036FF: 75 07              jne         00403708
  00403701: 41                 inc         ecx
  00403702: 41                 inc         ecx
  00403703: 66 39 19           cmp         word ptr [ecx],bx
  00403706: 74 F9              je          00403701
  00403708: 66 83 39 22        cmp         word ptr [ecx],22h
  0040370C: 75 05              jne         00403713
  0040370E: 41                 inc         ecx
  0040370F: 6A 22              push        22h
  00403711: 41                 inc         ecx
  00403712: 5B                 pop         ebx
  00403713: 66 83 39 2F        cmp         word ptr [ecx],2Fh
  00403717: 0F 85 B9 00 00 00  jne         004037D6
  0040371D: 41                 inc         ecx
  0040371E: 41                 inc         ecx
  0040371F: 66 83 39 53        cmp         word ptr [ecx],53h
  00403723: 75 19              jne         0040373E
  00403725: 66 8B 41 02        mov         ax,word ptr [ecx+2]
  00403729: 66 3D 20 00        cmp         ax,20h
  0040372D: 74 05              je          00403734
  0040372F: 66 85 C0           test        ax,ax
  00403732: 75 0A              jne         0040373E
  00403734: C7 05 20 A3 42 00  mov         dword ptr ds:[0042A320h],1
            01 00 00 00
  0040373E: 0F B7 05 7E A3 40  movzx       eax,word ptr ds:[0040A37Eh]
            00
  00403745: 99                 cdq
  00403746: 0F A4 C2 10        shld        edx,eax,10h
  0040374A: C1 E0 10           shl         eax,10h
  0040374D: 8B F8              mov         edi,eax
  0040374F: 33 F6              xor         esi,esi
  00403751: 0F B7 05 7C A3 40  movzx       eax,word ptr ds:[0040A37Ch]
            00
  00403758: 99                 cdq
  00403759: 0F B7 15 78 A3 40  movzx       edx,word ptr ds:[0040A378h]
            00
  00403760: 0B F8              or          edi,eax
  00403762: 0F B7 05 7A A3 40  movzx       eax,word ptr ds:[0040A37Ah]
            00
  00403769: C1 E0 10           shl         eax,10h
  0040376C: 0B C2              or          eax,edx
  0040376E: 99                 cdq
  0040376F: 0B F0              or          esi,eax
  00403771: 8B 01              mov         eax,dword ptr [ecx]
  00403773: 0B FA              or          edi,edx
  00403775: 3B C6              cmp         eax,esi
  00403777: 75 1B              jne         00403794
  00403779: 8B 41 04           mov         eax,dword ptr [ecx+4]
  0040377C: 3B C7              cmp         eax,edi
  0040377E: 75 14              jne         00403794
  00403780: 66 8B 41 08        mov         ax,word ptr [ecx+8]
  00403784: 66 3D 20 00        cmp         ax,20h
  00403788: 74 05              je          0040378F
  0040378A: 66 85 C0           test        ax,ax
  0040378D: 75 05              jne         00403794
  0040378F: 83 4C 24 1C 04     or          dword ptr [esp+1Ch],4
  00403794: 0F B7 05 72 A3 40  movzx       eax,word ptr ds:[0040A372h]
            00
  0040379B: 99                 cdq
  0040379C: 0F A4 C2 10        shld        edx,eax,10h
  004037A0: C1 E0 10           shl         eax,10h
  004037A3: 8B F8              mov         edi,eax
  004037A5: 33 F6              xor         esi,esi
  004037A7: 0F B7 05 70 A3 40  movzx       eax,word ptr ds:[0040A370h]
            00
  004037AE: 99                 cdq
  004037AF: 0F B7 15 6C A3 40  movzx       edx,word ptr ds:[0040A36Ch]
            00
  004037B6: 0B F8              or          edi,eax
  004037B8: 0F B7 05 6E A3 40  movzx       eax,word ptr ds:[0040A36Eh]
            00
  004037BF: C1 E0 10           shl         eax,10h
  004037C2: 0B C2              or          eax,edx
  004037C4: 99                 cdq
  004037C5: 0B F0              or          esi,eax
  004037C7: 8B 41 FC           mov         eax,dword ptr [ecx-4]
  004037CA: 0B FA              or          edi,edx
  004037CC: 3B C6              cmp         eax,esi
  004037CE: 75 06              jne         004037D6
  004037D0: 8B 01              mov         eax,dword ptr [ecx]
  004037D2: 3B C7              cmp         eax,edi
  004037D4: 74 1F              je          004037F5
  004037D6: 53                 push        ebx
  004037D7: 51                 push        ecx
  004037D8: E8 61 26 00 00     call        00405E3E
  004037DD: 8B C8              mov         ecx,eax
  004037DF: 66 83 39 22        cmp         word ptr [ecx],22h
  004037E3: 75 02              jne         004037E7
  004037E5: 41                 inc         ecx
  004037E6: 41                 inc         ecx
  004037E7: 66 8B 01           mov         ax,word ptr [ecx]
  004037EA: 66 85 C0           test        ax,ax
  004037ED: 0F 85 06 FF FF FF  jne         004036F9
  004037F3: EB 13              jmp         00403808
  004037F5: 66 83 61 FC 00     and         word ptr [ecx-4],0
  004037FA: 83 C1 04           add         ecx,4
  004037FD: 51                 push        ecx
  004037FE: 68 00 58 43 00     push        435800h
  00403803: E8 34 2D 00 00     call        0040653C
  00403808: 33 DB              xor         ebx,ebx
  0040380A: 8B 3D D4 80 40 00  mov         edi,dword ptr ds:[004080D4h]
  00403810: BE 00 78 43 00     mov         esi,437800h
  00403815: 56                 push        esi
  00403816: 68 00 04 00 00     push        400h
  0040381B: FF D7              call        edi
  0040381D: E8 85 FD FF FF     call        004035A7
  00403822: 85 C0              test        eax,eax
  00403824: 75 56              jne         0040387C
  00403826: 68 FB 03 00 00     push        3FBh
  0040382B: 56                 push        esi
  0040382C: FF 15 D8 80 40 00  call        dword ptr ds:[004080D8h]
  00403832: 68 60 A3 40 00     push        40A360h
  00403837: 56                 push        esi
  00403838: E8 1B 2D 00 00     call        00406558
  0040383D: E8 65 FD FF FF     call        004035A7
  00403842: 85 C0              test        eax,eax
  00403844: 75 36              jne         0040387C
  00403846: 56                 push        esi
  00403847: 68 FC 03 00 00     push        3FCh
  0040384C: FF D7              call        edi
  0040384E: 68 58 A3 40 00     push        40A358h
  00403853: 56                 push        esi
  00403854: E8 FF 2C 00 00     call        00406558
  00403859: 8B 3D DC 80 40 00  mov         edi,dword ptr ds:[004080DCh]
  0040385F: 56                 push        esi
  00403860: 68 4C A3 40 00     push        40A34Ch
  00403865: FF D7              call        edi
  00403867: 56                 push        esi
  00403868: 68 44 A3 40 00     push        40A344h
  0040386D: FF D7              call        edi
  0040386F: E8 33 FD FF FF     call        004035A7
  00403874: 85 C0              test        eax,eax
  00403876: 0F 84 CB 00 00 00  je          00403947
  0040387C: 68 00 70 43 00     push        437000h
  00403881: FF 15 70 81 40 00  call        dword ptr ds:[00408170h]
  00403887: FF 74 24 1C        push        dword ptr [esp+1Ch]
  0040388B: E8 D8 F7 FF FF     call        00403068
  00403890: 3B C3              cmp         eax,ebx
  00403892: 89 44 24 10        mov         dword ptr [esp+10h],eax
  00403896: 0F 85 AB 00 00 00  jne         00403947
  0040389C: 39 1D 80 A2 42 00  cmp         dword ptr ds:[0042A280h],ebx
  004038A2: 0F 84 8F 00 00 00  je          00403937
  004038A8: 53                 push        ebx
  004038A9: 55                 push        ebp
  004038AA: E8 8F 25 00 00     call        00405E3E
  004038AF: 8B F8              mov         edi,eax
  004038B1: 3B FD              cmp         edi,ebp
  004038B3: 72 4C              jb          00403901
  004038B5: 0F B7 05 3E A3 40  movzx       eax,word ptr ds:[0040A33Eh]
            00
  004038BC: 99                 cdq
  004038BD: 0F A4 C2 10        shld        edx,eax,10h
  004038C1: C1 E0 10           shl         eax,10h
  004038C4: 8B D8              mov         ebx,eax
  004038C6: 0F B7 05 3C A3 40  movzx       eax,word ptr ds:[0040A33Ch]
            00
  004038CD: 0F B7 0D 38 A3 40  movzx       ecx,word ptr ds:[0040A338h]
            00
  004038D4: 99                 cdq
  004038D5: 0B D8              or          ebx,eax
  004038D7: 0F B7 05 3A A3 40  movzx       eax,word ptr ds:[0040A33Ah]
            00
  004038DE: C1 E0 10           shl         eax,10h
  004038E1: 0B C1              or          eax,ecx
  004038E3: 33 C9              xor         ecx,ecx
  004038E5: 99                 cdq
  004038E6: 0B C8              or          ecx,eax
  004038E8: 8B C3              mov         eax,ebx
  004038EA: 0B C2              or          eax,edx
  004038EC: 8B 17              mov         edx,dword ptr [edi]
  004038EE: 3B D1              cmp         edx,ecx
  004038F0: 75 07              jne         004038F9
  004038F2: 8B 57 04           mov         edx,dword ptr [edi+4]
  004038F5: 3B D0              cmp         edx,eax
  004038F7: 74 06              je          004038FF
  004038F9: 4F                 dec         edi
  004038FA: 4F                 dec         edi
  004038FB: 3B FD              cmp         edi,ebp
  004038FD: 73 ED              jae         004038EC
  004038FF: 33 DB              xor         ebx,ebx
  00403901: 3B FD              cmp         edi,ebp
  00403903: C7 44 24 10 B8 A2  mov         dword ptr [esp+10h],40A2B8h
            40 00
  0040390B: 72 66              jb          00403973
  0040390D: 66 89 1F           mov         word ptr [edi],bx
  00403910: 83 C7 08           add         edi,8
  00403913: 57                 push        edi
  00403914: E8 00 26 00 00     call        00405F19
  00403919: 85 C0              test        eax,eax
  0040391B: 74 2A              je          00403947
  0040391D: 57                 push        edi
  0040391E: 68 00 58 43 00     push        435800h
  00403923: E8 14 2C 00 00     call        0040653C
  00403928: 57                 push        edi
  00403929: 68 00 60 43 00     push        436000h
  0040392E: E8 09 2C 00 00     call        0040653C
  00403933: 89 5C 24 10        mov         dword ptr [esp+10h],ebx
  00403937: 83 0D 2C A3 42 00  or          dword ptr ds:[0042A32Ch],0FFFFFFFFh
            FF
  0040393E: E8 C8 02 00 00     call        00403C0B
  00403943: 89 44 24 14        mov         dword ptr [esp+14h],eax
  00403947: E8 CD 01 00 00     call        00403B19
  0040394C: FF 15 9C 82 40 00  call        dword ptr ds:[0040829Ch]
  00403952: 39 5C 24 10        cmp         dword ptr [esp+10h],ebx
  00403956: 5D                 pop         ebp
  00403957: 0F 84 20 01 00 00  je          00403A7D
  0040395D: 68 10 00 20 00     push        200010h
  00403962: FF 74 24 10        push        dword ptr [esp+10h]
  00403966: E8 37 22 00 00     call        00405BA2
  0040396B: 6A 02              push        2
  0040396D: FF 15 E0 80 40 00  call        dword ptr ds:[004080E0h]
  00403973: E8 95 21 00 00     call        00405B0D
  00403978: 68 2C A3 40 00     push        40A32Ch
  0040397D: 56                 push        esi
  0040397E: 8B F8              mov         edi,eax
  00403980: E8 D3 2B 00 00     call        00406558
  00403985: 3B FB              cmp         edi,ebx
  00403987: 74 0B              je          00403994
  00403989: 68 28 A3 40 00     push        40A328h
  0040398E: 56                 push        esi
  0040398F: E8 C4 2B 00 00     call        00406558
  00403994: 68 1C A3 40 00     push        40A31Ch
  00403999: 56                 push        esi
  0040399A: E8 B9 2B 00 00     call        00406558
  0040399F: BD 00 68 43 00     mov         ebp,436800h
  004039A4: 55                 push        ebp
  004039A5: 56                 push        esi
  004039A6: FF 15 28 81 40 00  call        dword ptr ds:[00408128h]
  004039AC: 85 C0              test        eax,eax
  004039AE: 74 97              je          00403947
  004039B0: 3B FB              cmp         edi,ebx
  004039B2: 56                 push        esi
  004039B3: 74 07              je          004039BC
  004039B5: E8 B9 20 00 00     call        00405A73
  004039BA: EB 05              jmp         004039C1
  004039BC: E8 2F 21 00 00     call        00405AF0
  004039C1: 56                 push        esi
  004039C2: FF 15 08 81 40 00  call        dword ptr ds:[00408108h]
  004039C8: 66 39 1D 00 58 43  cmp         word ptr ds:[00435800h],bx
            00
  004039CF: 75 0B              jne         004039DC
  004039D1: 55                 push        ebp
  004039D2: 68 00 58 43 00     push        435800h
  004039D7: E8 60 2B 00 00     call        0040653C
  004039DC: FF 74 24 18        push        dword ptr [esp+18h]
  004039E0: 68 00 B0 42 00     push        42B000h
  004039E5: E8 52 2B 00 00     call        0040653C
  004039EA: 0F B7 05 16 A3 40  movzx       eax,word ptr ds:[0040A316h]
            00
  004039F1: 0F B7 0D 14 A3 40  movzx       ecx,word ptr ds:[0040A314h]
            00
  004039F8: C1 E0 10           shl         eax,10h
  004039FB: 0B C1              or          eax,ecx
  004039FD: 6A 1A              push        1Ah
  004039FF: A3 00 B8 42 00     mov         dword ptr ds:[0042B800h],eax
  00403A04: 5D                 pop         ebp
  00403A05: BF 08 0F 42 00     mov         edi,420F08h
  00403A0A: A1 74 A2 42 00     mov         eax,dword ptr ds:[0042A274h]
  00403A0F: FF B0 20 01 00 00  push        dword ptr [eax+00000120h]
  00403A15: 57                 push        edi
  00403A16: E8 5E 2B 00 00     call        00406579
  00403A1B: 57                 push        edi
  00403A1C: FF 15 70 81 40 00  call        dword ptr ds:[00408170h]
  00403A22: 39 5C 24 10        cmp         dword ptr [esp+10h],ebx
  00403A26: 74 3F              je          00403A67
  00403A28: 6A 01              push        1
  00403A2A: 57                 push        edi
  00403A2B: 68 00 88 43 00     push        438800h
  00403A30: FF 15 E4 80 40 00  call        dword ptr ds:[004080E4h]
  00403A36: 85 C0              test        eax,eax
  00403A38: 74 2D              je          00403A67
  00403A3A: 53                 push        ebx
  00403A3B: 57                 push        edi
  00403A3C: E8 C1 28 00 00     call        00406302
  00403A41: A1 74 A2 42 00     mov         eax,dword ptr ds:[0042A274h]
  00403A46: FF B0 24 01 00 00  push        dword ptr [eax+00000124h]
  00403A4C: 57                 push        edi
  00403A4D: E8 27 2B 00 00     call        00406579
  00403A52: 57                 push        edi
  00403A53: E8 CD 20 00 00     call        00405B25
  00403A58: 3B C3              cmp         eax,ebx
  00403A5A: 74 0B              je          00403A67
  00403A5C: 50                 push        eax
  00403A5D: FF 15 24 81 40 00  call        dword ptr ds:[00408124h]
  00403A63: 89 5C 24 10        mov         dword ptr [esp+10h],ebx
  00403A67: 66 FF 05 00 B8 42  inc         word ptr ds:[0042B800h]
            00
  00403A6E: 4D                 dec         ebp
  00403A6F: 75 99              jne         00403A0A
  00403A71: 53                 push        ebx
  00403A72: 56                 push        esi
  00403A73: E8 8A 28 00 00     call        00406302
  00403A78: E9 CA FE FF FF     jmp         00403947
  00403A7D: 39 1D 14 A3 42 00  cmp         dword ptr ds:[0042A314h],ebx
  00403A83: 74 7C              je          00403B01
  00403A85: 8D 44 24 14        lea         eax,[esp+14h]
  00403A89: 50                 push        eax
  00403A8A: 6A 28              push        28h
  00403A8C: FF 15 E8 80 40 00  call        dword ptr ds:[004080E8h]
  00403A92: 50                 push        eax
  00403A93: FF 15 24 80 40 00  call        dword ptr ds:[00408024h]
  00403A99: 85 C0              test        eax,eax
  00403A9B: 74 34              je          00403AD1
  00403A9D: 8D 44 24 20        lea         eax,[esp+20h]
  00403AA1: 50                 push        eax
  00403AA2: 68 EC A2 40 00     push        40A2ECh
  00403AA7: 53                 push        ebx
  00403AA8: FF 15 20 80 40 00  call        dword ptr ds:[00408020h]
  00403AAE: 53                 push        ebx
  00403AAF: 53                 push        ebx
  00403AB0: 8D 44 24 24        lea         eax,[esp+24h]
  00403AB4: 53                 push        ebx
  00403AB5: 50                 push        eax
  00403AB6: 53                 push        ebx
  00403AB7: FF 74 24 28        push        dword ptr [esp+28h]
  00403ABB: C7 44 24 34 01 00  mov         dword ptr [esp+34h],1
            00 00
  00403AC3: C7 44 24 40 02 00  mov         dword ptr [esp+40h],2
            00 00
  00403ACB: FF 15 1C 80 40 00  call        dword ptr ds:[0040801Ch]
  00403AD1: 6A 04              push        4
  00403AD3: E8 59 2E 00 00     call        00406931
  00403AD8: 3B C3              cmp         eax,ebx
  00403ADA: BE 02 00 04 80     mov         esi,80040002h
  00403ADF: 74 0C              je          00403AED
  00403AE1: 56                 push        esi
  00403AE2: 6A 25              push        25h
  00403AE4: 53                 push        ebx
  00403AE5: 53                 push        ebx
  00403AE6: 53                 push        ebx
  00403AE7: FF D0              call        eax
  00403AE9: 85 C0              test        eax,eax
  00403AEB: 74 0D              je          00403AFA
  00403AED: 56                 push        esi
  00403AEE: 6A 02              push        2
  00403AF0: FF 15 34 82 40 00  call        dword ptr ds:[00408234h]
  00403AF6: 85 C0              test        eax,eax
  00403AF8: 75 07              jne         00403B01
  00403AFA: 6A 09              push        9
  00403AFC: E8 0A D9 FF FF     call        0040140B
  00403B01: A1 2C A3 42 00     mov         eax,dword ptr ds:[0042A32Ch]
  00403B06: 83 F8 FF           cmp         eax,0FFFFFFFFh
  00403B09: 74 04              je          00403B0F
  00403B0B: 89 44 24 10        mov         dword ptr [esp+10h],eax
  00403B0F: FF 74 24 10        push        dword ptr [esp+10h]
  00403B13: FF 15 E0 80 40 00  call        dword ptr ds:[004080E0h]
  00403B19: A1 18 A0 40 00     mov         eax,dword ptr ds:[0040A018h]
  00403B1E: 56                 push        esi
  00403B1F: 8B 35 24 81 40 00  mov         esi,dword ptr ds:[00408124h]
  00403B25: 83 F8 FF           cmp         eax,0FFFFFFFFh
  00403B28: 74 0A              je          00403B34
  00403B2A: 50                 push        eax
  00403B2B: FF D6              call        esi
  00403B2D: 83 0D 18 A0 40 00  or          dword ptr ds:[0040A018h],0FFFFFFFFh
            FF
  00403B34: A1 1C A0 40 00     mov         eax,dword ptr ds:[0040A01Ch]
  00403B39: 83 F8 FF           cmp         eax,0FFFFFFFFh
  00403B3C: 74 0A              je          00403B48
  00403B3E: 50                 push        eax
  00403B3F: FF D6              call        esi
  00403B41: 83 0D 1C A0 40 00  or          dword ptr ds:[0040A01Ch],0FFFFFFFFh
            FF
  00403B48: E8 29 00 00 00     call        00403B76
  00403B4D: 6A 07              push        7
  00403B4F: 68 00 80 43 00     push        438000h
  00403B54: E8 F5 20 00 00     call        00405C4E
  00403B59: 5E                 pop         esi
  00403B5A: C3                 ret
  00403B5B: 56                 push        esi
  00403B5C: 8B 35 0C 17 42 00  mov         esi,dword ptr ds:[0042170Ch]
  00403B62: EB 0A              jmp         00403B6E
  00403B64: FF 74 24 08        push        dword ptr [esp+8]
  00403B68: FF 56 04           call        dword ptr [esi+4]
  00403B6B: 8B 36              mov         esi,dword ptr [esi]
  00403B6D: 59                 pop         ecx
  00403B6E: 85 F6              test        esi,esi
  00403B70: 75 F2              jne         00403B64
  00403B72: 5E                 pop         esi
  00403B73: C2 04 00           ret         4
  00403B76: 56                 push        esi
  00403B77: 8B 35 0C 17 42 00  mov         esi,dword ptr ds:[0042170Ch]
  00403B7D: 6A 00              push        0
  00403B7F: E8 D7 FF FF FF     call        00403B5B
  00403B84: 85 F6              test        esi,esi
  00403B86: 74 1A              je          00403BA2
  00403B88: 57                 push        edi
  00403B89: 8B FE              mov         edi,esi
  00403B8B: 8B 36              mov         esi,dword ptr [esi]
  00403B8D: FF 77 08           push        dword ptr [edi+8]
  00403B90: FF 15 48 81 40 00  call        dword ptr ds:[00408148h]
  00403B96: 57                 push        edi
  00403B97: FF 15 34 81 40 00  call        dword ptr ds:[00408134h]
  00403B9D: 85 F6              test        esi,esi
  00403B9F: 75 E8              jne         00403B89
  00403BA1: 5F                 pop         edi
  00403BA2: 83 25 0C 17 42 00  and         dword ptr ds:[0042170Ch],0
            00
  00403BA9: 5E                 pop         esi
  00403BAA: C3                 ret
  00403BAB: A1 0C 17 42 00     mov         eax,dword ptr ds:[0042170Ch]
  00403BB0: EB 0B              jmp         00403BBD
  00403BB2: 8B 48 08           mov         ecx,dword ptr [eax+8]
  00403BB5: 3B 4C 24 04        cmp         ecx,dword ptr [esp+4]
  00403BB9: 74 0A              je          00403BC5
  00403BBB: 8B 00              mov         eax,dword ptr [eax]
  00403BBD: 85 C0              test        eax,eax
  00403BBF: 75 F1              jne         00403BB2
  00403BC1: 40                 inc         eax
  00403BC2: C2 04 00           ret         4
  00403BC5: 33 C0              xor         eax,eax
  00403BC7: EB F9              jmp         00403BC2
  00403BC9: 56                 push        esi
  00403BCA: 8B 74 24 08        mov         esi,dword ptr [esp+8]
  00403BCE: 56                 push        esi
  00403BCF: E8 D7 FF FF FF     call        00403BAB
  00403BD4: 85 C0              test        eax,eax
  00403BD6: 75 03              jne         00403BDB
  00403BD8: 40                 inc         eax
  00403BD9: EB 2C              jmp         00403C07
  00403BDB: 6A 0C              push        0Ch
  00403BDD: 6A 40              push        40h
  00403BDF: FF 15 38 81 40 00  call        dword ptr ds:[00408138h]
  00403BE5: 85 C0              test        eax,eax
  00403BE7: 74 1B              je          00403C04
  00403BE9: 8B 4C 24 0C        mov         ecx,dword ptr [esp+0Ch]
  00403BED: 89 70 08           mov         dword ptr [eax+8],esi
  00403BF0: 89 48 04           mov         dword ptr [eax+4],ecx
  00403BF3: 8B 0D 0C 17 42 00  mov         ecx,dword ptr ds:[0042170Ch]
  00403BF9: 89 08              mov         dword ptr [eax],ecx
  00403BFB: A3 0C 17 42 00     mov         dword ptr ds:[0042170Ch],eax
  00403C00: 33 C0              xor         eax,eax
  00403C02: EB 03              jmp         00403C07
  00403C04: 83 C8 FF           or          eax,0FFFFFFFFh
  00403C07: 5E                 pop         esi
  00403C08: C2 08 00           ret         8
  00403C0B: 83 EC 10           sub         esp,10h
  00403C0E: 53                 push        ebx
  00403C0F: 55                 push        ebp
  00403C10: 56                 push        esi
  00403C11: 8B 35 74 A2 42 00  mov         esi,dword ptr ds:[0042A274h]
  00403C17: 57                 push        edi
  00403C18: 6A 02              push        2
  00403C1A: E8 12 2D 00 00     call        00406931
  00403C1F: 33 FF              xor         edi,edi
  00403C21: 3B C7              cmp         eax,edi
  00403C23: 74 12              je          00403C37
  00403C25: FF D0              call        eax
  00403C27: 0F B7 C0           movzx       eax,ax
  00403C2A: 50                 push        eax
  00403C2B: 68 00 70 43 00     push        437000h
  00403C30: E8 4E 28 00 00     call        00406483
  00403C35: EB 5A              jmp         00403C91
  00403C37: BB 48 37 42 00     mov         ebx,423748h
  00403C3C: 57                 push        edi
  00403C3D: 53                 push        ebx
  00403C3E: 57                 push        edi
  00403C3F: 68 98 83 40 00     push        408398h
  00403C44: 68 01 00 00 80     push        80000001h
  00403C49: 66 C7 05 00 70 43  mov         word ptr ds:[00437000h],30h
            00 30 00
  00403C52: 66 C7 05 02 70 43  mov         word ptr ds:[00437002h],78h
            00 78 00
  00403C5B: 66 89 3D 04 70 43  mov         word ptr ds:[00437004h],di
            00
  00403C62: E8 A3 27 00 00     call        0040640A
  00403C67: 66 39 3D 48 37 42  cmp         word ptr ds:[00423748h],di
            00
  00403C6E: 75 16              jne         00403C86
  00403C70: 57                 push        edi
  00403C71: 53                 push        ebx
  00403C72: 68 D4 83 40 00     push        4083D4h
  00403C77: 68 48 83 40 00     push        408348h
  00403C7C: 68 03 00 00 80     push        80000003h
  00403C81: E8 84 27 00 00     call        0040640A
  00403C86: 53                 push        ebx
  00403C87: 68 00 70 43 00     push        437000h
  00403C8C: E8 C7 28 00 00     call        00406558
  00403C91: E8 4B 02 00 00     call        00403EE1
  00403C96: A1 7C A2 42 00     mov         eax,dword ptr ds:[0042A27Ch]
  00403C9B: BD 00 58 43 00     mov         ebp,435800h
  00403CA0: 83 E0 20           and         eax,20h
  00403CA3: 55                 push        ebp
  00403CA4: A3 00 A3 42 00     mov         dword ptr ds:[0042A300h],eax
  00403CA9: C7 05 1C A3 42 00  mov         dword ptr ds:[0042A31Ch],10000h
            00 00 01 00
  00403CB3: E8 61 22 00 00     call        00405F19
  00403CB8: 85 C0              test        eax,eax
  00403CBA: 0F 85 8C 00 00 00  jne         00403D4C
  00403CC0: 8B 4E 48           mov         ecx,dword ptr [esi+48h]
  00403CC3: 3B CF              cmp         ecx,edi
  00403CC5: 0F 84 81 00 00 00  je          00403D4C
  00403CCB: 8B 56 4C           mov         edx,dword ptr [esi+4Ch]
  00403CCE: A1 B8 A2 42 00     mov         eax,dword ptr ds:[0042A2B8h]
  00403CD3: BB 00 82 42 00     mov         ebx,428200h
  00403CD8: 57                 push        edi
  00403CD9: 8D 14 50           lea         edx,[eax+edx*2]
  00403CDC: 53                 push        ebx
  00403CDD: 8D 04 48           lea         eax,[eax+ecx*2]
  00403CE0: 52                 push        edx
  00403CE1: 50                 push        eax
  00403CE2: FF 76 44           push        dword ptr [esi+44h]
  00403CE5: E8 20 27 00 00     call        0040640A
  00403CEA: 66 A1 00 82 42 00  mov         ax,word ptr ds:[00428200h]
  00403CF0: 66 3B C7           cmp         ax,di
  00403CF3: 74 57              je          00403D4C
  00403CF5: 66 3D 22 00        cmp         ax,22h
  00403CF9: 75 10              jne         00403D0B
  00403CFB: BB 02 82 42 00     mov         ebx,428202h
  00403D00: 6A 22              push        22h
  00403D02: 53                 push        ebx
  00403D03: E8 36 21 00 00     call        00405E3E
  00403D08: 66 89 38           mov         word ptr [eax],di
  00403D0B: 53                 push        ebx
  00403D0C: E8 41 28 00 00     call        00406552
  00403D11: 8D 44 43 F8        lea         eax,[ebx+eax*2-8]
  00403D15: 3B C3              cmp         eax,ebx
  00403D17: 76 26              jbe         00403D3F
  00403D19: 68 BC A3 40 00     push        40A3BCh
  00403D1E: 50                 push        eax
  00403D1F: FF 15 28 81 40 00  call        dword ptr ds:[00408128h]
  00403D25: 85 C0              test        eax,eax
  00403D27: 75 16              jne         00403D3F
  00403D29: 53                 push        ebx
  00403D2A: FF 15 04 81 40 00  call        dword ptr ds:[00408104h]
  00403D30: 83 F8 FF           cmp         eax,0FFFFFFFFh
  00403D33: 74 04              je          00403D39
  00403D35: A8 10              test        al,10h
  00403D37: 75 06              jne         00403D3F
  00403D39: 53                 push        ebx
  00403D3A: E8 1E 21 00 00     call        00405E5D
  00403D3F: 53                 push        ebx
  00403D40: E8 CC 20 00 00     call        00405E11
  00403D45: 50                 push        eax
  00403D46: 55                 push        ebp
  00403D47: E8 F0 27 00 00     call        0040653C
  00403D4C: 55                 push        ebp
  00403D4D: E8 C7 21 00 00     call        00405F19
  00403D52: 85 C0              test        eax,eax
  00403D54: 75 0C              jne         00403D62
  00403D56: FF B6 18 01 00 00  push        dword ptr [esi+00000118h]
  00403D5C: 55                 push        ebp
  00403D5D: E8 17 28 00 00     call        00406579
  00403D62: 68 40 80 00 00     push        8040h
  00403D67: 57                 push        edi
  00403D68: 57                 push        edi
  00403D69: 6A 01              push        1
  00403D6B: 6A 67              push        67h
  00403D6D: FF 35 60 A2 42 00  push        dword ptr ds:[0042A260h]
  00403D73: FF 15 6C 82 40 00  call        dword ptr ds:[0040826Ch]
  00403D79: A3 48 92 42 00     mov         dword ptr ds:[00429248h],eax
  00403D7E: 83 7E 50 FF        cmp         dword ptr [esi+50h],0FFFFFFFFh
  00403D82: BB 00 92 42 00     mov         ebx,429200h
  00403D87: 74 7F              je          00403E08
  00403D89: 8B 0D 60 A2 42 00  mov         ecx,dword ptr ds:[0042A260h]
  00403D8F: BE B4 A3 40 00     mov         esi,40A3B4h
  00403D94: 53                 push        ebx
  00403D95: C7 05 04 92 42 00  mov         dword ptr ds:[00429204h],401000h
            00 10 40 00
  00403D9F: 89 0D 10 92 42 00  mov         dword ptr ds:[00429210h],ecx
  00403DA5: A3 14 92 42 00     mov         dword ptr ds:[00429214h],eax
  00403DAA: 89 35 24 92 42 00  mov         dword ptr ds:[00429224h],esi
  00403DB0: FF 15 1C 82 40 00  call        dword ptr ds:[0040821Ch]
  00403DB6: 66 85 C0           test        ax,ax
  00403DB9: 0F 84 18 01 00 00  je          00403ED7
  00403DBF: 8D 44 24 10        lea         eax,[esp+10h]
  00403DC3: 57                 push        edi
  00403DC4: 50                 push        eax
  00403DC5: 57                 push        edi
  00403DC6: 6A 30              push        30h
  00403DC8: FF 15 20 82 40 00  call        dword ptr ds:[00408220h]
  00403DCE: 57                 push        edi
  00403DCF: FF 35 60 A2 42 00  push        dword ptr ds:[0042A260h]
  00403DD5: 8B 44 24 24        mov         eax,dword ptr [esp+24h]
  00403DD9: 2B 44 24 1C        sub         eax,dword ptr [esp+1Ch]
  00403DDD: 57                 push        edi
  00403DDE: 57                 push        edi
  00403DDF: 50                 push        eax
  00403DE0: 8B 44 24 2C        mov         eax,dword ptr [esp+2Ch]
  00403DE4: 2B 44 24 24        sub         eax,dword ptr [esp+24h]
  00403DE8: 50                 push        eax
  00403DE9: FF 74 24 2C        push        dword ptr [esp+2Ch]
  00403DED: FF 74 24 2C        push        dword ptr [esp+2Ch]
  00403DF1: 68 00 00 00 80     push        80000000h
  00403DF6: 57                 push        edi
  00403DF7: 56                 push        esi
  00403DF8: 68 80 00 00 00     push        80h
  00403DFD: FF 15 24 82 40 00  call        dword ptr ds:[00408224h]
  00403E03: A3 28 37 42 00     mov         dword ptr ds:[00423728h],eax
  00403E08: 57                 push        edi
  00403E09: E8 FD D5 FF FF     call        0040140B
  00403E0E: 85 C0              test        eax,eax
  00403E10: 74 08              je          00403E1A
  00403E12: 6A 02              push        2
  00403E14: 58                 pop         eax
  00403E15: E9 BF 00 00 00     jmp         00403ED9
  00403E1A: E8 C2 00 00 00     call        00403EE1
  00403E1F: 39 3D 20 A3 42 00  cmp         dword ptr ds:[0042A320h],edi
  00403E25: 0F 85 83 00 00 00  jne         00403EAE
  00403E2B: 6A 05              push        5
  00403E2D: FF 35 28 37 42 00  push        dword ptr ds:[00423728h]
  00403E33: FF 15 50 82 40 00  call        dword ptr ds:[00408250h]
  00403E39: 68 3C 83 40 00     push        40833Ch
  00403E3E: E8 7E 2A 00 00     call        004068C1
  00403E43: 85 C0              test        eax,eax
  00403E45: 75 0A              jne         00403E51
  00403E47: 68 30 83 40 00     push        408330h
  00403E4C: E8 70 2A 00 00     call        004068C1
  00403E51: 8B 35 28 82 40 00  mov         esi,dword ptr ds:[00408228h]
  00403E57: BD 18 83 40 00     mov         ebp,408318h
  00403E5C: 53                 push        ebx
  00403E5D: 55                 push        ebp
  00403E5E: 57                 push        edi
  00403E5F: FF D6              call        esi
  00403E61: 85 C0              test        eax,eax
  00403E63: 75 16              jne         00403E7B
  00403E65: 53                 push        ebx
  00403E66: 68 04 83 40 00     push        408304h
  00403E6B: 57                 push        edi
  00403E6C: FF D6              call        esi
  00403E6E: 53                 push        ebx
  00403E6F: 89 2D 24 92 42 00  mov         dword ptr ds:[00429224h],ebp
  00403E75: FF 15 1C 82 40 00  call        dword ptr ds:[0040821Ch]
  00403E7B: A1 40 92 42 00     mov         eax,dword ptr ds:[00429240h]
  00403E80: 57                 push        edi
  00403E81: 83 C0 69           add         eax,69h
  00403E84: 68 B9 3F 40 00     push        403FB9h
  00403E89: 0F B7 C0           movzx       eax,ax
  00403E8C: 57                 push        edi
  00403E8D: 50                 push        eax
  00403E8E: FF 35 60 A2 42 00  push        dword ptr ds:[0042A260h]
  00403E94: FF 15 2C 82 40 00  call        dword ptr ds:[0040822Ch]
  00403E9A: 6A 05              push        5
  00403E9C: 8B F0              mov         esi,eax
  00403E9E: E8 68 D5 FF FF     call        0040140B
  00403EA3: 6A 01              push        1
  00403EA5: E8 B1 FC FF FF     call        00403B5B
  00403EAA: 8B C6              mov         eax,esi
  00403EAC: EB 2B              jmp         00403ED9
  00403EAE: 57                 push        edi
  00403EAF: E8 C3 17 00 00     call        00405677
  00403EB4: 85 C0              test        eax,eax
  00403EB6: 74 18              je          00403ED0
  00403EB8: 39 3D 2C 92 42 00  cmp         dword ptr ds:[0042922Ch],edi
  00403EBE: 0F 85 4E FF FF FF  jne         00403E12
  00403EC4: 6A 02              push        2
  00403EC6: E8 40 D5 FF FF     call        0040140B
  00403ECB: E9 42 FF FF FF     jmp         00403E12
  00403ED0: 6A 01              push        1
  00403ED2: E8 34 D5 FF FF     call        0040140B
  00403ED7: 33 C0              xor         eax,eax
  00403ED9: 5F                 pop         edi
  00403EDA: 5E                 pop         esi
  00403EDB: 5D                 pop         ebp
  00403EDC: 5B                 pop         ebx
  00403EDD: 83 C4 10           add         esp,10h
  00403EE0: C3                 ret
  00403EE1: 53                 push        ebx
  00403EE2: 55                 push        ebp
  00403EE3: 56                 push        esi
  00403EE4: 57                 push        edi
  00403EE5: BF 00 70 43 00     mov         edi,437000h
  00403EEA: BB FF FF 00 00     mov         ebx,0FFFFh
  00403EEF: 57                 push        edi
  00403EF0: E8 A7 25 00 00     call        0040649C
  00403EF5: 8B 35 C4 A2 42 00  mov         esi,dword ptr ds:[0042A2C4h]
  00403EFB: 85 F6              test        esi,esi
  00403EFD: 74 45              je          00403F44
  00403EFF: 8B 0D 74 A2 42 00  mov         ecx,dword ptr ds:[0042A274h]
  00403F05: 8B 49 64           mov         ecx,dword ptr [ecx+64h]
  00403F08: 8B D1              mov         edx,ecx
  00403F0A: 0F AF CE           imul        ecx,esi
  00403F0D: F7 DA              neg         edx
  00403F0F: 03 0D C0 A2 42 00  add         ecx,dword ptr ds:[0042A2C0h]
  00403F15: 03 CA              add         ecx,edx
  00403F17: 4E                 dec         esi
  00403F18: 66 8B 29           mov         bp,word ptr [ecx]
  00403F1B: 66 33 E8           xor         bp,ax
  00403F1E: 23 EB              and         ebp,ebx
  00403F20: 66 85 ED           test        bp,bp
  00403F23: 74 06              je          00403F2B
  00403F25: 85 F6              test        esi,esi
  00403F27: 75 EC              jne         00403F15
  00403F29: EB 19              jmp         00403F44
  00403F2B: 8B 51 02           mov         edx,dword ptr [ecx+2]
  00403F2E: 89 15 40 92 42 00  mov         dword ptr ds:[00429240h],edx
  00403F34: 8B 51 06           mov         edx,dword ptr [ecx+6]
  00403F37: 89 15 28 A3 42 00  mov         dword ptr ds:[0042A328h],edx
  00403F3D: 8D 51 0A           lea         edx,[ecx+0Ah]
  00403F40: 85 D2              test        edx,edx
  00403F42: 75 12              jne         00403F56
  00403F44: 66 81 FB FF FF     cmp         bx,0FFFFh
  00403F49: 75 07              jne         00403F52
  00403F4B: BB FF 03 00 00     mov         ebx,3FFh
  00403F50: EB A3              jmp         00403EF5
  00403F52: 33 DB              xor         ebx,ebx
  00403F54: EB 9F              jmp         00403EF5
  00403F56: 89 15 3C 92 42 00  mov         dword ptr ds:[0042923Ch],edx
  00403F5C: 0F B7 01           movzx       eax,word ptr [ecx]
  00403F5F: 50                 push        eax
  00403F60: 57                 push        edi
  00403F61: E8 1D 25 00 00     call        00406483
  00403F66: E8 2F 00 00 00     call        00403F9A
  00403F6B: A1 AC A2 42 00     mov         eax,dword ptr ds:[0042A2ACh]
  00403F70: 8B 35 A8 A2 42 00  mov         esi,dword ptr ds:[0042A2A8h]
  00403F76: 85 C0              test        eax,eax
  00403F78: 74 1B              je          00403F95
  00403F7A: 8B F8              mov         edi,eax
  00403F7C: 8B 06              mov         eax,dword ptr [esi]
  00403F7E: 85 C0              test        eax,eax
  00403F80: 74 0A              je          00403F8C
  00403F82: 50                 push        eax
  00403F83: 8D 46 18           lea         eax,[esi+18h]
  00403F86: 50                 push        eax
  00403F87: E8 ED 25 00 00     call        00406579
  00403F8C: 81 C6 18 08 00 00  add         esi,818h
  00403F92: 4F                 dec         edi
  00403F93: 75 E7              jne         00403F7C
  00403F95: 5F                 pop         edi
  00403F96: 5E                 pop         esi
  00403F97: 5D                 pop         ebp
  00403F98: 5B                 pop         ebx
  00403F99: C3                 ret
  00403F9A: 56                 push        esi
  00403F9B: BE 60 92 42 00     mov         esi,429260h
  00403FA0: 6A FE              push        0FFFFFFFEh
  00403FA2: 56                 push        esi
  00403FA3: E8 D1 25 00 00     call        00406579
  00403FA8: 56                 push        esi
  00403FA9: FF 35 28 37 42 00  push        dword ptr ds:[00423728h]
  00403FAF: FF 15 44 82 40 00  call        dword ptr ds:[00408244h]
  00403FB5: 8B C6              mov         eax,esi
  00403FB7: 5E                 pop         esi
  00403FB8: C3                 ret
  00403FB9: 83 EC 10           sub         esp,10h
  00403FBC: B9 10 01 00 00     mov         ecx,110h
  00403FC1: 53                 push        ebx
  00403FC2: 8B 5C 24 1C        mov         ebx,dword ptr [esp+1Ch]
  00403FC6: 55                 push        ebp
  00403FC7: 56                 push        esi
  00403FC8: 3B D9              cmp         ebx,ecx
  00403FCA: 57                 push        edi
  00403FCB: 0F 84 3B 01 00 00  je          0040410C
  00403FD1: 81 FB 08 04 00 00  cmp         ebx,408h
  00403FD7: 0F 84 2F 01 00 00  je          0040410C
  00403FDD: 8B 7C 24 24        mov         edi,dword ptr [esp+24h]
  00403FE1: 33 ED              xor         ebp,ebp
  00403FE3: 83 FB 47           cmp         ebx,47h
  00403FE6: 75 13              jne         00403FFB
  00403FE8: 6A 13              push        13h
  00403FEA: 55                 push        ebp
  00403FEB: 55                 push        ebp
  00403FEC: 55                 push        ebp
  00403FED: 55                 push        ebp
  00403FEE: 57                 push        edi
  00403FEF: FF 35 28 37 42 00  push        dword ptr ds:[00423728h]
  00403FF5: FF 15 FC 81 40 00  call        dword ptr ds:[004081FCh]
  00403FFB: 83 FB 05           cmp         ebx,5
  00403FFE: 75 18              jne         00404018
  00404000: 8B 44 24 2C        mov         eax,dword ptr [esp+2Ch]
  00404004: 48                 dec         eax
  00404005: F7 D8              neg         eax
  00404007: 1B C0              sbb         eax,eax
  00404009: 23 C3              and         eax,ebx
  0040400B: 50                 push        eax
  0040400C: FF 35 28 37 42 00  push        dword ptr ds:[00423728h]
  00404012: FF 15 50 82 40 00  call        dword ptr ds:[00408250h]
  00404018: 81 FB 0D 04 00 00  cmp         ebx,40Dh
  0040401E: 75 1A              jne         0040403A
  00404020: FF 35 38 92 42 00  push        dword ptr ds:[00429238h]
  00404026: FF 15 38 82 40 00  call        dword ptr ds:[00408238h]
  0040402C: 8B 44 24 2C        mov         eax,dword ptr [esp+2Ch]
  00404030: A3 38 92 42 00     mov         dword ptr ds:[00429238h],eax
  00404035: E9 02 04 00 00     jmp         0040443C
  0040403A: 83 FB 11           cmp         ebx,11h
  0040403D: 75 11              jne         00404050
  0040403F: 55                 push        ebp
  00404040: 55                 push        ebp
  00404041: 57                 push        edi
  00404042: FF 15 68 82 40 00  call        dword ptr ds:[00408268h]
  00404048: 33 C0              xor         eax,eax
  0040404A: 40                 inc         eax
  0040404B: E9 11 04 00 00     jmp         00404461
  00404050: 81 FB 11 01 00 00  cmp         ebx,111h
  00404056: 0F 85 9D 00 00 00  jne         004040F9
  0040405C: 0F B7 74 24 2C     movzx       esi,word ptr [esp+2Ch]
  00404061: 56                 push        esi
  00404062: 57                 push        edi
  00404063: FF 15 64 82 40 00  call        dword ptr ds:[00408264h]
  00404069: 8B F8              mov         edi,eax
  0040406B: 3B FD              cmp         edi,ebp
  0040406D: 74 1D              je          0040408C
  0040406F: 55                 push        ebp
  00404070: 55                 push        ebp
  00404071: 68 F3 00 00 00     push        0F3h
  00404076: 57                 push        edi
  00404077: FF 15 80 82 40 00  call        dword ptr ds:[00408280h]
  0040407D: 57                 push        edi
  0040407E: FF 15 A0 81 40 00  call        dword ptr ds:[004081A0h]
  00404084: 85 C0              test        eax,eax
  00404086: 0F 84 D3 03 00 00  je          0040445F
  0040408C: 83 FE 01           cmp         esi,1
  0040408F: 75 03              jne         00404094
  00404091: 56                 push        esi
  00404092: EB 2E              jmp         004040C2
  00404094: 83 FE 03           cmp         esi,3
  00404097: 75 0C              jne         004040A5
  00404099: 39 2D 9C A3 40 00  cmp         dword ptr ds:[0040A39Ch],ebp
  0040409F: 7E 3F              jle         004040E0
  004040A1: 6A FF              push        0FFFFFFFFh
  004040A3: EB 1D              jmp         004040C2
  004040A5: 6A 02              push        2
  004040A7: 5F                 pop         edi
  004040A8: 3B F7              cmp         esi,edi
  004040AA: 75 34              jne         004040E0
  004040AC: 39 2D 0C A3 42 00  cmp         dword ptr ds:[0042A30Ch],ebp
  004040B2: 74 15              je          004040C9
  004040B4: 57                 push        edi
  004040B5: E8 51 D3 FF FF     call        0040140B
  004040BA: 89 3D 18 1F 42 00  mov         dword ptr ds:[00421F18h],edi
  004040C0: 6A 78              push        78h
  004040C2: E8 A4 03 00 00     call        0040446B
  004040C7: EB 30              jmp         004040F9
  004040C9: 6A 03              push        3
  004040CB: E8 3B D3 FF FF     call        0040140B
  004040D0: 85 C0              test        eax,eax
  004040D2: 75 25              jne         004040F9
  004040D4: C7 05 18 1F 42 00  mov         dword ptr ds:[00421F18h],1
            01 00 00 00
  004040DE: EB E0              jmp         004040C0
  004040E0: FF 74 24 30        push        dword ptr [esp+30h]
  004040E4: FF 74 24 30        push        dword ptr [esp+30h]
  004040E8: 68 11 01 00 00     push        111h
  004040ED: FF 35 38 92 42 00  push        dword ptr ds:[00429238h]
  004040F3: FF 15 80 82 40 00  call        dword ptr ds:[00408280h]
  004040F9: FF 74 24 30        push        dword ptr [esp+30h]
  004040FD: FF 74 24 30        push        dword ptr [esp+30h]
  00404101: 53                 push        ebx
  00404102: E8 F2 03 00 00     call        004044F9
  00404107: E9 55 03 00 00     jmp         00404461
  0040410C: 8B 44 24 2C        mov         eax,dword ptr [esp+2Ch]
  00404110: 8B 7C 24 24        mov         edi,dword ptr [esp+24h]
  00404114: 3B D9              cmp         ebx,ecx
  00404116: A3 30 37 42 00     mov         dword ptr ds:[00423730h],eax
  0040411B: 75 4D              jne         0040416A
  0040411D: 8B 35 64 82 40 00  mov         esi,dword ptr ds:[00408264h]
  00404123: 6A 01              push        1
  00404125: 57                 push        edi
  00404126: 89 3D 68 A2 42 00  mov         dword ptr ds:[0042A268h],edi
  0040412C: FF D6              call        esi
  0040412E: 6A 02              push        2
  00404130: 57                 push        edi
  00404131: A3 44 37 42 00     mov         dword ptr ds:[00423744h],eax
  00404136: FF D6              call        esi
  00404138: 6A FF              push        0FFFFFFFFh
  0040413A: 6A 1C              push        1Ch
  0040413C: 57                 push        edi
  0040413D: A3 10 17 42 00     mov         dword ptr ds:[00421710h],eax
  00404142: E8 4B 03 00 00     call        00404492
  00404147: FF 35 48 92 42 00  push        dword ptr ds:[00429248h]
  0040414D: 6A F2              push        0FFFFFFF2h
  0040414F: 57                 push        edi
  00404150: FF 15 04 82 40 00  call        dword ptr ds:[00408204h]
  00404156: 6A 04              push        4
  00404158: E8 AE D2 FF FF     call        0040140B
  0040415D: A3 2C 92 42 00     mov         dword ptr ds:[0042922Ch],eax
  00404162: 33 C0              xor         eax,eax
  00404164: 40                 inc         eax
  00404165: A3 30 37 42 00     mov         dword ptr ds:[00423730h],eax
  0040416A: 8B 0D 9C A3 40 00  mov         ecx,dword ptr ds:[0040A39Ch]
  00404170: 33 ED              xor         ebp,ebp
  00404172: 8B F1              mov         esi,ecx
  00404174: C1 E6 06           shl         esi,6
  00404177: 03 35 A0 A2 42 00  add         esi,dword ptr ds:[0042A2A0h]
  0040417D: 3B CD              cmp         ecx,ebp
  0040417F: 7C 3E              jl          004041BF
  00404181: 83 F8 01           cmp         eax,1
  00404184: 75 31              jne         004041B7
  00404186: 55                 push        ebp
  00404187: FF 76 10           push        dword ptr [esi+10h]
  0040418A: E8 FA D1 FF FF     call        00401389
  0040418F: 85 C0              test        eax,eax
  00404191: 74 24              je          004041B7
  00404193: 6A 01              push        1
  00404195: 55                 push        ebp
  00404196: 68 0F 04 00 00     push        40Fh
  0040419B: FF 35 38 92 42 00  push        dword ptr ds:[00429238h]
  004041A1: FF 15 80 82 40 00  call        dword ptr ds:[00408280h]
  004041A7: 33 C0              xor         eax,eax
  004041A9: 39 2D 2C 92 42 00  cmp         dword ptr ds:[0042922Ch],ebp
  004041AF: 0F 94 C0           sete        al
  004041B2: E9 AA 02 00 00     jmp         00404461
  004041B7: 39 2E              cmp         dword ptr [esi],ebp
  004041B9: 0F 84 A0 02 00 00  je          0040445F
  004041BF: 68 0B 04 00 00     push        40Bh
  004041C4: E8 15 03 00 00     call        004044DE
  004041C9: A1 30 37 42 00     mov         eax,dword ptr ds:[00423730h]
  004041CE: 01 05 9C A3 40 00  add         dword ptr ds:[0040A39Ch],eax
  004041D4: C1 E0 06           shl         eax,6
  004041D7: 03 F0              add         esi,eax
  004041D9: A1 9C A3 40 00     mov         eax,dword ptr ds:[0040A39Ch]
  004041DE: 3B 05 A4 A2 42 00  cmp         eax,dword ptr ds:[0042A2A4h]
  004041E4: 75 07              jne         004041ED
  004041E6: 6A 01              push        1
  004041E8: E8 1E D2 FF FF     call        0040140B
  004041ED: 39 2D 2C 92 42 00  cmp         dword ptr ds:[0042922Ch],ebp
  004041F3: 0F 85 24 02 00 00  jne         0040441D
  004041F9: A1 A4 A2 42 00     mov         eax,dword ptr ds:[0042A2A4h]
  004041FE: 39 05 9C A3 40 00  cmp         dword ptr ds:[0040A39Ch],eax
  00404204: 0F 83 13 02 00 00  jae         0040441D
  0040420A: FF 76 24           push        dword ptr [esi+24h]
  0040420D: 8B 5E 14           mov         ebx,dword ptr [esi+14h]
  00404210: 68 00 A0 43 00     push        43A000h
  00404215: E8 5F 23 00 00     call        00406579
  0040421A: FF 76 20           push        dword ptr [esi+20h]
  0040421D: 68 19 FC FF FF     push        0FFFFFC19h
  00404222: 57                 push        edi
  00404223: E8 6A 02 00 00     call        00404492
  00404228: FF 76 1C           push        dword ptr [esi+1Ch]
  0040422B: 68 1B FC FF FF     push        0FFFFFC1Bh
  00404230: 57                 push        edi
  00404231: E8 5C 02 00 00     call        00404492
  00404236: FF 76 28           push        dword ptr [esi+28h]
  00404239: 68 1A FC FF FF     push        0FFFFFC1Ah
  0040423E: 57                 push        edi
  0040423F: E8 4E 02 00 00     call        00404492
  00404244: 6A 03              push        3
  00404246: 57                 push        edi
  00404247: FF 15 64 82 40 00  call        dword ptr ds:[00408264h]
  0040424D: 39 2D 0C A3 42 00  cmp         dword ptr ds:[0042A30Ch],ebp
  00404253: 89 44 24 2C        mov         dword ptr [esp+2Ch],eax
  00404257: 74 08              je          00404261
  00404259: 66 81 E3 FD FE     and         bx,0FEFDh
  0040425E: 83 CB 04           or          ebx,4
  00404261: 8B CB              mov         ecx,ebx
  00404263: 83 E1 08           and         ecx,8
  00404266: 51                 push        ecx
  00404267: 50                 push        eax
  00404268: FF 15 50 82 40 00  call        dword ptr ds:[00408250h]
  0040426E: 8B C3              mov         eax,ebx
  00404270: 25 00 01 00 00     and         eax,100h
  00404275: 50                 push        eax
  00404276: FF 74 24 30        push        dword ptr [esp+30h]
  0040427A: FF 15 78 82 40 00  call        dword ptr ds:[00408278h]
  00404280: 8B C3              mov         eax,ebx
  00404282: 83 E0 02           and         eax,2
  00404285: 50                 push        eax
  00404286: E8 29 02 00 00     call        004044B4
  0040428B: 83 E3 04           and         ebx,4
  0040428E: 53                 push        ebx
  0040428F: FF 35 10 17 42 00  push        dword ptr ds:[00421710h]
  00404295: FF 15 78 82 40 00  call        dword ptr ds:[00408278h]
  0040429B: 3B DD              cmp         ebx,ebp
  0040429D: 74 03              je          004042A2
  0040429F: 55                 push        ebp
  004042A0: EB 02              jmp         004042A4
  004042A2: 6A 01              push        1
  004042A4: 68 60 F0 00 00     push        0F060h
  004042A9: 55                 push        ebp
  004042AA: 57                 push        edi
  004042AB: FF 15 08 82 40 00  call        dword ptr ds:[00408208h]
  004042B1: 50                 push        eax
  004042B2: FF 15 0C 82 40 00  call        dword ptr ds:[0040820Ch]
  004042B8: 8B 1D 80 82 40 00  mov         ebx,dword ptr ds:[00408280h]
  004042BE: 6A 01              push        1
  004042C0: 55                 push        ebp
  004042C1: 68 F4 00 00 00     push        0F4h
  004042C6: FF 74 24 38        push        dword ptr [esp+38h]
  004042CA: FF D3              call        ebx
  004042CC: 39 2D 0C A3 42 00  cmp         dword ptr ds:[0042A30Ch],ebp
  004042D2: 74 13              je          004042E7
  004042D4: 55                 push        ebp
  004042D5: 6A 02              push        2
  004042D7: 68 01 04 00 00     push        401h
  004042DC: 57                 push        edi
  004042DD: FF D3              call        ebx
  004042DF: FF 35 10 17 42 00  push        dword ptr ds:[00421710h]
  004042E5: EB 06              jmp         004042ED
  004042E7: FF 35 44 37 42 00  push        dword ptr ds:[00423744h]
  004042ED: E8 D5 01 00 00     call        004044C7
  004042F2: E8 A3 FC FF FF     call        00403F9A
  004042F7: BB 48 37 42 00     mov         ebx,423748h
  004042FC: 50                 push        eax
  004042FD: 53                 push        ebx
  004042FE: E8 39 22 00 00     call        0040653C
  00404303: FF 76 18           push        dword ptr [esi+18h]
  00404306: 53                 push        ebx
  00404307: E8 46 22 00 00     call        00406552
  0040430C: 8D 04 45 48 37 42  lea         eax,[eax*2+00423748h]
            00
  00404313: 50                 push        eax
  00404314: E8 60 22 00 00     call        00406579
  00404319: 53                 push        ebx
  0040431A: 57                 push        edi
  0040431B: FF 15 44 82 40 00  call        dword ptr ds:[00408244h]
  00404321: 55                 push        ebp
  00404322: FF 76 08           push        dword ptr [esi+8]
  00404325: E8 5F D0 FF FF     call        00401389
  0040432A: 85 C0              test        eax,eax
  0040432C: 0F 85 97 FE FF FF  jne         004041C9
  00404332: 39 2E              cmp         dword ptr [esi],ebp
  00404334: 0F 84 8F FE FF FF  je          004041C9
  0040433A: 83 7E 04 05        cmp         dword ptr [esi+4],5
  0040433E: 75 1D              jne         0040435D
  00404340: 39 2D 0C A3 42 00  cmp         dword ptr ds:[0042A30Ch],ebp
  00404346: 0F 85 13 01 00 00  jne         0040445F
  0040434C: 39 2D 00 A3 42 00  cmp         dword ptr ds:[0042A300h],ebp
  00404352: 0F 85 71 FE FF FF  jne         004041C9
  00404358: E9 02 01 00 00     jmp         0040445F
  0040435D: FF 35 38 92 42 00  push        dword ptr ds:[00429238h]
  00404363: FF 15 38 82 40 00  call        dword ptr ds:[00408238h]
  00404369: 89 35 20 27 42 00  mov         dword ptr ds:[00422720h],esi
  0040436F: 39 2E              cmp         dword ptr [esi],ebp
  00404371: 0F 8E C5 00 00 00  jle         0040443C
  00404377: 8B 46 04           mov         eax,dword ptr [esi+4]
  0040437A: 56                 push        esi
  0040437B: FF 34 85 A0 A3 40  push        dword ptr [eax*4+0040A3A0h]
            00
  00404382: 66 8B 06           mov         ax,word ptr [esi]
  00404385: 66 03 05 40 92 42  add         ax,word ptr ds:[00429240h]
            00
  0040438C: 57                 push        edi
  0040438D: 0F B7 C0           movzx       eax,ax
  00404390: 50                 push        eax
  00404391: FF 35 60 A2 42 00  push        dword ptr ds:[0042A260h]
  00404397: FF 15 3C 82 40 00  call        dword ptr ds:[0040823Ch]
  0040439D: 3B C5              cmp         eax,ebp
  0040439F: A3 38 92 42 00     mov         dword ptr ds:[00429238h],eax
  004043A4: 0F 84 92 00 00 00  je          0040443C
  004043AA: FF 76 2C           push        dword ptr [esi+2Ch]
  004043AD: 6A 06              push        6
  004043AF: 50                 push        eax
  004043B0: E8 DD 00 00 00     call        00404492
  004043B5: 8D 44 24 10        lea         eax,[esp+10h]
  004043B9: 50                 push        eax
  004043BA: 68 FA 03 00 00     push        3FAh
  004043BF: 57                 push        edi
  004043C0: FF 15 64 82 40 00  call        dword ptr ds:[00408264h]
  004043C6: 50                 push        eax
  004043C7: FF 15 10 82 40 00  call        dword ptr ds:[00408210h]
  004043CD: 8D 44 24 10        lea         eax,[esp+10h]
  004043D1: 50                 push        eax
  004043D2: 57                 push        edi
  004043D3: FF 15 14 82 40 00  call        dword ptr ds:[00408214h]
  004043D9: 6A 15              push        15h
  004043DB: 55                 push        ebp
  004043DC: 55                 push        ebp
  004043DD: FF 74 24 20        push        dword ptr [esp+20h]
  004043E1: FF 74 24 20        push        dword ptr [esp+20h]
  004043E5: 55                 push        ebp
  004043E6: FF 35 38 92 42 00  push        dword ptr ds:[00429238h]
  004043EC: FF 15 FC 81 40 00  call        dword ptr ds:[004081FCh]
  004043F2: 55                 push        ebp
  004043F3: FF 76 0C           push        dword ptr [esi+0Ch]
  004043F6: E8 8E CF FF FF     call        00401389
  004043FB: 39 2D 2C 92 42 00  cmp         dword ptr ds:[0042922Ch],ebp
  00404401: 75 5C              jne         0040445F
  00404403: 6A 08              push        8
  00404405: FF 35 38 92 42 00  push        dword ptr ds:[00429238h]
  0040440B: FF 15 50 82 40 00  call        dword ptr ds:[00408250h]
  00404411: 68 05 04 00 00     push        405h
  00404416: E8 C3 00 00 00     call        004044DE
  0040441B: EB 1F              jmp         0040443C
  0040441D: FF 35 38 92 42 00  push        dword ptr ds:[00429238h]
  00404423: FF 15 38 82 40 00  call        dword ptr ds:[00408238h]
  00404429: FF 35 18 1F 42 00  push        dword ptr ds:[00421F18h]
  0040442F: 89 2D 68 A2 42 00  mov         dword ptr ds:[0042A268h],ebp
  00404435: 57                 push        edi
  00404436: FF 15 18 82 40 00  call        dword ptr ds:[00408218h]
  0040443C: 39 2D 48 57 42 00  cmp         dword ptr ds:[00425748h],ebp
  00404442: 75 1B              jne         0040445F
  00404444: 39 2D 38 92 42 00  cmp         dword ptr ds:[00429238h],ebp
  0040444A: 74 13              je          0040445F
  0040444C: 6A 0A              push        0Ah
  0040444E: 57                 push        edi
  0040444F: FF 15 50 82 40 00  call        dword ptr ds:[00408250h]
  00404455: C7 05 48 57 42 00  mov         dword ptr ds:[00425748h],1
            01 00 00 00
  0040445F: 33 C0              xor         eax,eax
  00404461: 5F                 pop         edi
  00404462: 5E                 pop         esi
  00404463: 5D                 pop         ebp
  00404464: 5B                 pop         ebx
  00404465: 83 C4 10           add         esp,10h
  00404468: C2 10 00           ret         10h
  0040446B: 83 7C 24 04 78     cmp         dword ptr [esp+4],78h
  00404470: 75 06              jne         00404478
  00404472: FF 05 2C 92 42 00  inc         dword ptr ds:[0042922Ch]
  00404478: 6A 00              push        0
  0040447A: FF 74 24 08        push        dword ptr [esp+8]
  0040447E: 68 08 04 00 00     push        408h
  00404483: FF 35 68 A2 42 00  push        dword ptr ds:[0042A268h]
  00404489: FF 15 80 82 40 00  call        dword ptr ds:[00408280h]
  0040448F: C2 04 00           ret         4
  00404492: FF 74 24 0C        push        dword ptr [esp+0Ch]
  00404496: 6A 00              push        0
  00404498: E8 DC 20 00 00     call        00406579
  0040449D: 50                 push        eax
  0040449E: 8B 44 24 0C        mov         eax,dword ptr [esp+0Ch]
  004044A2: 05 E8 03 00 00     add         eax,3E8h
  004044A7: 50                 push        eax
  004044A8: FF 74 24 0C        push        dword ptr [esp+0Ch]
  004044AC: E8 CF 16 00 00     call        00405B80
  004044B1: C2 0C 00           ret         0Ch
  004044B4: FF 74 24 04        push        dword ptr [esp+4]
  004044B8: FF 35 44 37 42 00  push        dword ptr ds:[00423744h]
  004044BE: FF 15 78 82 40 00  call        dword ptr ds:[00408278h]
  004044C4: C2 04 00           ret         4
  004044C7: 6A 01              push        1
  004044C9: FF 74 24 08        push        dword ptr [esp+8]
  004044CD: 6A 28              push        28h
  004044CF: FF 35 68 A2 42 00  push        dword ptr ds:[0042A268h]
  004044D5: FF 15 80 82 40 00  call        dword ptr ds:[00408280h]
  004044DB: C2 04 00           ret         4
  004044DE: A1 38 92 42 00     mov         eax,dword ptr ds:[00429238h]
  004044E3: 85 C0              test        eax,eax
  004044E5: 74 0F              je          004044F6
  004044E7: 6A 00              push        0
  004044E9: 6A 00              push        0
  004044EB: FF 74 24 0C        push        dword ptr [esp+0Ch]
  004044EF: 50                 push        eax
  004044F0: FF 15 80 82 40 00  call        dword ptr ds:[00408280h]
  004044F6: C2 04 00           ret         4
  004044F9: 55                 push        ebp
  004044FA: 8B EC              mov         ebp,esp
  004044FC: 83 EC 0C           sub         esp,0Ch
  004044FF: 8B 45 08           mov         eax,dword ptr [ebp+8]
  00404502: 56                 push        esi
  00404503: 05 CD FE FF FF     add         eax,0FFFFFECDh
  00404508: 83 F8 05           cmp         eax,5
  0040450B: 0F 87 B0 00 00 00  ja          004045C1
  00404511: 6A EB              push        0FFFFFFEBh
  00404513: FF 75 10           push        dword ptr [ebp+10h]
  00404516: FF 15 F4 81 40 00  call        dword ptr ds:[004081F4h]
  0040451C: 8B F0              mov         esi,eax
  0040451E: 85 F6              test        esi,esi
  00404520: 0F 84 9B 00 00 00  je          004045C1
  00404526: 83 7E 08 01        cmp         dword ptr [esi+8],1
  0040452A: 0F 87 91 00 00 00  ja          004045C1
  00404530: 83 7E 10 02        cmp         dword ptr [esi+10h],2
  00404534: 0F 87 87 00 00 00  ja          004045C1
  0040453A: 8B 4E 14           mov         ecx,dword ptr [esi+14h]
  0040453D: F7 C1 E0 FF FF FF  test        ecx,0FFFFFFE0h
  00404543: 75 7C              jne         004045C1
  00404545: 8B 06              mov         eax,dword ptr [esi]
  00404547: 57                 push        edi
  00404548: 8B 3D F8 81 40 00  mov         edi,dword ptr ds:[004081F8h]
  0040454E: F6 C1 02           test        cl,2
  00404551: 74 03              je          00404556
  00404553: 50                 push        eax
  00404554: FF D7              call        edi
  00404556: F6 46 14 01        test        byte ptr [esi+14h],1
  0040455A: 74 0A              je          00404566
  0040455C: 50                 push        eax
  0040455D: FF 75 0C           push        dword ptr [ebp+0Ch]
  00404560: FF 15 64 80 40 00  call        dword ptr ds:[00408064h]
  00404566: FF 76 10           push        dword ptr [esi+10h]
  00404569: FF 75 0C           push        dword ptr [ebp+0Ch]
  0040456C: FF 15 4C 80 40 00  call        dword ptr ds:[0040804Ch]
  00404572: 8B 46 04           mov         eax,dword ptr [esi+4]
  00404575: F6 46 14 08        test        byte ptr [esi+14h],8
  00404579: 89 45 F8           mov         dword ptr [ebp-8],eax
  0040457C: 74 06              je          00404584
  0040457E: 50                 push        eax
  0040457F: FF D7              call        edi
  00404581: 89 45 F8           mov         dword ptr [ebp-8],eax
  00404584: F6 46 14 04        test        byte ptr [esi+14h],4
  00404588: 5F                 pop         edi
  00404589: 74 0A              je          00404595
  0040458B: 50                 push        eax
  0040458C: FF 75 0C           push        dword ptr [ebp+0Ch]
  0040458F: FF 15 50 80 40 00  call        dword ptr ds:[00408050h]
  00404595: F6 46 14 10        test        byte ptr [esi+14h],10h
  00404599: 74 21              je          004045BC
  0040459B: 8B 46 08           mov         eax,dword ptr [esi+8]
  0040459E: 89 45 F4           mov         dword ptr [ebp-0Ch],eax
  004045A1: 8B 46 0C           mov         eax,dword ptr [esi+0Ch]
  004045A4: 85 C0              test        eax,eax
  004045A6: 74 07              je          004045AF
  004045A8: 50                 push        eax
  004045A9: FF 15 60 80 40 00  call        dword ptr ds:[00408060h]
  004045AF: 8D 45 F4           lea         eax,[ebp-0Ch]
  004045B2: 50                 push        eax
  004045B3: FF 15 5C 80 40 00  call        dword ptr ds:[0040805Ch]
  004045B9: 89 46 0C           mov         dword ptr [esi+0Ch],eax
  004045BC: 8B 46 0C           mov         eax,dword ptr [esi+0Ch]
  004045BF: EB 02              jmp         004045C3
  004045C1: 33 C0              xor         eax,eax
  004045C3: 5E                 pop         esi
  004045C4: C9                 leave
  004045C5: C2 0C 00           ret         0Ch
  004045C8: 55                 push        ebp
  004045C9: 8B EC              mov         ebp,esp
  004045CB: 8B 45 10           mov         eax,dword ptr [ebp+10h]
  004045CE: 8B 0D 14 17 42 00  mov         ecx,dword ptr ds:[00421714h]
  004045D4: D1 E8              shr         eax,1
  004045D6: 50                 push        eax
  004045D7: 8B 45 08           mov         eax,dword ptr [ebp+8]
  004045DA: 03 C8              add         ecx,eax
  004045DC: 51                 push        ecx
  004045DD: FF 75 0C           push        dword ptr [ebp+0Ch]
  004045E0: FF 15 C0 80 40 00  call        dword ptr ds:[004080C0h]
  004045E6: FF 75 0C           push        dword ptr [ebp+0Ch]
  004045E9: FF 15 C4 80 40 00  call        dword ptr ds:[004080C4h]
  004045EF: 8B 4D 14           mov         ecx,dword ptr [ebp+14h]
  004045F2: 03 C0              add         eax,eax
  004045F4: 89 01              mov         dword ptr [ecx],eax
  004045F6: 01 05 14 17 42 00  add         dword ptr ds:[00421714h],eax
  004045FC: 33 C0              xor         eax,eax
  004045FE: 5D                 pop         ebp
  004045FF: C2 10 00           ret         10h
  00404602: 55                 push        ebp
  00404603: 8B EC              mov         ebp,esp
  00404605: A1 14 17 42 00     mov         eax,dword ptr ds:[00421714h]
  0040460A: 56                 push        esi
  0040460B: 8B 75 08           mov         esi,dword ptr [ebp+8]
  0040460E: 8D 04 46           lea         eax,[esi+eax*2]
  00404611: 50                 push        eax
  00404612: FF 15 C4 80 40 00  call        dword ptr ds:[004080C4h]
  00404618: 8B 4D 10           mov         ecx,dword ptr [ebp+10h]
  0040461B: D1 E9              shr         ecx,1
  0040461D: 3B C1              cmp         eax,ecx
  0040461F: 72 02              jb          00404623
  00404621: 8B C1              mov         eax,ecx
  00404623: 33 C9              xor         ecx,ecx
  00404625: 51                 push        ecx
  00404626: 51                 push        ecx
  00404627: FF 75 10           push        dword ptr [ebp+10h]
  0040462A: FF 75 0C           push        dword ptr [ebp+0Ch]
  0040462D: 50                 push        eax
  0040462E: A1 14 17 42 00     mov         eax,dword ptr ds:[00421714h]
  00404633: 8D 04 46           lea         eax,[esi+eax*2]
  00404636: 50                 push        eax
  00404637: 51                 push        ecx
  00404638: 51                 push        ecx
  00404639: FF 15 BC 80 40 00  call        dword ptr ds:[004080BCh]
  0040463F: 8B 4D 14           mov         ecx,dword ptr [ebp+14h]
  00404642: 5E                 pop         esi
  00404643: 89 01              mov         dword ptr [ecx],eax
  00404645: 01 05 14 17 42 00  add         dword ptr ds:[00421714h],eax
  0040464B: 33 C0              xor         eax,eax
  0040464D: 5D                 pop         ebp
  0040464E: C2 10 00           ret         10h
  00404651: 55                 push        ebp
  00404652: 8B EC              mov         ebp,esp
  00404654: 83 EC 0C           sub         esp,0Ch
  00404657: 53                 push        ebx
  00404658: 33 DB              xor         ebx,ebx
  0040465A: 81 7D 0C 10 01 00  cmp         dword ptr [ebp+0Ch],110h
            00
  00404661: 56                 push        esi
  00404662: 57                 push        edi
  00404663: 0F 85 1A 01 00 00  jne         00404783
  00404669: 8B 7D 14           mov         edi,dword ptr [ebp+14h]
  0040466C: 8B 47 30           mov         eax,dword ptr [edi+30h]
  0040466F: 3B C3              cmp         eax,ebx
  00404671: 7D 11              jge         00404684
  00404673: 8B 0D 3C 92 42 00  mov         ecx,dword ptr ds:[0042923Ch]
  00404679: 8D 04 85 04 00 00  lea         eax,[eax*4+00000004h]
            00
  00404680: 2B C8              sub         ecx,eax
  00404682: 8B 01              mov         eax,dword ptr [ecx]
  00404684: 8B 0D B8 A2 42 00  mov         ecx,dword ptr ds:[0042A2B8h]
  0040468A: 8D 04 41           lea         eax,[ecx+eax*2]
  0040468D: 0F B7 08           movzx       ecx,word ptr [eax]
  00404690: 40                 inc         eax
  00404691: 89 4D 0C           mov         dword ptr [ebp+0Ch],ecx
  00404694: 40                 inc         eax
  00404695: 83 F9 02           cmp         ecx,2
  00404698: 89 45 14           mov         dword ptr [ebp+14h],eax
  0040469B: 89 45 F4           mov         dword ptr [ebp-0Ch],eax
  0040469E: 89 5D F8           mov         dword ptr [ebp-8],ebx
  004046A1: C7 45 FC 02 46 40  mov         dword ptr [ebp-4],404602h
            00
  004046A8: 74 07              je          004046B1
  004046AA: C7 45 FC C8 45 40  mov         dword ptr [ebp-4],4045C8h
            00
  004046B1: 8B 47 14           mov         eax,dword ptr [edi+14h]
  004046B4: FF 77 34           push        dword ptr [edi+34h]
  004046B7: 8B F0              mov         esi,eax
  004046B9: 83 E0 01           and         eax,1
  004046BC: F7 D6              not         esi
  004046BE: C1 EE 05           shr         esi,5
  004046C1: 6A 22              push        22h
  004046C3: 83 E6 01           and         esi,1
  004046C6: FF 75 08           push        dword ptr [ebp+8]
  004046C9: 0B F0              or          esi,eax
  004046CB: E8 C2 FD FF FF     call        00404492
  004046D0: FF 77 38           push        dword ptr [edi+38h]
  004046D3: 6A 23              push        23h
  004046D5: FF 75 08           push        dword ptr [ebp+8]
  004046D8: E8 B5 FD FF FF     call        00404492
  004046DD: 33 C0              xor         eax,eax
  004046DF: 3B F3              cmp         esi,ebx
  004046E1: 0F 94 C0           sete        al
  004046E4: 05 0A 04 00 00     add         eax,40Ah
  004046E9: 6A 01              push        1
  004046EB: 50                 push        eax
  004046EC: FF 75 08           push        dword ptr [ebp+8]
  004046EF: FF 15 E8 81 40 00  call        dword ptr ds:[004081E8h]
  004046F5: 56                 push        esi
  004046F6: E8 B9 FD FF FF     call        004044B4
  004046FB: 68 E8 03 00 00     push        3E8h
  00404700: FF 75 08           push        dword ptr [ebp+8]
  00404703: FF 15 64 82 40 00  call        dword ptr ds:[00408264h]
  00404709: 8B F8              mov         edi,eax
  0040470B: 57                 push        edi
  0040470C: E8 B6 FD FF FF     call        004044C7
  00404711: 8B 35 80 82 40 00  mov         esi,dword ptr ds:[00408280h]
  00404717: 53                 push        ebx
  00404718: 6A 01              push        1
  0040471A: 68 5B 04 00 00     push        45Bh
  0040471F: 57                 push        edi
  00404720: FF D6              call        esi
  00404722: A1 74 A2 42 00     mov         eax,dword ptr ds:[0042A274h]
  00404727: 8B 40 68           mov         eax,dword ptr [eax+68h]
  0040472A: 3B C3              cmp         eax,ebx
  0040472C: 7D 09              jge         00404737
  0040472E: F7 D8              neg         eax
  00404730: 50                 push        eax
  00404731: FF 15 F8 81 40 00  call        dword ptr ds:[004081F8h]
  00404737: 50                 push        eax
  00404738: 53                 push        ebx
  00404739: 68 43 04 00 00     push        443h
  0040473E: 57                 push        edi
  0040473F: FF D6              call        esi
  00404741: 68 00 00 01 04     push        4010000h
  00404746: 53                 push        ebx
  00404747: 68 45 04 00 00     push        445h
  0040474C: 57                 push        edi
  0040474D: FF D6              call        esi
  0040474F: FF 75 14           push        dword ptr [ebp+14h]
  00404752: E8 FB 1D 00 00     call        00406552
  00404757: 50                 push        eax
  00404758: 53                 push        ebx
  00404759: 68 35 04 00 00     push        435h
  0040475E: 57                 push        edi
  0040475F: FF D6              call        esi
  00404761: 8D 45 F4           lea         eax,[ebp-0Ch]
  00404764: 89 1D 14 17 42 00  mov         dword ptr ds:[00421714h],ebx
  0040476A: 50                 push        eax
  0040476B: FF 75 0C           push        dword ptr [ebp+0Ch]
  0040476E: 68 49 04 00 00     push        449h
  00404773: 57                 push        edi
  00404774: FF D6              call        esi
  00404776: 89 1D 14 17 42 00  mov         dword ptr ds:[00421714h],ebx
  0040477C: 33 C0              xor         eax,eax
  0040477E: E9 52 01 00 00     jmp         004048D5
  00404783: 81 7D 0C 11 01 00  cmp         dword ptr [ebp+0Ch],111h
            00
  0040478A: 8B 35 80 82 40 00  mov         esi,dword ptr ds:[00408280h]
  00404790: 75 5B              jne         004047ED
  00404792: 8B 45 10           mov         eax,dword ptr [ebp+10h]
  00404795: C1 E8 10           shr         eax,10h
  00404798: 66 85 C0           test        ax,ax
  0040479B: 0F 85 25 01 00 00  jne         004048C6
  004047A1: 39 1D 14 17 42 00  cmp         dword ptr ds:[00421714h],ebx
  004047A7: 0F 85 19 01 00 00  jne         004048C6
  004047AD: A1 20 27 42 00     mov         eax,dword ptr ds:[00422720h]
  004047B2: 8D 78 14           lea         edi,[eax+14h]
  004047B5: F6 07 20           test        byte ptr [edi],20h
  004047B8: 0F 84 08 01 00 00  je          004048C6
  004047BE: 53                 push        ebx
  004047BF: 53                 push        ebx
  004047C0: 68 F0 00 00 00     push        0F0h
  004047C5: 68 0A 04 00 00     push        40Ah
  004047CA: FF 75 08           push        dword ptr [ebp+8]
  004047CD: FF 15 64 82 40 00  call        dword ptr ds:[00408264h]
  004047D3: 50                 push        eax
  004047D4: FF D6              call        esi
  004047D6: 8B 0F              mov         ecx,dword ptr [edi]
  004047D8: 83 E0 01           and         eax,1
  004047DB: 83 E1 FE           and         ecx,0FFFFFFFEh
  004047DE: 50                 push        eax
  004047DF: 0B C8              or          ecx,eax
  004047E1: 89 0F              mov         dword ptr [edi],ecx
  004047E3: E8 CC FC FF FF     call        004044B4
  004047E8: E8 EF 00 00 00     call        004048DC
  004047ED: 83 7D 0C 4E        cmp         dword ptr [ebp+0Ch],4Eh
  004047F1: 0F 85 C0 00 00 00  jne         004048B7
  004047F7: 68 E8 03 00 00     push        3E8h
  004047FC: FF 75 08           push        dword ptr [ebp+8]
  004047FF: FF 15 64 82 40 00  call        dword ptr ds:[00408264h]
  00404805: 8B 7D 14           mov         edi,dword ptr [ebp+14h]
  00404808: 81 7F 08 0B 07 00  cmp         dword ptr [edi+8],70Bh
            00
  0040480F: 75 67              jne         00404878
  00404811: 81 7F 0C 01 02 00  cmp         dword ptr [edi+0Ch],201h
            00
  00404818: 75 5E              jne         00404878
  0040481A: 8B 4F 1C           mov         ecx,dword ptr [edi+1Ch]
  0040481D: 8B 57 18           mov         edx,dword ptr [edi+18h]
  00404820: 89 4D F8           mov         dword ptr [ebp-8],ecx
  00404823: 2B CA              sub         ecx,edx
  00404825: 81 F9 00 08 00 00  cmp         ecx,800h
  0040482B: 89 55 F4           mov         dword ptr [ebp-0Ch],edx
  0040482E: C7 45 FC 00 82 42  mov         dword ptr [ebp-4],428200h
            00
  00404835: 73 41              jae         00404878
  00404837: 8D 4D F4           lea         ecx,[ebp-0Ch]
  0040483A: 51                 push        ecx
  0040483B: 53                 push        ebx
  0040483C: 68 4B 04 00 00     push        44Bh
  00404841: 50                 push        eax
  00404842: FF D6              call        esi
  00404844: 8B 3D EC 81 40 00  mov         edi,dword ptr ds:[004081ECh]
  0040484A: 68 02 7F 00 00     push        7F02h
  0040484F: 53                 push        ebx
  00404850: FF D7              call        edi
  00404852: 50                 push        eax
  00404853: FF 15 F0 81 40 00  call        dword ptr ds:[004081F0h]
  00404859: 6A 01              push        1
  0040485B: FF 75 FC           push        dword ptr [ebp-4]
  0040485E: FF 75 08           push        dword ptr [ebp+8]
  00404861: E8 9A 00 00 00     call        00404900
  00404866: 68 00 7F 00 00     push        7F00h
  0040486B: 53                 push        ebx
  0040486C: FF D7              call        edi
  0040486E: 50                 push        eax
  0040486F: FF 15 F0 81 40 00  call        dword ptr ds:[004081F0h]
  00404875: 8B 7D 14           mov         edi,dword ptr [ebp+14h]
  00404878: 81 7F 08 00 07 00  cmp         dword ptr [edi+8],700h
            00
  0040487F: 75 48              jne         004048C9
  00404881: 81 7F 0C 00 01 00  cmp         dword ptr [edi+0Ch],100h
            00
  00404888: 75 3F              jne         004048C9
  0040488A: 83 7F 10 0D        cmp         dword ptr [edi+10h],0Dh
  0040488E: 75 10              jne         004048A0
  00404890: 53                 push        ebx
  00404891: 6A 01              push        1
  00404893: 68 11 01 00 00     push        111h
  00404898: FF 35 68 A2 42 00  push        dword ptr ds:[0042A268h]
  0040489E: FF D6              call        esi
  004048A0: 83 7F 10 1B        cmp         dword ptr [edi+10h],1Bh
  004048A4: 75 0C              jne         004048B2
  004048A6: 53                 push        ebx
  004048A7: 53                 push        ebx
  004048A8: 6A 10              push        10h
  004048AA: FF 35 68 A2 42 00  push        dword ptr ds:[0042A268h]
  004048B0: FF D6              call        esi
  004048B2: 33 C0              xor         eax,eax
  004048B4: 40                 inc         eax
  004048B5: EB 1E              jmp         004048D5
  004048B7: 81 7D 0C 0B 04 00  cmp         dword ptr [ebp+0Ch],40Bh
            00
  004048BE: 75 06              jne         004048C6
  004048C0: FF 05 14 17 42 00  inc         dword ptr ds:[00421714h]
  004048C6: 8B 7D 14           mov         edi,dword ptr [ebp+14h]
  004048C9: 57                 push        edi
  004048CA: FF 75 10           push        dword ptr [ebp+10h]
  004048CD: FF 75 0C           push        dword ptr [ebp+0Ch]
  004048D0: E8 24 FC FF FF     call        004044F9
  004048D5: 5F                 pop         edi
  004048D6: 5E                 pop         esi
  004048D7: 5B                 pop         ebx
  004048D8: C9                 leave
  004048D9: C2 10 00           ret         10h
  004048DC: 83 3D 0C A3 42 00  cmp         dword ptr ds:[0042A30Ch],0
            00
  004048E3: A1 10 17 42 00     mov         eax,dword ptr ds:[00421710h]
  004048E8: 75 05              jne         004048EF
  004048EA: A1 44 37 42 00     mov         eax,dword ptr ds:[00423744h]
  004048EF: 6A 01              push        1
  004048F1: 6A 01              push        1
  004048F3: 68 F4 00 00 00     push        0F4h
  004048F8: 50                 push        eax
  004048F9: FF 15 80 82 40 00  call        dword ptr ds:[00408280h]
  004048FF: C3                 ret
  00404900: 55                 push        ebp
  00404901: 8B EC              mov         ebp,esp
  00404903: 83 EC 3C           sub         esp,3Ch
  00404906: 8B 45 08           mov         eax,dword ptr [ebp+8]
  00404909: 83 65 D8 00        and         dword ptr [ebp-28h],0
  0040490D: 83 65 DC 00        and         dword ptr [ebp-24h],0
  00404911: 89 45 CC           mov         dword ptr [ebp-34h],eax
  00404914: 8B 45 0C           mov         eax,dword ptr [ebp+0Ch]
  00404917: C7 45 C8 00 05 00  mov         dword ptr [ebp-38h],500h
            00
  0040491E: 89 45 D4           mov         dword ptr [ebp-2Ch],eax
  00404921: 8D 45 C4           lea         eax,[ebp-3Ch]
  00404924: 50                 push        eax
  00404925: C7 45 E0 01 00 00  mov         dword ptr [ebp-20h],1
            00
  0040492C: C7 45 D0 C8 A3 40  mov         dword ptr [ebp-30h],40A3C8h
            00
  00404933: E8 30 12 00 00     call        00405B68
  00404938: C9                 leave
  00404939: C2 0C 00           ret         0Ch
  0040493C: 55                 push        ebp
  0040493D: 8B EC              mov         ebp,esp
  0040493F: 81 7D 0C 10 01 00  cmp         dword ptr [ebp+0Ch],110h
            00
  00404946: 56                 push        esi
  00404947: 8B 75 14           mov         esi,dword ptr [ebp+14h]
  0040494A: 75 26              jne         00404972
  0040494C: FF 76 30           push        dword ptr [esi+30h]
  0040494F: 6A 1D              push        1Dh
  00404951: FF 75 08           push        dword ptr [ebp+8]
  00404954: E8 39 FB FF FF     call        00404492
  00404959: 8B 46 3C           mov         eax,dword ptr [esi+3Ch]
  0040495C: C1 E0 0B           shl         eax,0Bh
  0040495F: 05 00 B0 42 00     add         eax,42B000h
  00404964: 50                 push        eax
  00404965: 68 E8 03 00 00     push        3E8h
  0040496A: FF 75 08           push        dword ptr [ebp+8]
  0040496D: E8 0E 12 00 00     call        00405B80
  00404972: 56                 push        esi
  00404973: FF 75 10           push        dword ptr [ebp+10h]
  00404976: FF 75 0C           push        dword ptr [ebp+0Ch]
  00404979: E8 7B FB FF FF     call        004044F9
  0040497E: 5E                 pop         esi
  0040497F: 5D                 pop         ebp
  00404980: C2 10 00           ret         10h
  00404983: 55                 push        ebp
  00404984: 8B EC              mov         ebp,esp
  00404986: 83 EC 4C           sub         esp,4Ch
  00404989: A1 20 27 42 00     mov         eax,dword ptr ds:[00422720h]
  0040498E: 53                 push        ebx
  0040498F: 89 45 E4           mov         dword ptr [ebp-1Ch],eax
  00404992: 56                 push        esi
  00404993: 8B 58 3C           mov         ebx,dword ptr [eax+3Ch]
  00404996: 8B 40 38           mov         eax,dword ptr [eax+38h]
  00404999: C1 E3 0B           shl         ebx,0Bh
  0040499C: 81 C3 00 B0 42 00  add         ebx,42B000h
  004049A2: 81 7D 0C 0B 04 00  cmp         dword ptr [ebp+0Ch],40Bh
            00
  004049A9: 57                 push        edi
  004049AA: 89 45 F8           mov         dword ptr [ebp-8],eax
  004049AD: 75 11              jne         004049C0
  004049AF: 53                 push        ebx
  004049B0: 68 FB 03 00 00     push        3FBh
  004049B5: E8 CC 11 00 00     call        00405B86
  004049BA: 53                 push        ebx
  004049BB: E8 2B 1E 00 00     call        004067EB
  004049C0: 81 7D 0C 10 01 00  cmp         dword ptr [ebp+0Ch],110h
            00
  004049C7: 8B 75 08           mov         esi,dword ptr [ebp+8]
  004049CA: 75 6C              jne         00404A38
  004049CC: 68 FB 03 00 00     push        3FBh
  004049D1: 56                 push        esi
  004049D2: FF 15 64 82 40 00  call        dword ptr ds:[00408264h]
  004049D8: 53                 push        ebx
  004049D9: 8B F8              mov         edi,eax
  004049DB: E8 A8 14 00 00     call        00405E88
  004049E0: 85 C0              test        eax,eax
  004049E2: 74 10              je          004049F4
  004049E4: 53                 push        ebx
  004049E5: E8 D2 14 00 00     call        00405EBC
  004049EA: 85 C0              test        eax,eax
  004049EC: 75 06              jne         004049F4
  004049EE: 53                 push        ebx
  004049EF: E8 1D 14 00 00     call        00405E11
  004049F4: 53                 push        ebx
  004049F5: 57                 push        edi
  004049F6: 89 35 38 92 42 00  mov         dword ptr ds:[00429238h],esi
  004049FC: FF 15 44 82 40 00  call        dword ptr ds:[00408244h]
  00404A02: 8B 45 14           mov         eax,dword ptr [ebp+14h]
  00404A05: FF 70 34           push        dword ptr [eax+34h]
  00404A08: 6A 01              push        1
  00404A0A: 56                 push        esi
  00404A0B: E8 82 FA FF FF     call        00404492
  00404A10: 8B 45 14           mov         eax,dword ptr [ebp+14h]
  00404A13: FF 70 30           push        dword ptr [eax+30h]
  00404A16: 6A 14              push        14h
  00404A18: 56                 push        esi
  00404A19: E8 74 FA FF FF     call        00404492
  00404A1E: 57                 push        edi
  00404A1F: E8 A3 FA FF FF     call        004044C7
  00404A24: 6A 08              push        8
  00404A26: E8 06 1F 00 00     call        00406931
  00404A2B: 85 C0              test        eax,eax
  00404A2D: 0F 84 91 02 00 00  je          00404CC4
  00404A33: 6A 01              push        1
  00404A35: 57                 push        edi
  00404A36: FF D0              call        eax
  00404A38: 81 7D 0C 11 01 00  cmp         dword ptr [ebp+0Ch],111h
            00
  00404A3F: 0F 85 D1 00 00 00  jne         00404B16
  00404A45: 0F B7 45 10        movzx       eax,word ptr [ebp+10h]
  00404A49: 3D FB 03 00 00     cmp         eax,3FBh
  00404A4E: 75 18              jne         00404A68
  00404A50: 8B 4D 10           mov         ecx,dword ptr [ebp+10h]
  00404A53: C1 E9 10           shr         ecx,10h
  00404A56: 66 81 F9 00 03     cmp         cx,300h
  00404A5B: 0F 85 63 02 00 00  jne         00404CC4
  00404A61: C7 45 0C 0F 04 00  mov         dword ptr [ebp+0Ch],40Fh
            00
  00404A68: 3D E9 03 00 00     cmp         eax,3E9h
  00404A6D: 0F 85 A3 00 00 00  jne         00404B16
  00404A73: 6A 07              push        7
  00404A75: 33 C0              xor         eax,eax
  00404A77: 59                 pop         ecx
  00404A78: 8D 7D B8           lea         edi,[ebp-48h]
  00404A7B: FF 75 F8           push        dword ptr [ebp-8]
  00404A7E: F3 AB              rep stos    dword ptr es:[edi]
  00404A80: BF 48 37 42 00     mov         edi,423748h
  00404A85: 68 20 1F 42 00     push        421F20h
  00404A8A: 89 75 B4           mov         dword ptr [ebp-4Ch],esi
  00404A8D: 89 7D BC           mov         dword ptr [ebp-44h],edi
  00404A90: C7 45 C8 D9 4C 40  mov         dword ptr [ebp-38h],404CD9h
            00
  00404A97: 89 5D CC           mov         dword ptr [ebp-34h],ebx
  00404A9A: E8 DA 1A 00 00     call        00406579
  00404A9F: 89 45 C0           mov         dword ptr [ebp-40h],eax
  00404AA2: 8D 45 B4           lea         eax,[ebp-4Ch]
  00404AA5: 50                 push        eax
  00404AA6: C7 45 C4 41 00 00  mov         dword ptr [ebp-3Ch],41h
            00
  00404AAD: FF 15 80 81 40 00  call        dword ptr ds:[00408180h]
  00404AB3: 85 C0              test        eax,eax
  00404AB5: 74 58              je          00404B0F
  00404AB7: 50                 push        eax
  00404AB8: FF 15 A8 82 40 00  call        dword ptr ds:[004082A8h]
  00404ABE: 53                 push        ebx
  00404ABF: E8 4D 13 00 00     call        00405E11
  00404AC4: A1 74 A2 42 00     mov         eax,dword ptr ds:[0042A274h]
  00404AC9: 8B 80 1C 01 00 00  mov         eax,dword ptr [eax+0000011Ch]
  00404ACF: 85 C0              test        eax,eax
  00404AD1: 74 28              je          00404AFB
  00404AD3: 81 FB 00 58 43 00  cmp         ebx,435800h
  00404AD9: 75 20              jne         00404AFB
  00404ADB: 50                 push        eax
  00404ADC: 6A 00              push        0
  00404ADE: E8 96 1A 00 00     call        00406579
  00404AE3: 57                 push        edi
  00404AE4: BF 00 82 42 00     mov         edi,428200h
  00404AE9: 57                 push        edi
  00404AEA: FF 15 28 81 40 00  call        dword ptr ds:[00408128h]
  00404AF0: 85 C0              test        eax,eax
  00404AF2: 74 07              je          00404AFB
  00404AF4: 57                 push        edi
  00404AF5: 53                 push        ebx
  00404AF6: E8 5D 1A 00 00     call        00406558
  00404AFB: FF 05 38 37 42 00  inc         dword ptr ds:[00423738h]
  00404B01: 53                 push        ebx
  00404B02: 68 FB 03 00 00     push        3FBh
  00404B07: 56                 push        esi
  00404B08: E8 73 10 00 00     call        00405B80
  00404B0D: EB 07              jmp         00404B16
  00404B0F: C7 45 0C 0F 04 00  mov         dword ptr [ebp+0Ch],40Fh
            00
  00404B16: 81 7D 0C 0F 04 00  cmp         dword ptr [ebp+0Ch],40Fh
            00
  00404B1D: 74 0D              je          00404B2C
  00404B1F: 81 7D 0C 05 04 00  cmp         dword ptr [ebp+0Ch],405h
            00
  00404B26: 0F 85 98 01 00 00  jne         00404CC4
  00404B2C: 83 65 FC 00        and         dword ptr [ebp-4],0
  00404B30: 83 65 F8 00        and         dword ptr [ebp-8],0
  00404B34: 53                 push        ebx
  00404B35: 68 FB 03 00 00     push        3FBh
  00404B3A: E8 47 10 00 00     call        00405B86
  00404B3F: 53                 push        ebx
  00404B40: E8 D4 13 00 00     call        00405F19
  00404B45: 85 C0              test        eax,eax
  00404B47: 75 07              jne         00404B50
  00404B49: C7 45 FC 01 00 00  mov         dword ptr [ebp-4],1
            00
  00404B50: BE 18 17 42 00     mov         esi,421718h
  00404B55: 53                 push        ebx
  00404B56: 56                 push        esi
  00404B57: E8 E0 19 00 00     call        0040653C
  00404B5C: 6A 01              push        1
  00404B5E: E8 CE 1D 00 00     call        00406931
  00404B63: 85 C0              test        eax,eax
  00404B65: 89 45 F4           mov         dword ptr [ebp-0Ch],eax
  00404B68: 74 3A              je          00404BA4
  00404B6A: 33 C0              xor         eax,eax
  00404B6C: 33 FF              xor         edi,edi
  00404B6E: 3B C6              cmp         eax,esi
  00404B70: 74 32              je          00404BA4
  00404B72: 8D 45 DC           lea         eax,[ebp-24h]
  00404B75: 50                 push        eax
  00404B76: 8D 45 E8           lea         eax,[ebp-18h]
  00404B79: 50                 push        eax
  00404B7A: 8D 45 D4           lea         eax,[ebp-2Ch]
  00404B7D: 50                 push        eax
  00404B7E: 56                 push        esi
  00404B7F: FF 55 F4           call        dword ptr [ebp-0Ch]
  00404B82: 85 C0              test        eax,eax
  00404B84: 75 76              jne         00404BFC
  00404B86: 85 FF              test        edi,edi
  00404B88: 74 03              je          00404B8D
  00404B8A: 66 21 07           and         word ptr [edi],ax
  00404B8D: 56                 push        esi
  00404B8E: E8 CA 12 00 00     call        00405E5D
  00404B93: 8B F8              mov         edi,eax
  00404B95: 66 83 27 00        and         word ptr [edi],0
  00404B99: 4F                 dec         edi
  00404B9A: 4F                 dec         edi
  00404B9B: 3B FE              cmp         edi,esi
  00404B9D: 66 C7 07 5C 00     mov         word ptr [edi],5Ch
  00404BA2: 75 CE              jne         00404B72
  00404BA4: 53                 push        ebx
  00404BA5: 56                 push        esi
  00404BA6: E8 91 19 00 00     call        0040653C
  00404BAB: 56                 push        esi
  00404BAC: E8 0B 13 00 00     call        00405EBC
  00404BB1: 33 FF              xor         edi,edi
  00404BB3: 3B C7              cmp         eax,edi
  00404BB5: 74 03              je          00404BBA
  00404BB7: 66 89 38           mov         word ptr [eax],di
  00404BBA: 8D 45 E0           lea         eax,[ebp-20h]
  00404BBD: 50                 push        eax
  00404BBE: 8D 45 F4           lea         eax,[ebp-0Ch]
  00404BC1: 50                 push        eax
  00404BC2: 8D 45 EC           lea         eax,[ebp-14h]
  00404BC5: 50                 push        eax
  00404BC6: 8D 45 F0           lea         eax,[ebp-10h]
  00404BC9: 50                 push        eax
  00404BCA: 56                 push        esi
  00404BCB: FF 15 B8 80 40 00  call        dword ptr ds:[004080B8h]
  00404BD1: 85 C0              test        eax,eax
  00404BD3: 74 43              je          00404C18
  00404BD5: 8B 45 F0           mov         eax,dword ptr [ebp-10h]
  00404BD8: BE 00 04 00 00     mov         esi,400h
  00404BDD: 0F AF 45 EC        imul        eax,dword ptr [ebp-14h]
  00404BE1: 56                 push        esi
  00404BE2: FF 75 F4           push        dword ptr [ebp-0Ch]
  00404BE5: 50                 push        eax
  00404BE6: FF 15 FC 80 40 00  call        dword ptr ds:[004080FCh]
  00404BEC: 99                 cdq
  00404BED: 89 45 D4           mov         dword ptr [ebp-2Ch],eax
  00404BF0: 89 55 D8           mov         dword ptr [ebp-28h],edx
  00404BF3: C7 45 F8 01 00 00  mov         dword ptr [ebp-8],1
            00
  00404BFA: EB 21              jmp         00404C1D
  00404BFC: 8B 45 D4           mov         eax,dword ptr [ebp-2Ch]
  00404BFF: 8B 4D D8           mov         ecx,dword ptr [ebp-28h]
  00404C02: 0F AC C8 0A        shrd        eax,ecx,0Ah
  00404C06: C1 E9 0A           shr         ecx,0Ah
  00404C09: 89 45 D4           mov         dword ptr [ebp-2Ch],eax
  00404C0C: 89 4D D8           mov         dword ptr [ebp-28h],ecx
  00404C0F: C7 45 F8 01 00 00  mov         dword ptr [ebp-8],1
            00
  00404C16: 33 FF              xor         edi,edi
  00404C18: BE 00 04 00 00     mov         esi,400h
  00404C1D: 6A 05              push        5
  00404C1F: E8 FC 01 00 00     call        00404E20
  00404C24: 39 7D F8           cmp         dword ptr [ebp-8],edi
  00404C27: 74 19              je          00404C42
  00404C29: 8B 55 D8           mov         edx,dword ptr [ebp-28h]
  00404C2C: 33 C9              xor         ecx,ecx
  00404C2E: 3B D1              cmp         edx,ecx
  00404C30: 77 10              ja          00404C42
  00404C32: 72 07              jb          00404C3B
  00404C34: 8B 4D D4           mov         ecx,dword ptr [ebp-2Ch]
  00404C37: 3B C8              cmp         ecx,eax
  00404C39: 73 07              jae         00404C42
  00404C3B: C7 45 FC 02 00 00  mov         dword ptr [ebp-4],2
            00
  00404C42: 8B 0D 3C 92 42 00  mov         ecx,dword ptr ds:[0042923Ch]
  00404C48: 39 79 10           cmp         dword ptr [ecx+10h],edi
  00404C4B: 74 30              je          00404C7D
  00404C4D: 50                 push        eax
  00404C4E: 6A FB              push        0FFFFFFFBh
  00404C50: 68 FF 03 00 00     push        3FFh
  00404C55: E8 AE 01 00 00     call        00404E08
  00404C5A: 39 7D F8           cmp         dword ptr [ebp-8],edi
  00404C5D: 74 10              je          00404C6F
  00404C5F: FF 75 D8           push        dword ptr [ebp-28h]
  00404C62: FF 75 D4           push        dword ptr [ebp-2Ch]
  00404C65: 6A FC              push        0FFFFFFFCh
  00404C67: 56                 push        esi
  00404C68: E8 D2 00 00 00     call        00404D3F
  00404C6D: EB 0E              jmp         00404C7D
  00404C6F: 68 08 17 42 00     push        421708h
  00404C74: 56                 push        esi
  00404C75: FF 75 08           push        dword ptr [ebp+8]
  00404C78: E8 03 0F 00 00     call        00405B80
  00404C7D: 8B 45 FC           mov         eax,dword ptr [ebp-4]
  00404C80: 3B C7              cmp         eax,edi
  00404C82: A3 24 A3 42 00     mov         dword ptr ds:[0042A324h],eax
  00404C87: 75 0A              jne         00404C93
  00404C89: 6A 07              push        7
  00404C8B: E8 7B C7 FF FF     call        0040140B
  00404C90: 89 45 FC           mov         dword ptr [ebp-4],eax
  00404C93: 8B 45 E4           mov         eax,dword ptr [ebp-1Ch]
  00404C96: 85 70 14           test        dword ptr [eax+14h],esi
  00404C99: 74 03              je          00404C9E
  00404C9B: 89 7D FC           mov         dword ptr [ebp-4],edi
  00404C9E: 33 C0              xor         eax,eax
  00404CA0: 39 7D FC           cmp         dword ptr [ebp-4],edi
  00404CA3: 0F 94 C0           sete        al
  00404CA6: 50                 push        eax
  00404CA7: E8 08 F8 FF FF     call        004044B4
  00404CAC: 39 7D FC           cmp         dword ptr [ebp-4],edi
  00404CAF: 75 0D              jne         00404CBE
  00404CB1: 39 3D 38 37 42 00  cmp         dword ptr ds:[00423738h],edi
  00404CB7: 75 05              jne         00404CBE
  00404CB9: E8 1E FC FF FF     call        004048DC
  00404CBE: 89 3D 38 37 42 00  mov         dword ptr ds:[00423738h],edi
  00404CC4: FF 75 14           push        dword ptr [ebp+14h]
  00404CC7: FF 75 10           push        dword ptr [ebp+10h]
  00404CCA: FF 75 0C           push        dword ptr [ebp+0Ch]
  00404CCD: E8 27 F8 FF FF     call        004044F9
  00404CD2: 5F                 pop         edi
  00404CD3: 5E                 pop         esi
  00404CD4: 5B                 pop         ebx
  00404CD5: C9                 leave
  00404CD6: C2 10 00           ret         10h
  00404CD9: 55                 push        ebp
  00404CDA: 8B EC              mov         ebp,esp
  00404CDC: 83 7D 0C 01        cmp         dword ptr [ebp+0Ch],1
  00404CE0: 56                 push        esi
  00404CE1: 8B 35 80 82 40 00  mov         esi,dword ptr ds:[00408280h]
  00404CE7: 75 1C              jne         00404D05
  00404CE9: FF 75 14           push        dword ptr [ebp+14h]
  00404CEC: 68 FB 03 00 00     push        3FBh
  00404CF1: E8 90 0E 00 00     call        00405B86
  00404CF6: FF 75 14           push        dword ptr [ebp+14h]
  00404CF9: 6A 01              push        1
  00404CFB: 68 67 04 00 00     push        467h
  00404D00: FF 75 08           push        dword ptr [ebp+8]
  00404D03: FF D6              call        esi
  00404D05: 83 7D 0C 02        cmp         dword ptr [ebp+0Ch],2
  00404D09: 75 2D              jne         00404D38
  00404D0B: FF 75 14           push        dword ptr [ebp+14h]
  00404D0E: FF 75 10           push        dword ptr [ebp+10h]
  00404D11: FF 15 84 81 40 00  call        dword ptr ds:[00408184h]
  00404D17: 85 C0              test        eax,eax
  00404D19: 74 0E              je          00404D29
  00404D1B: 6A 07              push        7
  00404D1D: E8 E9 C6 FF FF     call        0040140B
  00404D22: 85 C0              test        eax,eax
  00404D24: 75 03              jne         00404D29
  00404D26: 40                 inc         eax
  00404D27: EB 02              jmp         00404D2B
  00404D29: 33 C0              xor         eax,eax
  00404D2B: 50                 push        eax
  00404D2C: 6A 00              push        0
  00404D2E: 68 65 04 00 00     push        465h
  00404D33: FF 75 08           push        dword ptr [ebp+8]
  00404D36: FF D6              call        esi
  00404D38: 33 C0              xor         eax,eax
  00404D3A: 5E                 pop         esi
  00404D3B: 5D                 pop         ebp
  00404D3C: C2 10 00           ret         10h
  00404D3F: 55                 push        ebp
  00404D40: 8B EC              mov         ebp,esp
  00404D42: 81 EC 80 00 00 00  sub         esp,80h
  00404D48: 8B 45 14           mov         eax,dword ptr [ebp+14h]
  00404D4B: 53                 push        ebx
  00404D4C: 56                 push        esi
  00404D4D: 8B 75 10           mov         esi,dword ptr [ebp+10h]
  00404D50: 57                 push        edi
  00404D51: 6A DC              push        0FFFFFFDCh
  00404D53: 85 C0              test        eax,eax
  00404D55: 5B                 pop         ebx
  00404D56: 74 0B              je          00404D63
  00404D58: 0F AC C6 14        shrd        esi,eax,14h
  00404D5C: C1 E8 14           shr         eax,14h
  00404D5F: 33 FF              xor         edi,edi
  00404D61: EB 4E              jmp         00404DB1
  00404D63: 6A 14              push        14h
  00404D65: 81 FE 00 00 10 00  cmp         esi,100000h
  00404D6B: 59                 pop         ecx
  00404D6C: 8B C6              mov         eax,esi
  00404D6E: 73 06              jae         00404D76
  00404D70: 6A 0A              push        0Ah
  00404D72: 59                 pop         ecx
  00404D73: 6A DD              push        0FFFFFFDDh
  00404D75: 5B                 pop         ebx
  00404D76: 81 FE 00 04 00 00  cmp         esi,400h
  00404D7C: 73 05              jae         00404D83
  00404D7E: 6A DE              push        0FFFFFFDEh
  00404D80: 33 C9              xor         ecx,ecx
  00404D82: 5B                 pop         ebx
  00404D83: 81 FE 33 33 FF FF  cmp         esi,0FFFF3333h
  00404D89: 73 0D              jae         00404D98
  00404D8B: 33 C0              xor         eax,eax
  00404D8D: 6A 14              push        14h
  00404D8F: 40                 inc         eax
  00404D90: 5F                 pop         edi
  00404D91: D3 E0              shl         eax,cl
  00404D93: 99                 cdq
  00404D94: F7 FF              idiv        eax,edi
  00404D96: 03 C6              add         eax,esi
  00404D98: 8B F0              mov         esi,eax
  00404D9A: 25 FF FF FF 00     and         eax,0FFFFFFh
  00404D9F: 6A 0A              push        0Ah
  00404DA1: 33 D2              xor         edx,edx
  00404DA3: 8D 04 80           lea         eax,[eax+eax*4]
  00404DA6: 03 C0              add         eax,eax
  00404DA8: D3 E8              shr         eax,cl
  00404DAA: D3 EE              shr         esi,cl
  00404DAC: 59                 pop         ecx
  00404DAD: F7 F1              div         eax,ecx
  00404DAF: 8B FA              mov         edi,edx
  00404DB1: 8D 45 C0           lea         eax,[ebp-40h]
  00404DB4: 6A DF              push        0FFFFFFDFh
  00404DB6: 50                 push        eax
  00404DB7: E8 BD 17 00 00     call        00406579
  00404DBC: 50                 push        eax
  00404DBD: 8D 45 80           lea         eax,[ebp-80h]
  00404DC0: 53                 push        ebx
  00404DC1: 50                 push        eax
  00404DC2: E8 B2 17 00 00     call        00406579
  00404DC7: 50                 push        eax
  00404DC8: 57                 push        edi
  00404DC9: 56                 push        esi
  00404DCA: 68 D4 A3 40 00     push        40A3D4h
  00404DCF: FF 75 0C           push        dword ptr [ebp+0Ch]
  00404DD2: BE 48 37 42 00     mov         esi,423748h
  00404DD7: 56                 push        esi
  00404DD8: E8 9C 17 00 00     call        00406579
  00404DDD: 56                 push        esi
  00404DDE: 8B F8              mov         edi,eax
  00404DE0: E8 6D 17 00 00     call        00406552
  00404DE5: 8D 04 47           lea         eax,[edi+eax*2]
  00404DE8: 50                 push        eax
  00404DE9: FF 15 54 82 40 00  call        dword ptr ds:[00408254h]
  00404DEF: 83 C4 18           add         esp,18h
  00404DF2: 56                 push        esi
  00404DF3: FF 75 08           push        dword ptr [ebp+8]
  00404DF6: FF 35 38 92 42 00  push        dword ptr ds:[00429238h]
  00404DFC: E8 7F 0D 00 00     call        00405B80
  00404E01: 5F                 pop         edi
  00404E02: 5E                 pop         esi
  00404E03: 5B                 pop         ebx
  00404E04: C9                 leave
  00404E05: C2 10 00           ret         10h
  00404E08: 8B 44 24 0C        mov         eax,dword ptr [esp+0Ch]
  00404E0C: 33 C9              xor         ecx,ecx
  00404E0E: 51                 push        ecx
  00404E0F: 50                 push        eax
  00404E10: FF 74 24 10        push        dword ptr [esp+10h]
  00404E14: FF 74 24 10        push        dword ptr [esp+10h]
  00404E18: E8 22 FF FF FF     call        00404D3F
  00404E1D: C2 0C 00           ret         0Ch
  00404E20: 8B 15 AC A2 42 00  mov         edx,dword ptr ds:[0042A2ACh]
  00404E26: 8B 0D A8 A2 42 00  mov         ecx,dword ptr ds:[0042A2A8h]
  00404E2C: 33 C0              xor         eax,eax
  00404E2E: 85 D2              test        edx,edx
  00404E30: 74 18              je          00404E4A
  00404E32: 56                 push        esi
  00404E33: F6 41 08 01        test        byte ptr [ecx+8],1
  00404E37: 74 07              je          00404E40
  00404E39: 8B 74 24 08        mov         esi,dword ptr [esp+8]
  00404E3D: 03 04 B1           add         eax,dword ptr [ecx+esi*4]
  00404E40: 81 C1 18 08 00 00  add         ecx,818h
  00404E46: 4A                 dec         edx
  00404E47: 75 EA              jne         00404E33
  00404E49: 5E                 pop         esi
  00404E4A: C2 04 00           ret         4
  00404E4D: 55                 push        ebp
  00404E4E: 8B EC              mov         ebp,esp
  00404E50: 83 EC 38           sub         esp,38h
  00404E53: 56                 push        esi
  00404E54: 8B 35 80 82 40 00  mov         esi,dword ptr ds:[00408280h]
  00404E5A: 57                 push        edi
  00404E5B: 8B 7D 08           mov         edi,dword ptr [ebp+8]
  00404E5E: 6A 00              push        0
  00404E60: 6A 09              push        9
  00404E62: 68 0A 11 00 00     push        110Ah
  00404E67: 57                 push        edi
  00404E68: FF D6              call        esi
  00404E6A: 83 7D 0C 00        cmp         dword ptr [ebp+0Ch],0
  00404E6E: 74 3C              je          00404EAC
  00404E70: FF 15 E4 81 40 00  call        dword ptr ds:[004081E4h]
  00404E76: 0F BF C8           movsx       ecx,ax
  00404E79: C1 E8 10           shr         eax,10h
  00404E7C: 0F BF C0           movsx       eax,ax
  00404E7F: 89 45 F4           mov         dword ptr [ebp-0Ch],eax
  00404E82: 8D 45 F0           lea         eax,[ebp-10h]
  00404E85: 50                 push        eax
  00404E86: 57                 push        edi
  00404E87: 89 4D F0           mov         dword ptr [ebp-10h],ecx
  00404E8A: FF 15 14 82 40 00  call        dword ptr ds:[00408214h]
  00404E90: 8D 45 F0           lea         eax,[ebp-10h]
  00404E93: 50                 push        eax
  00404E94: 6A 00              push        0
  00404E96: 68 11 11 00 00     push        1111h
  00404E9B: 57                 push        edi
  00404E9C: FF D6              call        esi
  00404E9E: F6 45 F8 66        test        byte ptr [ebp-8],66h
  00404EA2: 75 05              jne         00404EA9
  00404EA4: 83 C8 FF           or          eax,0FFFFFFFFh
  00404EA7: EB 1E              jmp         00404EC7
  00404EA9: 8B 45 FC           mov         eax,dword ptr [ebp-4]
  00404EAC: 89 45 CC           mov         dword ptr [ebp-34h],eax
  00404EAF: 8D 45 C8           lea         eax,[ebp-38h]
  00404EB2: 50                 push        eax
  00404EB3: 6A 00              push        0
  00404EB5: 68 3E 11 00 00     push        113Eh
  00404EBA: 57                 push        edi
  00404EBB: C7 45 C8 04 00 00  mov         dword ptr [ebp-38h],4
            00
  00404EC2: FF D6              call        esi
  00404EC4: 8B 45 EC           mov         eax,dword ptr [ebp-14h]
  00404EC7: 5F                 pop         edi
  00404EC8: 5E                 pop         esi
  00404EC9: C9                 leave
  00404ECA: C2 08 00           ret         8
  00404ECD: 56                 push        esi
  00404ECE: 57                 push        edi
  00404ECF: BE 00 B0 42 00     mov         esi,42B000h
  00404ED4: BF 48 37 42 00     mov         edi,423748h
  00404ED9: 56                 push        esi
  00404EDA: 57                 push        edi
  00404EDB: E8 5C 16 00 00     call        0040653C
  00404EE0: FF 74 24 10        push        dword ptr [esp+10h]
  00404EE4: 56                 push        esi
  00404EE5: E8 99 15 00 00     call        00406483
  00404EEA: FF 74 24 0C        push        dword ptr [esp+0Ch]
  00404EEE: E8 18 C5 FF FF     call        0040140B
  00404EF3: 57                 push        edi
  00404EF4: 56                 push        esi
  00404EF5: E8 42 16 00 00     call        0040653C
  00404EFA: 5F                 pop         edi
  00404EFB: 5E                 pop         esi
  00404EFC: C2 08 00           ret         8
  00404EFF: 55                 push        ebp
  00404F00: 8B EC              mov         ebp,esp
  00404F02: 83 EC 54           sub         esp,54h
  00404F05: 53                 push        ebx
  00404F06: 56                 push        esi
  00404F07: 8B 35 64 82 40 00  mov         esi,dword ptr ds:[00408264h]
  00404F0D: 57                 push        edi
  00404F0E: 68 F9 03 00 00     push        3F9h
  00404F13: FF 75 08           push        dword ptr [ebp+8]
  00404F16: FF D6              call        esi
  00404F18: 68 08 04 00 00     push        408h
  00404F1D: 89 45 F8           mov         dword ptr [ebp-8],eax
  00404F20: FF 75 08           push        dword ptr [ebp+8]
  00404F23: FF D6              call        esi
  00404F25: 8B 1D A8 A2 42 00  mov         ebx,dword ptr ds:[0042A2A8h]
  00404F2B: 8B 35 80 82 40 00  mov         esi,dword ptr ds:[00408280h]
  00404F31: 89 45 FC           mov         dword ptr [ebp-4],eax
  00404F34: A1 74 A2 42 00     mov         eax,dword ptr ds:[0042A274h]
  00404F39: 05 94 00 00 00     add         eax,94h
  00404F3E: 33 FF              xor         edi,edi
  00404F40: 81 7D 0C 10 01 00  cmp         dword ptr [ebp+0Ch],110h
            00
  00404F47: 89 5D E0           mov         dword ptr [ebp-20h],ebx
  00404F4A: 89 45 EC           mov         dword ptr [ebp-14h],eax
  00404F4D: 0F 85 2D 02 00 00  jne         00405180
  00404F53: 8B 45 08           mov         eax,dword ptr [ebp+8]
  00404F56: 6A 02              push        2
  00404F58: A3 E0 A2 42 00     mov         dword ptr ds:[0042A2E0h],eax
  00404F5D: A1 AC A2 42 00     mov         eax,dword ptr ds:[0042A2ACh]
  00404F62: 5B                 pop         ebx
  00404F63: 89 7D E4           mov         dword ptr [ebp-1Ch],edi
  00404F66: C1 E0 02           shl         eax,2
  00404F69: 50                 push        eax
  00404F6A: 6A 40              push        40h
  00404F6C: 89 5D F0           mov         dword ptr [ebp-10h],ebx
  00404F6F: FF 15 38 81 40 00  call        dword ptr ds:[00408138h]
  00404F75: 57                 push        edi
  00404F76: 57                 push        edi
  00404F77: 57                 push        edi
  00404F78: 57                 push        edi
  00404F79: 6A 6E              push        6Eh
  00404F7B: A3 40 37 42 00     mov         dword ptr ds:[00423740h],eax
  00404F80: FF 35 60 A2 42 00  push        dword ptr ds:[0042A260h]
  00404F86: FF 15 6C 82 40 00  call        dword ptr ds:[0040826Ch]
  00404F8C: 83 0D 34 37 42 00  or          dword ptr ds:[00423734h],0FFFFFFFFh
            FF
  00404F93: 68 18 55 40 00     push        405518h
  00404F98: 6A FC              push        0FFFFFFFCh
  00404F9A: 89 45 F4           mov         dword ptr [ebp-0Ch],eax
  00404F9D: FF 75 FC           push        dword ptr [ebp-4]
  00404FA0: FF 15 68 82 40 00  call        dword ptr ds:[00408268h]
  00404FA6: 57                 push        edi
  00404FA7: 6A 06              push        6
  00404FA9: 6A 21              push        21h
  00404FAB: 6A 10              push        10h
  00404FAD: 6A 10              push        10h
  00404FAF: A3 3C 37 42 00     mov         dword ptr ds:[0042373Ch],eax
  00404FB4: FF 15 3C 80 40 00  call        dword ptr ds:[0040803Ch]
  00404FBA: 68 FF 00 FF 00     push        0FF00FFh
  00404FBF: A3 2C 37 42 00     mov         dword ptr ds:[0042372Ch],eax
  00404FC4: FF 75 F4           push        dword ptr [ebp-0Ch]
  00404FC7: 50                 push        eax
  00404FC8: FF 15 44 80 40 00  call        dword ptr ds:[00408044h]
  00404FCE: FF 35 2C 37 42 00  push        dword ptr ds:[0042372Ch]
  00404FD4: 53                 push        ebx
  00404FD5: 68 09 11 00 00     push        1109h
  00404FDA: FF 75 FC           push        dword ptr [ebp-4]
  00404FDD: FF D6              call        esi
  00404FDF: 57                 push        edi
  00404FE0: 57                 push        edi
  00404FE1: 68 1C 11 00 00     push        111Ch
  00404FE6: FF 75 FC           push        dword ptr [ebp-4]
  00404FE9: FF D6              call        esi
  00404FEB: 83 F8 10           cmp         eax,10h
  00404FEE: 7D 0D              jge         00404FFD
  00404FF0: 57                 push        edi
  00404FF1: 6A 10              push        10h
  00404FF3: 68 1B 11 00 00     push        111Bh
  00404FF8: FF 75 FC           push        dword ptr [ebp-4]
  00404FFB: FF D6              call        esi
  00404FFD: FF 75 F4           push        dword ptr [ebp-0Ch]
  00405000: FF 15 60 80 40 00  call        dword ptr ds:[00408060h]
  00405006: 33 DB              xor         ebx,ebx
  00405008: 8B 45 EC           mov         eax,dword ptr [ebp-14h]
  0040500B: 8B 04 98           mov         eax,dword ptr [eax+ebx*4]
  0040500E: 3B C7              cmp         eax,edi
  00405010: 74 27              je          00405039
  00405012: 83 FB 20           cmp         ebx,20h
  00405015: 74 03              je          0040501A
  00405017: 89 7D F0           mov         dword ptr [ebp-10h],edi
  0040501A: 50                 push        eax
  0040501B: 57                 push        edi
  0040501C: E8 58 15 00 00     call        00406579
  00405021: 50                 push        eax
  00405022: 57                 push        edi
  00405023: 68 43 01 00 00     push        143h
  00405028: FF 75 F8           push        dword ptr [ebp-8]
  0040502B: FF D6              call        esi
  0040502D: 53                 push        ebx
  0040502E: 50                 push        eax
  0040502F: 68 51 01 00 00     push        151h
  00405034: FF 75 F8           push        dword ptr [ebp-8]
  00405037: FF D6              call        esi
  00405039: 43                 inc         ebx
  0040503A: 83 FB 21           cmp         ebx,21h
  0040503D: 7C C9              jl          00405008
  0040503F: 8B 5D 14           mov         ebx,dword ptr [ebp+14h]
  00405042: 8B 45 F0           mov         eax,dword ptr [ebp-10h]
  00405045: FF 74 83 30        push        dword ptr [ebx+eax*4+30h]
  00405049: 6A 15              push        15h
  0040504B: FF 75 08           push        dword ptr [ebp+8]
  0040504E: E8 3F F4 FF FF     call        00404492
  00405053: 8B 45 F0           mov         eax,dword ptr [ebp-10h]
  00405056: FF 74 83 34        push        dword ptr [ebx+eax*4+34h]
  0040505A: 6A 16              push        16h
  0040505C: FF 75 08           push        dword ptr [ebp+8]
  0040505F: E8 2E F4 FF FF     call        00404492
  00405064: 33 DB              xor         ebx,ebx
  00405066: 39 3D AC A2 42 00  cmp         dword ptr ds:[0042A2ACh],edi
  0040506C: 89 7D F4           mov         dword ptr [ebp-0Ch],edi
  0040506F: 0F 8E CA 00 00 00  jle         0040513F
  00405075: 8B 45 E0           mov         eax,dword ptr [ebp-20h]
  00405078: 8D 50 08           lea         edx,[eax+8]
  0040507B: 89 55 E8           mov         dword ptr [ebp-18h],edx
  0040507E: 8D 42 10           lea         eax,[edx+10h]
  00405081: 66 39 38           cmp         word ptr [eax],di
  00405084: 0F 84 97 00 00 00  je          00405121
  0040508A: 8B 4D F4           mov         ecx,dword ptr [ebp-0Ch]
  0040508D: 89 45 C4           mov         dword ptr [ebp-3Ch],eax
  00405090: 8B 02              mov         eax,dword ptr [edx]
  00405092: 6A 20              push        20h
  00405094: 89 4D AC           mov         dword ptr [ebp-54h],ecx
  00405097: 59                 pop         ecx
  00405098: 8B D0              mov         edx,eax
  0040509A: C7 45 B0 02 00 FF  mov         dword ptr [ebp-50h],0FFFF0002h
            FF
  004050A1: 23 D1              and         edx,ecx
  004050A3: C7 45 B4 0D 00 00  mov         dword ptr [ebp-4Ch],0Dh
            00
  004050AA: A8 02              test        al,2
  004050AC: 89 4D C0           mov         dword ptr [ebp-40h],ecx
  004050AF: 89 5D D8           mov         dword ptr [ebp-28h],ebx
  004050B2: 89 55 BC           mov         dword ptr [ebp-44h],edx
  004050B5: 74 3A              je          004050F1
  004050B7: 8D 45 AC           lea         eax,[ebp-54h]
  004050BA: C7 45 B4 4D 00 00  mov         dword ptr [ebp-4Ch],4Dh
            00
  004050C1: 50                 push        eax
  004050C2: 57                 push        edi
  004050C3: 68 32 11 00 00     push        1132h
  004050C8: C7 45 D4 01 00 00  mov         dword ptr [ebp-2Ch],1
            00
  004050CF: FF 75 FC           push        dword ptr [ebp-4]
  004050D2: FF D6              call        esi
  004050D4: 8B 0D 40 37 42 00  mov         ecx,dword ptr ds:[00423740h]
  004050DA: C7 45 E4 01 00 00  mov         dword ptr [ebp-1Ch],1
            00
  004050E1: 89 04 99           mov         dword ptr [ecx+ebx*4],eax
  004050E4: A1 40 37 42 00     mov         eax,dword ptr ds:[00423740h]
  004050E9: 8B 04 98           mov         eax,dword ptr [eax+ebx*4]
  004050EC: 89 45 F4           mov         dword ptr [ebp-0Ch],eax
  004050EF: EB 30              jmp         00405121
  004050F1: A8 04              test        al,4
  004050F3: 74 14              je          00405109
  004050F5: FF 75 F4           push        dword ptr [ebp-0Ch]
  004050F8: 6A 03              push        3
  004050FA: 68 0A 11 00 00     push        110Ah
  004050FF: FF 75 FC           push        dword ptr [ebp-4]
  00405102: FF D6              call        esi
  00405104: 89 45 F4           mov         dword ptr [ebp-0Ch],eax
  00405107: EB 18              jmp         00405121
  00405109: 8D 45 AC           lea         eax,[ebp-54h]
  0040510C: 50                 push        eax
  0040510D: 57                 push        edi
  0040510E: 68 32 11 00 00     push        1132h
  00405113: FF 75 FC           push        dword ptr [ebp-4]
  00405116: FF D6              call        esi
  00405118: 8B 0D 40 37 42 00  mov         ecx,dword ptr ds:[00423740h]
  0040511E: 89 04 99           mov         dword ptr [ecx+ebx*4],eax
  00405121: 8B 55 E8           mov         edx,dword ptr [ebp-18h]
  00405124: 43                 inc         ebx
  00405125: 81 C2 18 08 00 00  add         edx,818h
  0040512B: 3B 1D AC A2 42 00  cmp         ebx,dword ptr ds:[0042A2ACh]
  00405131: 89 55 E8           mov         dword ptr [ebp-18h],edx
  00405134: 0F 8C 44 FF FF FF  jl          0040507E
  0040513A: 39 7D E4           cmp         dword ptr [ebp-1Ch],edi
  0040513D: 75 19              jne         00405158
  0040513F: 6A F0              push        0FFFFFFF0h
  00405141: FF 75 FC           push        dword ptr [ebp-4]
  00405144: FF 15 F4 81 40 00  call        dword ptr ds:[004081F4h]
  0040514A: 24 FB              and         al,0FBh
  0040514C: 50                 push        eax
  0040514D: 6A F0              push        0FFFFFFF0h
  0040514F: FF 75 FC           push        dword ptr [ebp-4]
  00405152: FF 15 68 82 40 00  call        dword ptr ds:[00408268h]
  00405158: 39 7D F0           cmp         dword ptr [ebp-10h],edi
  0040515B: 75 18              jne         00405175
  0040515D: 6A 05              push        5
  0040515F: FF 75 F8           push        dword ptr [ebp-8]
  00405162: FF 15 50 82 40 00  call        dword ptr ds:[00408250h]
  00405168: FF 75 F8           push        dword ptr [ebp-8]
  0040516B: E8 57 F3 FF FF     call        004044C7
  00405170: E9 8E 03 00 00     jmp         00405503
  00405175: FF 75 FC           push        dword ptr [ebp-4]
  00405178: E8 4A F3 FF FF     call        004044C7
  0040517D: 8B 5D E0           mov         ebx,dword ptr [ebp-20h]
  00405180: 81 7D 0C 05 04 00  cmp         dword ptr [ebp+0Ch],405h
            00
  00405187: 75 12              jne         0040519B
  00405189: 33 C9              xor         ecx,ecx
  0040518B: 89 7D 10           mov         dword ptr [ebp+10h],edi
  0040518E: 41                 inc         ecx
  0040518F: C7 45 0C 0F 04 00  mov         dword ptr [ebp+0Ch],40Fh
            00
  00405196: 89 4D 14           mov         dword ptr [ebp+14h],ecx
  00405199: EB 03              jmp         0040519E
  0040519B: 8B 4D 14           mov         ecx,dword ptr [ebp+14h]
  0040519E: 83 7D 0C 4E        cmp         dword ptr [ebp+0Ch],4Eh
  004051A2: B8 13 04 00 00     mov         eax,413h
  004051A7: 74 09              je          004051B2
  004051A9: 39 45 0C           cmp         dword ptr [ebp+0Ch],eax
  004051AC: 0F 85 E4 00 00 00  jne         00405296
  004051B2: 39 45 0C           cmp         dword ptr [ebp+0Ch],eax
  004051B5: 89 4D F4           mov         dword ptr [ebp-0Ch],ecx
  004051B8: 74 0D              je          004051C7
  004051BA: 81 79 04 08 04 00  cmp         dword ptr [ecx+4],408h
            00
  004051C1: 0F 85 CF 00 00 00  jne         00405296
  004051C7: F6 05 7D A2 42 00  test        byte ptr ds:[0042A27Dh],2
            02
  004051CE: 75 76              jne         00405246
  004051D0: 39 45 0C           cmp         dword ptr [ebp+0Ch],eax
  004051D3: 74 09              je          004051DE
  004051D5: 8B 4D 14           mov         ecx,dword ptr [ebp+14h]
  004051D8: 83 79 08 FE        cmp         dword ptr [ecx+8],0FFFFFFFEh
  004051DC: 75 68              jne         00405246
  004051DE: 33 C9              xor         ecx,ecx
  004051E0: 39 45 0C           cmp         dword ptr [ebp+0Ch],eax
  004051E3: 0F 95 C1           setne       cl
  004051E6: 51                 push        ecx
  004051E7: FF 75 FC           push        dword ptr [ebp-4]
  004051EA: E8 5E FC FF FF     call        00404E4D
  004051EF: 3B C7              cmp         eax,edi
  004051F1: 89 45 F0           mov         dword ptr [ebp-10h],eax
  004051F4: 7C 50              jl          00405246
  004051F6: 69 C0 18 08 00 00  imul        eax,eax,818h
  004051FC: 8D 4C 18 08        lea         ecx,[eax+ebx+8]
  00405200: 8B 01              mov         eax,dword ptr [ecx]
  00405202: A8 10              test        al,10h
  00405204: 75 40              jne         00405246
  00405206: A8 40              test        al,40h
  00405208: 74 11              je          0040521B
  0040520A: 35 80 00 00 00     xor         eax,80h
  0040520F: 84 C0              test        al,al
  00405211: 79 04              jns         00405217
  00405213: 0C 01              or          al,1
  00405215: EB 07              jmp         0040521E
  00405217: 24 FE              and         al,0FEh
  00405219: EB 03              jmp         0040521E
  0040521B: 83 F0 01           xor         eax,1
  0040521E: FF 75 F0           push        dword ptr [ebp-10h]
  00405221: 89 01              mov         dword ptr [ecx],eax
  00405223: E8 55 BF FF FF     call        0040117D
  00405228: 8B 45 F0           mov         eax,dword ptr [ebp-10h]
  0040522B: C7 45 0C 0F 04 00  mov         dword ptr [ebp+0Ch],40Fh
            00
  00405232: 40                 inc         eax
  00405233: 89 45 10           mov         dword ptr [ebp+10h],eax
  00405236: A1 7C A2 42 00     mov         eax,dword ptr ds:[0042A27Ch]
  0040523B: F7 D0              not         eax
  0040523D: C1 E8 08           shr         eax,8
  00405240: 83 E0 01           and         eax,1
  00405243: 89 45 14           mov         dword ptr [ebp+14h],eax
  00405246: 39 7D F4           cmp         dword ptr [ebp-0Ch],edi
  00405249: 74 4B              je          00405296
  0040524B: 8B 45 F4           mov         eax,dword ptr [ebp-0Ch]
  0040524E: 81 78 08 3D FE FF  cmp         dword ptr [eax+8],0FFFFFE3Dh
            FF
  00405255: 75 0E              jne         00405265
  00405257: FF 70 5C           push        dword ptr [eax+5Ch]
  0040525A: 57                 push        edi
  0040525B: 68 19 04 00 00     push        419h
  00405260: FF 75 FC           push        dword ptr [ebp-4]
  00405263: FF D6              call        esi
  00405265: 8B 45 F4           mov         eax,dword ptr [ebp-0Ch]
  00405268: 81 78 08 39 FE FF  cmp         dword ptr [eax+8],0FFFFFE39h
            FF
  0040526F: 75 25              jne         00405296
  00405271: 83 78 0C 02        cmp         dword ptr [eax+0Ch],2
  00405275: 8B 40 5C           mov         eax,dword ptr [eax+5Ch]
  00405278: 75 0F              jne         00405289
  0040527A: 69 C0 18 08 00 00  imul        eax,eax,818h
  00405280: 8D 44 18 08        lea         eax,[eax+ebx+8]
  00405284: 83 08 20           or          dword ptr [eax],20h
  00405287: EB 0D              jmp         00405296
  00405289: 69 C0 18 08 00 00  imul        eax,eax,818h
  0040528F: 8D 5C 18 08        lea         ebx,[eax+ebx+8]
  00405293: 83 23 DF           and         dword ptr [ebx],0FFFFFFDFh
  00405296: 81 7D 0C 11 01 00  cmp         dword ptr [ebp+0Ch],111h
            00
  0040529D: 75 6F              jne         0040530E
  0040529F: 66 81 7D 10 F9 03  cmp         word ptr [ebp+10h],3F9h
  004052A5: 0F 85 58 02 00 00  jne         00405503
  004052AB: 8B 45 10           mov         eax,dword ptr [ebp+10h]
  004052AE: C1 E8 10           shr         eax,10h
  004052B1: 66 3D 01 00        cmp         ax,1
  004052B5: 0F 85 48 02 00 00  jne         00405503
  004052BB: 57                 push        edi
  004052BC: 57                 push        edi
  004052BD: 68 47 01 00 00     push        147h
  004052C2: FF 75 F8           push        dword ptr [ebp-8]
  004052C5: FF D6              call        esi
  004052C7: 83 F8 FF           cmp         eax,0FFFFFFFFh
  004052CA: 0F 84 33 02 00 00  je          00405503
  004052D0: 57                 push        edi
  004052D1: 50                 push        eax
  004052D2: 68 50 01 00 00     push        150h
  004052D7: FF 75 F8           push        dword ptr [ebp-8]
  004052DA: FF D6              call        esi
  004052DC: 8B D8              mov         ebx,eax
  004052DE: 83 FB FF           cmp         ebx,0FFFFFFFFh
  004052E1: 74 08              je          004052EB
  004052E3: 8B 45 EC           mov         eax,dword ptr [ebp-14h]
  004052E6: 39 3C 98           cmp         dword ptr [eax+ebx*4],edi
  004052E9: 75 03              jne         004052EE
  004052EB: 6A 20              push        20h
  004052ED: 5B                 pop         ebx
  004052EE: 53                 push        ebx
  004052EF: E8 A5 BF FF FF     call        00401299
  004052F4: 53                 push        ebx
  004052F5: 57                 push        edi
  004052F6: 68 20 04 00 00     push        420h
  004052FB: FF 75 08           push        dword ptr [ebp+8]
  004052FE: FF D6              call        esi
  00405300: 83 4D 10 FF        or          dword ptr [ebp+10h],0FFFFFFFFh
  00405304: 89 7D 14           mov         dword ptr [ebp+14h],edi
  00405307: C7 45 0C 0F 04 00  mov         dword ptr [ebp+0Ch],40Fh
            00
  0040530E: 81 7D 0C 00 02 00  cmp         dword ptr [ebp+0Ch],200h
            00
  00405315: 75 0C              jne         00405323
  00405317: 57                 push        edi
  00405318: 57                 push        edi
  00405319: 68 00 02 00 00     push        200h
  0040531E: FF 75 FC           push        dword ptr [ebp-4]
  00405321: FF D6              call        esi
  00405323: 81 7D 0C 0B 04 00  cmp         dword ptr [ebp+0Ch],40Bh
            00
  0040532A: 75 32              jne         0040535E
  0040532C: A1 2C 37 42 00     mov         eax,dword ptr ds:[0042372Ch]
  00405331: 3B C7              cmp         eax,edi
  00405333: 74 07              je          0040533C
  00405335: 50                 push        eax
  00405336: FF 15 40 80 40 00  call        dword ptr ds:[00408040h]
  0040533C: A1 40 37 42 00     mov         eax,dword ptr ds:[00423740h]
  00405341: 3B C7              cmp         eax,edi
  00405343: 74 07              je          0040534C
  00405345: 50                 push        eax
  00405346: FF 15 34 81 40 00  call        dword ptr ds:[00408134h]
  0040534C: 89 3D 2C 37 42 00  mov         dword ptr ds:[0042372Ch],edi
  00405352: 89 3D 40 37 42 00  mov         dword ptr ds:[00423740h],edi
  00405358: 89 3D E0 A2 42 00  mov         dword ptr ds:[0042A2E0h],edi
  0040535E: 81 7D 0C 0F 04 00  cmp         dword ptr [ebp+0Ch],40Fh
            00
  00405365: 0F 85 5A 01 00 00  jne         004054C5
  0040536B: 57                 push        edi
  0040536C: 57                 push        edi
  0040536D: E8 7D BE FF FF     call        004011EF
  00405372: 8B 45 10           mov         eax,dword ptr [ebp+10h]
  00405375: 3B C7              cmp         eax,edi
  00405377: 74 0E              je          00405387
  00405379: 83 F8 FF           cmp         eax,0FFFFFFFFh
  0040537C: 74 01              je          0040537F
  0040537E: 48                 dec         eax
  0040537F: 50                 push        eax
  00405380: 6A 08              push        8
  00405382: E8 46 FB FF FF     call        00404ECD
  00405387: 39 7D 14           cmp         dword ptr [ebp+14h],edi
  0040538A: 74 3F              je          004053CB
  0040538C: FF 35 40 37 42 00  push        dword ptr ds:[00423740h]
  00405392: E8 4B BF FF FF     call        004012E2
  00405397: 8B D8              mov         ebx,eax
  00405399: 53                 push        ebx
  0040539A: E8 FA BE FF FF     call        00401299
  0040539F: 33 C0              xor         eax,eax
  004053A1: 33 C9              xor         ecx,ecx
  004053A3: 3B DF              cmp         ebx,edi
  004053A5: 7E 0E              jle         004053B5
  004053A7: 8B 55 EC           mov         edx,dword ptr [ebp-14h]
  004053AA: 39 3C 82           cmp         dword ptr [edx+eax*4],edi
  004053AD: 74 01              je          004053B0
  004053AF: 41                 inc         ecx
  004053B0: 40                 inc         eax
  004053B1: 3B C3              cmp         eax,ebx
  004053B3: 7C F2              jl          004053A7
  004053B5: 57                 push        edi
  004053B6: 51                 push        ecx
  004053B7: 68 4E 01 00 00     push        14Eh
  004053BC: FF 75 F8           push        dword ptr [ebp-8]
  004053BF: FF D6              call        esi
  004053C1: 89 5D 14           mov         dword ptr [ebp+14h],ebx
  004053C4: C7 45 0C 20 04 00  mov         dword ptr [ebp+0Ch],420h
            00
  004053CB: 57                 push        edi
  004053CC: 57                 push        edi
  004053CD: E8 1D BE FF FF     call        004011EF
  004053D2: A1 40 37 42 00     mov         eax,dword ptr ds:[00423740h]
  004053D7: 39 3D AC A2 42 00  cmp         dword ptr ds:[0042A2ACh],edi
  004053DD: 89 45 E0           mov         dword ptr [ebp-20h],eax
  004053E0: A1 A8 A2 42 00     mov         eax,dword ptr ds:[0042A2A8h]
  004053E5: C7 45 C4 30 F0 00  mov         dword ptr [ebp-3Ch],0F030h
            00
  004053EC: 89 7D F0           mov         dword ptr [ebp-10h],edi
  004053EF: 0F 8E 9C 00 00 00  jle         00405491
  004053F5: 8D 58 08           lea         ebx,[eax+8]
  004053F8: 8B 45 E0           mov         eax,dword ptr [ebp-20h]
  004053FB: 8B 4D F0           mov         ecx,dword ptr [ebp-10h]
  004053FE: 8B 04 88           mov         eax,dword ptr [eax+ecx*4]
  00405401: 3B C7              cmp         eax,edi
  00405403: 74 74              je          00405479
  00405405: 8B 0B              mov         ecx,dword ptr [ebx]
  00405407: 89 45 BC           mov         dword ptr [ebp-44h],eax
  0040540A: F6 C5 01           test        ch,1
  0040540D: C7 45 B8 08 00 00  mov         dword ptr [ebp-48h],8
            00
  00405414: 74 11              je          00405427
  00405416: 8D 43 10           lea         eax,[ebx+10h]
  00405419: C7 45 B8 09 00 00  mov         dword ptr [ebp-48h],9
            00
  00405420: 89 45 C8           mov         dword ptr [ebp-38h],eax
  00405423: 80 63 01 FE        and         byte ptr [ebx+1],0FEh
  00405427: F6 C1 40           test        cl,40h
  0040542A: 74 05              je          00405431
  0040542C: 6A 03              push        3
  0040542E: 58                 pop         eax
  0040542F: EB 0E              jmp         0040543F
  00405431: 8B C1              mov         eax,ecx
  00405433: 83 E0 01           and         eax,1
  00405436: 40                 inc         eax
  00405437: F6 C1 10           test        cl,10h
  0040543A: 74 03              je          0040543F
  0040543C: 83 C0 03           add         eax,3
  0040543F: 8B D1              mov         edx,ecx
  00405441: FF 75 BC           push        dword ptr [ebp-44h]
  00405444: C1 E0 0B           shl         eax,0Bh
  00405447: 83 E2 08           and         edx,8
  0040544A: 0B C2              or          eax,edx
  0040544C: 8B D1              mov         edx,ecx
  0040544E: C1 F9 05           sar         ecx,5
  00405451: 03 C0              add         eax,eax
  00405453: 83 E2 20           and         edx,20h
  00405456: 83 E1 01           and         ecx,1
  00405459: 0B C2              or          eax,edx
  0040545B: 41                 inc         ecx
  0040545C: 89 45 C0           mov         dword ptr [ebp-40h],eax
  0040545F: 51                 push        ecx
  00405460: 68 02 11 00 00     push        1102h
  00405465: FF 75 FC           push        dword ptr [ebp-4]
  00405468: FF D6              call        esi
  0040546A: 8D 45 B8           lea         eax,[ebp-48h]
  0040546D: 50                 push        eax
  0040546E: 57                 push        edi
  0040546F: 68 3F 11 00 00     push        113Fh
  00405474: FF 75 FC           push        dword ptr [ebp-4]
  00405477: FF D6              call        esi
  00405479: FF 45 F0           inc         dword ptr [ebp-10h]
  0040547C: 81 C3 18 08 00 00  add         ebx,818h
  00405482: 8B 45 F0           mov         eax,dword ptr [ebp-10h]
  00405485: 3B 05 AC A2 42 00  cmp         eax,dword ptr ds:[0042A2ACh]
  0040548B: 0F 8C 67 FF FF FF  jl          004053F8
  00405491: 66 83 3D 6C A2 42  cmp         word ptr ds:[0042A26Ch],4
            00 04
  00405499: 75 0C              jne         004054A7
  0040549B: 6A 01              push        1
  0040549D: 57                 push        edi
  0040549E: FF 75 FC           push        dword ptr [ebp-4]
  004054A1: FF 15 7C 82 40 00  call        dword ptr ds:[0040827Ch]
  004054A7: A1 3C 92 42 00     mov         eax,dword ptr ds:[0042923Ch]
  004054AC: 39 78 10           cmp         dword ptr [eax+10h],edi
  004054AF: 74 14              je          004054C5
  004054B1: 6A 05              push        5
  004054B3: E8 68 F9 FF FF     call        00404E20
  004054B8: 50                 push        eax
  004054B9: 6A FB              push        0FFFFFFFBh
  004054BB: 68 FF 03 00 00     push        3FFh
  004054C0: E8 43 F9 FF FF     call        00404E08
  004054C5: 81 7D 0C 20 04 00  cmp         dword ptr [ebp+0Ch],420h
            00
  004054CC: 75 35              jne         00405503
  004054CE: F6 05 7D A2 42 00  test        byte ptr ds:[0042A27Dh],1
            01
  004054D5: 74 2C              je          00405503
  004054D7: 33 C0              xor         eax,eax
  004054D9: 83 7D 14 20        cmp         dword ptr [ebp+14h],20h
  004054DD: 8B 35 50 82 40 00  mov         esi,dword ptr ds:[00408250h]
  004054E3: 0F 94 C0           sete        al
  004054E6: C1 E0 03           shl         eax,3
  004054E9: 8B F8              mov         edi,eax
  004054EB: 57                 push        edi
  004054EC: FF 75 FC           push        dword ptr [ebp-4]
  004054EF: FF D6              call        esi
  004054F1: 57                 push        edi
  004054F2: 68 FE 03 00 00     push        3FEh
  004054F7: FF 75 08           push        dword ptr [ebp+8]
  004054FA: FF 15 64 82 40 00  call        dword ptr ds:[00408264h]
  00405500: 50                 push        eax
  00405501: FF D6              call        esi
  00405503: FF 75 14           push        dword ptr [ebp+14h]
  00405506: FF 75 10           push        dword ptr [ebp+10h]
  00405509: FF 75 0C           push        dword ptr [ebp+0Ch]
  0040550C: E8 E8 EF FF FF     call        004044F9
  00405511: 5F                 pop         edi
  00405512: 5E                 pop         esi
  00405513: 5B                 pop         ebx
  00405514: C9                 leave
  00405515: C2 10 00           ret         10h
  00405518: 55                 push        ebp
  00405519: 8B EC              mov         ebp,esp
  0040551B: 53                 push        ebx
  0040551C: 8B 5D 0C           mov         ebx,dword ptr [ebp+0Ch]
  0040551F: 81 FB 02 01 00 00  cmp         ebx,102h
  00405525: 57                 push        edi
  00405526: 75 14              jne         0040553C
  00405528: 83 7D 10 20        cmp         dword ptr [ebp+10h],20h
  0040552C: 75 59              jne         00405587
  0040552E: 68 13 04 00 00     push        413h
  00405533: E8 A6 EF FF FF     call        004044DE
  00405538: 33 C0              xor         eax,eax
  0040553A: EB 62              jmp         0040559E
  0040553C: 81 FB 00 02 00 00  cmp         ebx,200h
  00405542: 75 20              jne         00405564
  00405544: FF 75 08           push        dword ptr [ebp+8]
  00405547: FF 15 DC 81 40 00  call        dword ptr ds:[004081DCh]
  0040554D: 85 C0              test        eax,eax
  0040554F: 74 36              je          00405587
  00405551: 6A 01              push        1
  00405553: FF 75 08           push        dword ptr [ebp+8]
  00405556: E8 F2 F8 FF FF     call        00404E4D
  0040555B: 8B F8              mov         edi,eax
  0040555D: BB 19 04 00 00     mov         ebx,419h
  00405562: EB 03              jmp         00405567
  00405564: 8B 7D 14           mov         edi,dword ptr [ebp+14h]
  00405567: 81 FB 19 04 00 00  cmp         ebx,419h
  0040556D: 75 1B              jne         0040558A
  0040556F: 39 3D 34 37 42 00  cmp         dword ptr ds:[00423734h],edi
  00405575: 74 13              je          0040558A
  00405577: 57                 push        edi
  00405578: 6A 06              push        6
  0040557A: 89 3D 34 37 42 00  mov         dword ptr ds:[00423734h],edi
  00405580: E8 48 F9 FF FF     call        00404ECD
  00405585: EB 03              jmp         0040558A
  00405587: 8B 7D 14           mov         edi,dword ptr [ebp+14h]
  0040558A: 57                 push        edi
  0040558B: FF 75 10           push        dword ptr [ebp+10h]
  0040558E: 53                 push        ebx
  0040558F: FF 75 08           push        dword ptr [ebp+8]
  00405592: FF 35 3C 37 42 00  push        dword ptr ds:[0042373Ch]
  00405598: FF 15 E0 81 40 00  call        dword ptr ds:[004081E0h]
  0040559E: 5F                 pop         edi
  0040559F: 5B                 pop         ebx
  004055A0: 5D                 pop         ebp
  004055A1: C2 10 00           ret         10h
  004055A4: 55                 push        ebp
  004055A5: 8B EC              mov         ebp,esp
  004055A7: 83 EC 30           sub         esp,30h
  004055AA: A1 44 92 42 00     mov         eax,dword ptr ds:[00429244h]
  004055AF: 53                 push        ebx
  004055B0: 56                 push        esi
  004055B1: 57                 push        edi
  004055B2: 33 FF              xor         edi,edi
  004055B4: 89 45 FC           mov         dword ptr [ebp-4],eax
  004055B7: 3B C7              cmp         eax,edi
  004055B9: 0F 84 B1 00 00 00  je          00405670
  004055BF: 8B 1D 34 A3 42 00  mov         ebx,dword ptr ds:[0042A334h]
  004055C5: BE 28 27 42 00     mov         esi,422728h
  004055CA: 89 5D F8           mov         dword ptr [ebp-8],ebx
  004055CD: 83 E3 01           and         ebx,1
  004055D0: 75 09              jne         004055DB
  004055D2: FF 75 08           push        dword ptr [ebp+8]
  004055D5: 56                 push        esi
  004055D6: E8 9E 0F 00 00     call        00406579
  004055DB: 56                 push        esi
  004055DC: E8 71 0F 00 00     call        00406552
  004055E1: 39 7D 0C           cmp         dword ptr [ebp+0Ch],edi
  004055E4: 89 45 08           mov         dword ptr [ebp+8],eax
  004055E7: 74 1B              je          00405604
  004055E9: FF 75 0C           push        dword ptr [ebp+0Ch]
  004055EC: E8 61 0F 00 00     call        00406552
  004055F1: 03 45 08           add         eax,dword ptr [ebp+8]
  004055F4: 3D 00 10 00 00     cmp         eax,1000h
  004055F9: 73 75              jae         00405670
  004055FB: FF 75 0C           push        dword ptr [ebp+0Ch]
  004055FE: 56                 push        esi
  004055FF: E8 54 0F 00 00     call        00406558
  00405604: F6 45 F8 04        test        byte ptr [ebp-8],4
  00405608: 75 0D              jne         00405617
  0040560A: 56                 push        esi
  0040560B: FF 35 28 92 42 00  push        dword ptr ds:[00429228h]
  00405611: FF 15 44 82 40 00  call        dword ptr ds:[00408244h]
  00405617: F6 45 F8 02        test        byte ptr [ebp-8],2
  0040561B: 75 44              jne         00405661
  0040561D: 57                 push        edi
  0040561E: 57                 push        edi
  0040561F: 68 04 10 00 00     push        1004h
  00405624: 89 75 E4           mov         dword ptr [ebp-1Ch],esi
  00405627: FF 75 FC           push        dword ptr [ebp-4]
  0040562A: 8B 35 80 82 40 00  mov         esi,dword ptr ds:[00408280h]
  00405630: C7 45 D0 01 00 00  mov         dword ptr [ebp-30h],1
            00
  00405637: FF D6              call        esi
  00405639: 2B C3              sub         eax,ebx
  0040563B: 89 7D D8           mov         dword ptr [ebp-28h],edi
  0040563E: 89 45 D4           mov         dword ptr [ebp-2Ch],eax
  00405641: 8D 45 D0           lea         eax,[ebp-30h]
  00405644: 50                 push        eax
  00405645: B8 4D 10 00 00     mov         eax,104Dh
  0040564A: 2B C3              sub         eax,ebx
  0040564C: 57                 push        edi
  0040564D: 50                 push        eax
  0040564E: FF 75 FC           push        dword ptr [ebp-4]
  00405651: FF D6              call        esi
  00405653: 57                 push        edi
  00405654: FF 75 D4           push        dword ptr [ebp-2Ch]
  00405657: 68 13 10 00 00     push        1013h
  0040565C: FF 75 FC           push        dword ptr [ebp-4]
  0040565F: FF D6              call        esi
  00405661: 3B DF              cmp         ebx,edi
  00405663: 74 0B              je          00405670
  00405665: 8B 45 08           mov         eax,dword ptr [ebp+8]
  00405668: 66 89 3C 45 28 27  mov         word ptr [eax*2+00422728h],di
            42 00
  00405670: 5F                 pop         edi
  00405671: 5E                 pop         esi
  00405672: 5B                 pop         ebx
  00405673: C9                 leave
  00405674: C2 08 00           ret         8
  00405677: 56                 push        esi
  00405678: 8B 35 A8 A2 42 00  mov         esi,dword ptr ds:[0042A2A8h]
  0040567E: 57                 push        edi
  0040567F: 8B 3D AC A2 42 00  mov         edi,dword ptr ds:[0042A2ACh]
  00405685: 6A 00              push        0
  00405687: FF 15 98 82 40 00  call        dword ptr ds:[00408298h]
  0040568D: 09 05 38 A3 42 00  or          dword ptr ds:[0042A338h],eax
  00405693: 6A 00              push        0
  00405695: E8 44 EE FF FF     call        004044DE
  0040569A: 85 FF              test        edi,edi
  0040569C: 74 2B              je          004056C9
  0040569E: 83 C6 0C           add         esi,0Ch
  004056A1: 4F                 dec         edi
  004056A2: F6 46 FC 01        test        byte ptr [esi-4],1
  004056A6: 74 0F              je          004056B7
  004056A8: FF 74 24 0C        push        dword ptr [esp+0Ch]
  004056AC: FF 36              push        dword ptr [esi]
  004056AE: E8 D6 BC FF FF     call        00401389
  004056B3: 85 C0              test        eax,eax
  004056B5: 75 0C              jne         004056C3
  004056B7: 81 C6 18 08 00 00  add         esi,818h
  004056BD: 85 FF              test        edi,edi
  004056BF: 75 E0              jne         004056A1
  004056C1: EB 06              jmp         004056C9
  004056C3: FF 05 0C A3 42 00  inc         dword ptr ds:[0042A30Ch]
  004056C9: 68 04 04 00 00     push        404h
  004056CE: E8 0B EE FF FF     call        004044DE
  004056D3: FF 15 9C 82 40 00  call        dword ptr ds:[0040829Ch]
  004056D9: A1 0C A3 42 00     mov         eax,dword ptr ds:[0042A30Ch]
  004056DE: 5F                 pop         edi
  004056DF: 5E                 pop         esi
  004056E0: C2 04 00           ret         4
  004056E3: 55                 push        ebp
  004056E4: 8B EC              mov         ebp,esp
  004056E6: 83 EC 40           sub         esp,40h
  004056E9: 53                 push        ebx
  004056EA: 56                 push        esi
  004056EB: 8B 35 44 92 42 00  mov         esi,dword ptr ds:[00429244h]
  004056F1: 33 DB              xor         ebx,ebx
  004056F3: 81 7D 0C 10 01 00  cmp         dword ptr [ebp+0Ch],110h
            00
  004056FA: 57                 push        edi
  004056FB: 89 75 FC           mov         dword ptr [ebp-4],esi
  004056FE: 0F 85 89 01 00 00  jne         0040588D
  00405704: 83 4D D0 FF        or          dword ptr [ebp-30h],0FFFFFFFFh
  00405708: 83 4D DC FF        or          dword ptr [ebp-24h],0FFFFFFFFh
  0040570C: 6A 02              push        2
  0040570E: 33 C0              xor         eax,eax
  00405710: 5E                 pop         esi
  00405711: 8D 7D E0           lea         edi,[ebp-20h]
  00405714: 89 75 C8           mov         dword ptr [ebp-38h],esi
  00405717: 89 5D CC           mov         dword ptr [ebp-34h],ebx
  0040571A: 89 5D D4           mov         dword ptr [ebp-2Ch],ebx
  0040571D: 89 5D D8           mov         dword ptr [ebp-28h],ebx
  00405720: AB                 stos        dword ptr es:[edi]
  00405721: AB                 stos        dword ptr es:[edi]
  00405722: A1 74 A2 42 00     mov         eax,dword ptr ds:[0042A274h]
  00405727: 8B 3D 64 82 40 00  mov         edi,dword ptr ds:[00408264h]
  0040572D: 68 03 04 00 00     push        403h
  00405732: 8B 48 5C           mov         ecx,dword ptr [eax+5Ch]
  00405735: 8B 40 60           mov         eax,dword ptr [eax+60h]
  00405738: FF 75 08           push        dword ptr [ebp+8]
  0040573B: 89 4D 0C           mov         dword ptr [ebp+0Ch],ecx
  0040573E: 89 45 10           mov         dword ptr [ebp+10h],eax
  00405741: FF D7              call        edi
  00405743: 68 EE 03 00 00     push        3EEh
  00405748: A3 30 92 42 00     mov         dword ptr ds:[00429230h],eax
  0040574D: FF 75 08           push        dword ptr [ebp+8]
  00405750: FF D7              call        edi
  00405752: 68 F8 03 00 00     push        3F8h
  00405757: A3 28 92 42 00     mov         dword ptr ds:[00429228h],eax
  0040575C: FF 75 08           push        dword ptr [ebp+8]
  0040575F: FF D7              call        edi
  00405761: FF 35 30 92 42 00  push        dword ptr ds:[00429230h]
  00405767: A3 44 92 42 00     mov         dword ptr ds:[00429244h],eax
  0040576C: 89 45 FC           mov         dword ptr [ebp-4],eax
  0040576F: E8 53 ED FF FF     call        004044C7
  00405774: 6A 04              push        4
  00405776: E8 A5 F6 FF FF     call        00404E20
  0040577B: A3 34 92 42 00     mov         dword ptr ds:[00429234h],eax
  00405780: 8D 45 E8           lea         eax,[ebp-18h]
  00405783: 50                 push        eax
  00405784: 89 1D 4C 92 42 00  mov         dword ptr ds:[0042924Ch],ebx
  0040578A: FF 75 FC           push        dword ptr [ebp-4]
  0040578D: FF 15 94 81 40 00  call        dword ptr ds:[00408194h]
  00405793: 56                 push        esi
  00405794: FF 15 C0 81 40 00  call        dword ptr ds:[004081C0h]
  0040579A: 8B 4D F0           mov         ecx,dword ptr [ebp-10h]
  0040579D: 8B 35 80 82 40 00  mov         esi,dword ptr ds:[00408280h]
  004057A3: 2B C8              sub         ecx,eax
  004057A5: 8D 45 C8           lea         eax,[ebp-38h]
  004057A8: 50                 push        eax
  004057A9: 53                 push        ebx
  004057AA: 68 61 10 00 00     push        1061h
  004057AF: 89 4D D0           mov         dword ptr [ebp-30h],ecx
  004057B2: FF 75 FC           push        dword ptr [ebp-4]
  004057B5: FF D6              call        esi
  004057B7: B8 00 40 00 00     mov         eax,4000h
  004057BC: 50                 push        eax
  004057BD: 50                 push        eax
  004057BE: 68 36 10 00 00     push        1036h
  004057C3: FF 75 FC           push        dword ptr [ebp-4]
  004057C6: FF D6              call        esi
  004057C8: 39 5D 0C           cmp         dword ptr [ebp+0Ch],ebx
  004057CB: 7C 1C              jl          004057E9
  004057CD: FF 75 0C           push        dword ptr [ebp+0Ch]
  004057D0: 53                 push        ebx
  004057D1: 68 01 10 00 00     push        1001h
  004057D6: FF 75 FC           push        dword ptr [ebp-4]
  004057D9: FF D6              call        esi
  004057DB: FF 75 0C           push        dword ptr [ebp+0Ch]
  004057DE: 53                 push        ebx
  004057DF: 68 26 10 00 00     push        1026h
  004057E4: FF 75 FC           push        dword ptr [ebp-4]
  004057E7: FF D6              call        esi
  004057E9: 39 5D 10           cmp         dword ptr [ebp+10h],ebx
  004057EC: 7C 0E              jl          004057FC
  004057EE: FF 75 10           push        dword ptr [ebp+10h]
  004057F1: 53                 push        ebx
  004057F2: 68 24 10 00 00     push        1024h
  004057F7: FF 75 FC           push        dword ptr [ebp-4]
  004057FA: FF D6              call        esi
  004057FC: 8B 45 14           mov         eax,dword ptr [ebp+14h]
  004057FF: FF 70 30           push        dword ptr [eax+30h]
  00405802: 6A 1B              push        1Bh
  00405804: FF 75 08           push        dword ptr [ebp+8]
  00405807: E8 86 EC FF FF     call        00404492
  0040580C: F6 05 7C A2 42 00  test        byte ptr ds:[0042A27Ch],3
            03
  00405813: 74 34              je          00405849
  00405815: 53                 push        ebx
  00405816: FF 35 30 92 42 00  push        dword ptr ds:[00429230h]
  0040581C: FF 15 50 82 40 00  call        dword ptr ds:[00408250h]
  00405822: F6 05 7C A2 42 00  test        byte ptr ds:[0042A27Ch],2
            02
  00405829: 75 0D              jne         00405838
  0040582B: 6A 08              push        8
  0040582D: FF 75 FC           push        dword ptr [ebp-4]
  00405830: FF 15 50 82 40 00  call        dword ptr ds:[00408250h]
  00405836: EB 06              jmp         0040583E
  00405838: 89 1D 30 92 42 00  mov         dword ptr ds:[00429230h],ebx
  0040583E: FF 35 28 92 42 00  push        dword ptr ds:[00429228h]
  00405844: E8 7E EC FF FF     call        004044C7
  00405849: 68 EC 03 00 00     push        3ECh
  0040584E: FF 75 08           push        dword ptr [ebp+8]
  00405851: FF D7              call        edi
  00405853: 68 00 00 30 75     push        75300000h
  00405858: 8B F8              mov         edi,eax
  0040585A: 53                 push        ebx
  0040585B: 68 01 04 00 00     push        401h
  00405860: 57                 push        edi
  00405861: FF D6              call        esi
  00405863: F6 05 7C A2 42 00  test        byte ptr ds:[0042A27Ch],4
            04
  0040586A: 0F 84 FC 01 00 00  je          00405A6C
  00405870: FF 75 10           push        dword ptr [ebp+10h]
  00405873: 53                 push        ebx
  00405874: 68 09 04 00 00     push        409h
  00405879: 57                 push        edi
  0040587A: FF D6              call        esi
  0040587C: FF 75 0C           push        dword ptr [ebp+0Ch]
  0040587F: 53                 push        ebx
  00405880: 68 01 20 00 00     push        2001h
  00405885: 57                 push        edi
  00405886: FF D6              call        esi
  00405888: E9 DF 01 00 00     jmp         00405A6C
  0040588D: 81 7D 0C 05 04 00  cmp         dword ptr [ebp+0Ch],405h
            00
  00405894: 75 28              jne         004058BE
  00405896: 8D 45 F8           lea         eax,[ebp-8]
  00405899: 50                 push        eax
  0040589A: 53                 push        ebx
  0040589B: 68 EC 03 00 00     push        3ECh
  004058A0: FF 75 08           push        dword ptr [ebp+8]
  004058A3: FF 15 64 82 40 00  call        dword ptr ds:[00408264h]
  004058A9: 50                 push        eax
  004058AA: 68 77 56 40 00     push        405677h
  004058AF: 53                 push        ebx
  004058B0: 53                 push        ebx
  004058B1: FF 15 AC 80 40 00  call        dword ptr ds:[004080ACh]
  004058B7: 50                 push        eax
  004058B8: FF 15 24 81 40 00  call        dword ptr ds:[00408124h]
  004058BE: 81 7D 0C 11 01 00  cmp         dword ptr [ebp+0Ch],111h
            00
  004058C5: 8B 3D 50 82 40 00  mov         edi,dword ptr ds:[00408250h]
  004058CB: 75 1C              jne         004058E9
  004058CD: 66 81 7D 10 03 04  cmp         word ptr [ebp+10h],403h
  004058D3: 75 39              jne         0040590E
  004058D5: 53                 push        ebx
  004058D6: FF 35 30 92 42 00  push        dword ptr ds:[00429230h]
  004058DC: FF D7              call        edi
  004058DE: 6A 08              push        8
  004058E0: 56                 push        esi
  004058E1: FF D7              call        edi
  004058E3: 56                 push        esi
  004058E4: E8 DE EB FF FF     call        004044C7
  004058E9: 33 F6              xor         esi,esi
  004058EB: 46                 inc         esi
  004058EC: 81 7D 0C 04 04 00  cmp         dword ptr [ebp+0Ch],404h
            00
  004058F3: 75 54              jne         00405949
  004058F5: 39 1D 2C 92 42 00  cmp         dword ptr ds:[0042922Ch],ebx
  004058FB: 74 26              je          00405923
  004058FD: 6A 78              push        78h
  004058FF: C7 05 18 1F 42 00  mov         dword ptr ds:[00421F18h],2
            02 00 00 00
  00405909: E8 5D EB FF FF     call        0040446B
  0040590E: FF 75 14           push        dword ptr [ebp+14h]
  00405911: FF 75 10           push        dword ptr [ebp+10h]
  00405914: FF 75 0C           push        dword ptr [ebp+0Ch]
  00405917: E8 DD EB FF FF     call        004044F9
  0040591C: 5F                 pop         edi
  0040591D: 5E                 pop         esi
  0040591E: 5B                 pop         ebx
  0040591F: C9                 leave
  00405920: C2 10 00           ret         10h
  00405923: 6A 08              push        8
  00405925: FF 35 68 A2 42 00  push        dword ptr ds:[0042A268h]
  0040592B: FF D7              call        edi
  0040592D: 39 1D 0C A3 42 00  cmp         dword ptr ds:[0042A30Ch],ebx
  00405933: 75 0E              jne         00405943
  00405935: A1 20 27 42 00     mov         eax,dword ptr ds:[00422720h]
  0040593A: 53                 push        ebx
  0040593B: FF 70 34           push        dword ptr [eax+34h]
  0040593E: E8 61 FC FF FF     call        004055A4
  00405943: 56                 push        esi
  00405944: E8 22 EB FF FF     call        0040446B
  00405949: 83 7D 0C 7B        cmp         dword ptr [ebp+0Ch],7Bh
  0040594D: 75 BF              jne         0040590E
  0040594F: 8B 45 FC           mov         eax,dword ptr [ebp-4]
  00405952: 39 45 10           cmp         dword ptr [ebp+10h],eax
  00405955: 75 B7              jne         0040590E
  00405957: 53                 push        ebx
  00405958: 53                 push        ebx
  00405959: 68 04 10 00 00     push        1004h
  0040595E: 50                 push        eax
  0040595F: FF 15 80 82 40 00  call        dword ptr ds:[00408280h]
  00405965: 3B C3              cmp         eax,ebx
  00405967: 89 45 0C           mov         dword ptr [ebp+0Ch],eax
  0040596A: 0F 8E FC 00 00 00  jle         00405A6C
  00405970: FF 15 90 82 40 00  call        dword ptr ds:[00408290h]
  00405976: 6A E1              push        0FFFFFFE1h
  00405978: 53                 push        ebx
  00405979: 8B F8              mov         edi,eax
  0040597B: E8 F9 0B 00 00     call        00406579
  00405980: 50                 push        eax
  00405981: 56                 push        esi
  00405982: 53                 push        ebx
  00405983: 57                 push        edi
  00405984: FF 15 C8 81 40 00  call        dword ptr ds:[004081C8h]
  0040598A: 8B 4D 14           mov         ecx,dword ptr [ebp+14h]
  0040598D: 0F BF 45 14        movsx       eax,word ptr [ebp+14h]
  00405991: C1 E9 10           shr         ecx,10h
  00405994: 83 7D 14 FF        cmp         dword ptr [ebp+14h],0FFFFFFFFh
  00405998: 0F BF C9           movsx       ecx,cx
  0040599B: 75 13              jne         004059B0
  0040599D: 8D 45 E8           lea         eax,[ebp-18h]
  004059A0: 50                 push        eax
  004059A1: FF 75 FC           push        dword ptr [ebp-4]
  004059A4: FF 15 10 82 40 00  call        dword ptr ds:[00408210h]
  004059AA: 8B 45 E8           mov         eax,dword ptr [ebp-18h]
  004059AD: 8B 4D EC           mov         ecx,dword ptr [ebp-14h]
  004059B0: 53                 push        ebx
  004059B1: FF 75 08           push        dword ptr [ebp+8]
  004059B4: 53                 push        ebx
  004059B5: 51                 push        ecx
  004059B6: 50                 push        eax
  004059B7: 68 80 01 00 00     push        180h
  004059BC: 57                 push        edi
  004059BD: FF 15 CC 81 40 00  call        dword ptr ds:[004081CCh]
  004059C3: 3B C6              cmp         eax,esi
  004059C5: 0F 85 A1 00 00 00  jne         00405A6C
  004059CB: 8B 45 0C           mov         eax,dword ptr [ebp+0Ch]
  004059CE: 89 5D C8           mov         dword ptr [ebp-38h],ebx
  004059D1: C7 45 D4 48 37 42  mov         dword ptr [ebp-2Ch],423748h
            00
  004059D8: C7 45 D8 00 10 00  mov         dword ptr [ebp-28h],1000h
            00
  004059DF: 89 45 08           mov         dword ptr [ebp+8],eax
  004059E2: BF 73 10 00 00     mov         edi,1073h
  004059E7: FF 4D 08           dec         dword ptr [ebp+8]
  004059EA: 8D 45 C0           lea         eax,[ebp-40h]
  004059ED: 50                 push        eax
  004059EE: FF 75 08           push        dword ptr [ebp+8]
  004059F1: 57                 push        edi
  004059F2: FF 75 FC           push        dword ptr [ebp-4]
  004059F5: FF 15 80 82 40 00  call        dword ptr ds:[00408280h]
  004059FB: 39 5D 08           cmp         dword ptr [ebp+8],ebx
  004059FE: 8D 74 06 02        lea         esi,[esi+eax+2]
  00405A02: 75 E3              jne         004059E7
  00405A04: 53                 push        ebx
  00405A05: FF 15 D0 81 40 00  call        dword ptr ds:[004081D0h]
  00405A0B: FF 15 8C 82 40 00  call        dword ptr ds:[0040828Ch]
  00405A11: 8D 04 36           lea         eax,[esi+esi]
  00405A14: 50                 push        eax
  00405A15: 6A 42              push        42h
  00405A17: FF 15 38 81 40 00  call        dword ptr ds:[00408138h]
  00405A1D: 50                 push        eax
  00405A1E: 89 45 08           mov         dword ptr [ebp+8],eax
  00405A21: FF 15 B0 80 40 00  call        dword ptr ds:[004080B0h]
  00405A27: 8B F0              mov         esi,eax
  00405A29: 8D 45 C0           lea         eax,[ebp-40h]
  00405A2C: 89 75 D4           mov         dword ptr [ebp-2Ch],esi
  00405A2F: 50                 push        eax
  00405A30: 53                 push        ebx
  00405A31: 57                 push        edi
  00405A32: FF 75 FC           push        dword ptr [ebp-4]
  00405A35: FF 15 80 82 40 00  call        dword ptr ds:[00408280h]
  00405A3B: 8D 34 46           lea         esi,[esi+eax*2]
  00405A3E: 66 C7 06 0D 00     mov         word ptr [esi],0Dh
  00405A43: 46                 inc         esi
  00405A44: 46                 inc         esi
  00405A45: 66 C7 06 0A 00     mov         word ptr [esi],0Ah
  00405A4A: 46                 inc         esi
  00405A4B: 46                 inc         esi
  00405A4C: 43                 inc         ebx
  00405A4D: 3B 5D 0C           cmp         ebx,dword ptr [ebp+0Ch]
  00405A50: 7C D7              jl          00405A29
  00405A52: FF 75 08           push        dword ptr [ebp+8]
  00405A55: FF 15 B4 80 40 00  call        dword ptr ds:[004080B4h]
  00405A5B: FF 75 08           push        dword ptr [ebp+8]
  00405A5E: 6A 0D              push        0Dh
  00405A60: FF 15 D4 81 40 00  call        dword ptr ds:[004081D4h]
  00405A66: FF 15 D8 81 40 00  call        dword ptr ds:[004081D8h]
  00405A6C: 33 C0              xor         eax,eax
  00405A6E: E9 A9 FE FF FF     jmp         0040591C
  00405A73: 55                 push        ebp
  00405A74: 8B EC              mov         ebp,esp
  00405A76: 83 EC 20           sub         esp,20h
  00405A79: B8 F8 83 40 00     mov         eax,4083F8h
  00405A7E: 80 65 E1 00        and         byte ptr [ebp-1Fh],0
  00405A82: 89 45 E4           mov         dword ptr [ebp-1Ch],eax
  00405A85: 89 45 E8           mov         dword ptr [ebp-18h],eax
  00405A88: 8D 45 E0           lea         eax,[ebp-20h]
  00405A8B: 83 65 EC 00        and         dword ptr [ebp-14h],0
  00405A8F: 83 65 FC 00        and         dword ptr [ebp-4],0
  00405A93: 89 45 F8           mov         dword ptr [ebp-8],eax
  00405A96: 8D 45 F4           lea         eax,[ebp-0Ch]
  00405A99: 56                 push        esi
  00405A9A: 50                 push        eax
  00405A9B: C6 45 E0 01        mov         byte ptr [ebp-20h],1
  00405A9F: FF 75 08           push        dword ptr [ebp+8]
  00405AA2: 66 C7 45 E2 04 00  mov         word ptr [ebp-1Eh],4
  00405AA8: C7 45 F0 E8 83 40  mov         dword ptr [ebp-10h],4083E8h
            00
  00405AAF: C7 45 F4 0C 00 00  mov         dword ptr [ebp-0Ch],0Ch
            00
  00405AB6: FF 15 A4 80 40 00  call        dword ptr ds:[004080A4h]
  00405ABC: 85 C0              test        eax,eax
  00405ABE: 74 04              je          00405AC4
  00405AC0: 33 C0              xor         eax,eax
  00405AC2: EB 27              jmp         00405AEB
  00405AC4: 8B 35 A8 80 40 00  mov         esi,dword ptr ds:[004080A8h]
  00405ACA: FF D6              call        esi
  00405ACC: 3D B7 00 00 00     cmp         eax,0B7h
  00405AD1: 75 18              jne         00405AEB
  00405AD3: 8D 45 E0           lea         eax,[ebp-20h]
  00405AD6: 50                 push        eax
  00405AD7: 68 07 00 00 80     push        80000007h
  00405ADC: FF 75 08           push        dword ptr [ebp+8]
  00405ADF: FF 15 28 80 40 00  call        dword ptr ds:[00408028h]
  00405AE5: 85 C0              test        eax,eax
  00405AE7: 75 D7              jne         00405AC0
  00405AE9: FF D6              call        esi
  00405AEB: 5E                 pop         esi
  00405AEC: C9                 leave
  00405AED: C2 04 00           ret         4
  00405AF0: 6A 00              push        0
  00405AF2: FF 74 24 08        push        dword ptr [esp+8]
  00405AF6: FF 15 A4 80 40 00  call        dword ptr ds:[004080A4h]
  00405AFC: 85 C0              test        eax,eax
  00405AFE: 74 04              je          00405B04
  00405B00: 33 C0              xor         eax,eax
  00405B02: EB 06              jmp         00405B0A
  00405B04: FF 15 A8 80 40 00  call        dword ptr ds:[004080A8h]
  00405B0A: C2 04 00           ret         4
  00405B0D: 6A 06              push        6
  00405B0F: E8 1D 0E 00 00     call        00406931
  00405B14: 85 C0              test        eax,eax
  00405B16: 74 0A              je          00405B22
  00405B18: FF D0              call        eax
  00405B1A: 85 C0              test        eax,eax
  00405B1C: 74 04              je          00405B22
  00405B1E: 33 C0              xor         eax,eax
  00405B20: 40                 inc         eax
  00405B21: C3                 ret
  00405B22: 33 C0              xor         eax,eax
  00405B24: C3                 ret
  00405B25: 55                 push        ebp
  00405B26: 8B EC              mov         ebp,esp
  00405B28: 83 EC 10           sub         esp,10h
  00405B2B: 8D 45 F0           lea         eax,[ebp-10h]
  00405B2E: C7 05 50 67 42 00  mov         dword ptr ds:[00426750h],44h
            44 00 00 00
  00405B38: 50                 push        eax
  00405B39: 33 C0              xor         eax,eax
  00405B3B: 68 50 67 42 00     push        426750h
  00405B40: 50                 push        eax
  00405B41: 50                 push        eax
  00405B42: 68 00 00 00 04     push        4000000h
  00405B47: 50                 push        eax
  00405B48: 50                 push        eax
  00405B49: 50                 push        eax
  00405B4A: FF 75 08           push        dword ptr [ebp+8]
  00405B4D: 50                 push        eax
  00405B4E: FF 15 A0 80 40 00  call        dword ptr ds:[004080A0h]
  00405B54: 85 C0              test        eax,eax
  00405B56: 74 0C              je          00405B64
  00405B58: FF 75 F4           push        dword ptr [ebp-0Ch]
  00405B5B: FF 15 24 81 40 00  call        dword ptr ds:[00408124h]
  00405B61: 8B 45 F0           mov         eax,dword ptr [ebp-10h]
  00405B64: C9                 leave
  00405B65: C2 04 00           ret         4
  00405B68: 8B 44 24 04        mov         eax,dword ptr [esp+4]
  00405B6C: 50                 push        eax
  00405B6D: 83 60 24 00        and         dword ptr [eax+24h],0
  00405B71: C7 00 3C 00 00 00  mov         dword ptr [eax],3Ch
  00405B77: FF 15 88 81 40 00  call        dword ptr ds:[00408188h]
  00405B7D: C2 04 00           ret         4
  00405B80: FF 25 BC 81 40 00  jmp         dword ptr ds:[004081BCh]
  00405B86: 68 00 04 00 00     push        400h
  00405B8B: FF 74 24 0C        push        dword ptr [esp+0Ch]
  00405B8F: FF 74 24 0C        push        dword ptr [esp+0Ch]
  00405B93: FF 35 38 92 42 00  push        dword ptr ds:[00429238h]
  00405B99: FF 15 B8 81 40 00  call        dword ptr ds:[004081B8h]
  00405B9F: C2 08 00           ret         8
  00405BA2: 8B 44 24 08        mov         eax,dword ptr [esp+8]
  00405BA6: 8B C8              mov         ecx,eax
  00405BA8: 81 E1 FF FF 1F 00  and         ecx,1FFFFFh
  00405BAE: 83 3D 20 A3 42 00  cmp         dword ptr ds:[0042A320h],0
            00
  00405BB5: 74 05              je          00405BBC
  00405BB7: C1 E8 15           shr         eax,15h
  00405BBA: 75 47              jne         00405C03
  00405BBC: 83 3D 28 A3 42 00  cmp         dword ptr ds:[0042A328h],0
            00
  00405BC3: 74 06              je          00405BCB
  00405BC5: 81 F1 00 00 18 00  xor         ecx,180000h
  00405BCB: A1 68 A2 42 00     mov         eax,dword ptr ds:[0042A268h]
  00405BD0: 68 E8 A3 40 00     push        40A3E8h
  00405BD5: A3 EC A3 40 00     mov         dword ptr ds:[0040A3ECh],eax
  00405BDA: A1 60 A2 42 00     mov         eax,dword ptr ds:[0042A260h]
  00405BDF: A3 F0 A3 40 00     mov         dword ptr ds:[0040A3F0h],eax
  00405BE4: 8B 44 24 08        mov         eax,dword ptr [esp+8]
  00405BE8: A3 F4 A3 40 00     mov         dword ptr ds:[0040A3F4h],eax
  00405BED: C7 05 F8 A3 40 00  mov         dword ptr ds:[0040A3F8h],429260h
            60 92 42 00
  00405BF7: 89 0D FC A3 40 00  mov         dword ptr ds:[0040A3FCh],ecx
  00405BFD: FF 15 B4 81 40 00  call        dword ptr ds:[004081B4h]
  00405C03: C2 08 00           ret         8
  00405C06: 56                 push        esi
  00405C07: 8B 74 24 08        mov         esi,dword ptr [esp+8]
  00405C0B: 57                 push        edi
  00405C0C: 56                 push        esi
  00405C0D: E8 FB 03 00 00     call        0040600D
  00405C12: 8B F8              mov         edi,eax
  00405C14: 83 FF FF           cmp         edi,0FFFFFFFFh
  00405C17: 74 2E              je          00405C47
  00405C19: F6 44 24 10 01     test        byte ptr [esp+10h],1
  00405C1E: 56                 push        esi
  00405C1F: 74 08              je          00405C29
  00405C21: FF 15 9C 80 40 00  call        dword ptr ds:[0040809Ch]
  00405C27: EB 06              jmp         00405C2F
  00405C29: FF 15 70 81 40 00  call        dword ptr ds:[00408170h]
  00405C2F: 85 C0              test        eax,eax
  00405C31: 74 05              je          00405C38
  00405C33: 33 C0              xor         eax,eax
  00405C35: 40                 inc         eax
  00405C36: EB 11              jmp         00405C49
  00405C38: F6 44 24 10 04     test        byte ptr [esp+10h],4
  00405C3D: 75 08              jne         00405C47
  00405C3F: 57                 push        edi
  00405C40: 56                 push        esi
  00405C41: FF 15 00 81 40 00  call        dword ptr ds:[00408100h]
  00405C47: 33 C0              xor         eax,eax
  00405C49: 5F                 pop         edi
  00405C4A: 5E                 pop         esi
  00405C4B: C2 08 00           ret         8
  00405C4E: 55                 push        ebp
  00405C4F: 8B EC              mov         ebp,esp
  00405C51: 81 EC 58 02 00 00  sub         esp,258h
  00405C57: 53                 push        ebx
  00405C58: 8B 5D 0C           mov         ebx,dword ptr [ebp+0Ch]
  00405C5B: 56                 push        esi
  00405C5C: 57                 push        edi
  00405C5D: 8B 7D 08           mov         edi,dword ptr [ebp+8]
  00405C60: 8B C3              mov         eax,ebx
  00405C62: 83 E0 04           and         eax,4
  00405C65: 57                 push        edi
  00405C66: 89 45 FC           mov         dword ptr [ebp-4],eax
  00405C69: E8 AB 02 00 00     call        00405F19
  00405C6E: F6 C3 08           test        bl,8
  00405C71: 89 45 F8           mov         dword ptr [ebp-8],eax
  00405C74: 74 17              je          00405C8D
  00405C76: 57                 push        edi
  00405C77: FF 15 70 81 40 00  call        dword ptr ds:[00408170h]
  00405C7D: F7 D8              neg         eax
  00405C7F: 1B C0              sbb         eax,eax
  00405C81: 40                 inc         eax
  00405C82: 01 05 08 A3 42 00  add         dword ptr ds:[0042A308h],eax
  00405C88: E9 7D 01 00 00     jmp         00405E0A
  00405C8D: 89 5D 08           mov         dword ptr [ebp+8],ebx
  00405C90: 83 65 08 01        and         dword ptr [ebp+8],1
  00405C94: 74 11              je          00405CA7
  00405C96: 85 C0              test        eax,eax
  00405C98: 0F 84 1A 01 00 00  je          00405DB8
  00405C9E: F6 C3 02           test        bl,2
  00405CA1: 0F 84 11 01 00 00  je          00405DB8
  00405CA7: BE 50 57 42 00     mov         esi,425750h
  00405CAC: 57                 push        edi
  00405CAD: 56                 push        esi
  00405CAE: E8 89 08 00 00     call        0040653C
  00405CB3: 83 7D 08 00        cmp         dword ptr [ebp+8],0
  00405CB7: 74 0D              je          00405CC6
  00405CB9: 68 9C A5 40 00     push        40A59Ch
  00405CBE: 56                 push        esi
  00405CBF: E8 94 08 00 00     call        00406558
  00405CC4: EB 06              jmp         00405CCC
  00405CC6: 57                 push        edi
  00405CC7: E8 91 01 00 00     call        00405E5D
  00405CCC: 66 83 3F 00        cmp         word ptr [edi],0
  00405CD0: 75 0A              jne         00405CDC
  00405CD2: 66 83 3D 50 57 42  cmp         word ptr ds:[00425750h],5Ch
            00 5C
  00405CDA: 75 0B              jne         00405CE7
  00405CDC: 68 14 A0 40 00     push        40A014h
  00405CE1: 57                 push        edi
  00405CE2: E8 71 08 00 00     call        00406558
  00405CE7: 57                 push        edi
  00405CE8: E8 65 08 00 00     call        00406552
  00405CED: 8D 1C 47           lea         ebx,[edi+eax*2]
  00405CF0: 8D 85 A8 FD FF FF  lea         eax,[ebp+FFFFFDA8h]
  00405CF6: 50                 push        eax
  00405CF7: 56                 push        esi
  00405CF8: FF 15 6C 81 40 00  call        dword ptr ds:[0040816Ch]
  00405CFE: 8B F0              mov         esi,eax
  00405D00: 83 FE FF           cmp         esi,0FFFFFFFFh
  00405D03: 0F 84 A4 00 00 00  je          00405DAD
  00405D09: 66 83 BD D4 FD FF  cmp         word ptr [ebp+FFFFFDD4h],2Eh
            FF 2E
  00405D11: 75 1E              jne         00405D31
  00405D13: 66 83 BD D6 FD FF  cmp         word ptr [ebp+FFFFFDD6h],0
            FF 00
  00405D1B: 74 73              je          00405D90
  00405D1D: 66 83 BD D6 FD FF  cmp         word ptr [ebp+FFFFFDD6h],2Eh
            FF 2E
  00405D25: 75 0A              jne         00405D31
  00405D27: 66 83 BD D8 FD FF  cmp         word ptr [ebp+FFFFFDD8h],0
            FF 00
  00405D2F: 74 5F              je          00405D90
  00405D31: 8D 85 D4 FD FF FF  lea         eax,[ebp+FFFFFDD4h]
  00405D37: 50                 push        eax
  00405D38: 53                 push        ebx
  00405D39: E8 FE 07 00 00     call        0040653C
  00405D3E: F6 85 A8 FD FF FF  test        byte ptr [ebp+FFFFFDA8h],10h
            10
  00405D45: 74 15              je          00405D5C
  00405D47: 8B 45 0C           mov         eax,dword ptr [ebp+0Ch]
  00405D4A: 83 E0 03           and         eax,3
  00405D4D: 3C 03              cmp         al,3
  00405D4F: 75 3F              jne         00405D90
  00405D51: FF 75 0C           push        dword ptr [ebp+0Ch]
  00405D54: 57                 push        edi
  00405D55: E8 F4 FE FF FF     call        00405C4E
  00405D5A: EB 34              jmp         00405D90
  00405D5C: FF 75 FC           push        dword ptr [ebp-4]
  00405D5F: 57                 push        edi
  00405D60: E8 A1 FE FF FF     call        00405C06
  00405D65: 85 C0              test        eax,eax
  00405D67: 75 1F              jne         00405D88
  00405D69: 39 45 FC           cmp         dword ptr [ebp-4],eax
  00405D6C: 74 12              je          00405D80
  00405D6E: 57                 push        edi
  00405D6F: 6A F1              push        0FFFFFFF1h
  00405D71: E8 2E F8 FF FF     call        004055A4
  00405D76: 6A 00              push        0
  00405D78: 57                 push        edi
  00405D79: E8 84 05 00 00     call        00406302
  00405D7E: EB 10              jmp         00405D90
  00405D80: FF 05 08 A3 42 00  inc         dword ptr ds:[0042A308h]
  00405D86: EB 08              jmp         00405D90
  00405D88: 57                 push        edi
  00405D89: 6A F2              push        0FFFFFFF2h
  00405D8B: E8 14 F8 FF FF     call        004055A4
  00405D90: 8D 85 A8 FD FF FF  lea         eax,[ebp+FFFFFDA8h]
  00405D96: 50                 push        eax
  00405D97: 56                 push        esi
  00405D98: FF 15 68 81 40 00  call        dword ptr ds:[00408168h]
  00405D9E: 85 C0              test        eax,eax
  00405DA0: 0F 85 63 FF FF FF  jne         00405D09
  00405DA6: 56                 push        esi
  00405DA7: FF 15 64 81 40 00  call        dword ptr ds:[00408164h]
  00405DAD: 83 7D 08 00        cmp         dword ptr [ebp+8],0
  00405DB1: 74 05              je          00405DB8
  00405DB3: 66 83 63 FE 00     and         word ptr [ebx-2],0
  00405DB8: 33 F6              xor         esi,esi
  00405DBA: 39 75 08           cmp         dword ptr [ebp+8],esi
  00405DBD: 74 4B              je          00405E0A
  00405DBF: 39 75 F8           cmp         dword ptr [ebp-8],esi
  00405DC2: 75 08              jne         00405DCC
  00405DC4: FF 05 08 A3 42 00  inc         dword ptr ds:[0042A308h]
  00405DCA: EB 3E              jmp         00405E0A
  00405DCC: 57                 push        edi
  00405DCD: E8 C8 0A 00 00     call        0040689A
  00405DD2: 85 C0              test        eax,eax
  00405DD4: 74 34              je          00405E0A
  00405DD6: 57                 push        edi
  00405DD7: E8 35 00 00 00     call        00405E11
  00405DDC: 8B 45 FC           mov         eax,dword ptr [ebp-4]
  00405DDF: 0C 01              or          al,1
  00405DE1: 50                 push        eax
  00405DE2: 57                 push        edi
  00405DE3: E8 1E FE FF FF     call        00405C06
  00405DE8: 85 C0              test        eax,eax
  00405DEA: 75 16              jne         00405E02
  00405DEC: 39 75 FC           cmp         dword ptr [ebp-4],esi
  00405DEF: 74 D3              je          00405DC4
  00405DF1: 57                 push        edi
  00405DF2: 6A F1              push        0FFFFFFF1h
  00405DF4: E8 AB F7 FF FF     call        004055A4
  00405DF9: 56                 push        esi
  00405DFA: 57                 push        edi
  00405DFB: E8 02 05 00 00     call        00406302
  00405E00: EB 08              jmp         00405E0A
  00405E02: 57                 push        edi
  00405E03: 6A E5              push        0FFFFFFE5h
  00405E05: E8 9A F7 FF FF     call        004055A4
  00405E0A: 5F                 pop         edi
  00405E0B: 5E                 pop         esi
  00405E0C: 5B                 pop         ebx
  00405E0D: C9                 leave
  00405E0E: C2 08 00           ret         8
  00405E11: 56                 push        esi
  00405E12: 8B 74 24 08        mov         esi,dword ptr [esp+8]
  00405E16: 56                 push        esi
  00405E17: E8 36 07 00 00     call        00406552
  00405E1C: 8D 04 46           lea         eax,[esi+eax*2]
  00405E1F: 50                 push        eax
  00405E20: 56                 push        esi
  00405E21: FF 15 B0 81 40 00  call        dword ptr ds:[004081B0h]
  00405E27: 66 83 38 5C        cmp         word ptr [eax],5Ch
  00405E2B: 74 0B              je          00405E38
  00405E2D: 68 14 A0 40 00     push        40A014h
  00405E32: 56                 push        esi
  00405E33: E8 20 07 00 00     call        00406558
  00405E38: 8B C6              mov         eax,esi
  00405E3A: 5E                 pop         esi
  00405E3B: C2 04 00           ret         4
  00405E3E: 8B 44 24 04        mov         eax,dword ptr [esp+4]
  00405E42: EB 0E              jmp         00405E52
  00405E44: 66 3B 4C 24 08     cmp         cx,word ptr [esp+8]
  00405E49: 74 0F              je          00405E5A
  00405E4B: 50                 push        eax
  00405E4C: FF 15 30 82 40 00  call        dword ptr ds:[00408230h]
  00405E52: 66 8B 08           mov         cx,word ptr [eax]
  00405E55: 66 85 C9           test        cx,cx
  00405E58: 75 EA              jne         00405E44
  00405E5A: C2 08 00           ret         8
  00405E5D: 56                 push        esi
  00405E5E: 8B 74 24 08        mov         esi,dword ptr [esp+8]
  00405E62: 56                 push        esi
  00405E63: E8 EA 06 00 00     call        00406552
  00405E68: 8D 04 46           lea         eax,[esi+eax*2]
  00405E6B: 66 83 38 5C        cmp         word ptr [eax],5Ch
  00405E6F: 74 0C              je          00405E7D
  00405E71: 50                 push        eax
  00405E72: 56                 push        esi
  00405E73: FF 15 B0 81 40 00  call        dword ptr ds:[004081B0h]
  00405E79: 3B C6              cmp         eax,esi
  00405E7B: 77 EE              ja          00405E6B
  00405E7D: 66 83 20 00        and         word ptr [eax],0
  00405E81: 83 C0 02           add         eax,2
  00405E84: 5E                 pop         esi
  00405E85: C2 04 00           ret         4
  00405E88: 8B 54 24 04        mov         edx,dword ptr [esp+4]
  00405E8C: 66 8B 0A           mov         cx,word ptr [edx]
  00405E8F: 8B C1              mov         eax,ecx
  00405E91: 0C 20              or          al,20h
  00405E93: 66 83 F9 5C        cmp         cx,5Ch
  00405E97: 75 06              jne         00405E9F
  00405E99: 66 39 4A 02        cmp         word ptr [edx+2],cx
  00405E9D: 74 13              je          00405EB2
  00405E9F: 66 3D 61 00        cmp         ax,61h
  00405EA3: 72 12              jb          00405EB7
  00405EA5: 66 3D 7A 00        cmp         ax,7Ah
  00405EA9: 77 0C              ja          00405EB7
  00405EAB: 66 83 7A 02 3A     cmp         word ptr [edx+2],3Ah
  00405EB0: 75 05              jne         00405EB7
  00405EB2: 33 C0              xor         eax,eax
  00405EB4: 40                 inc         eax
  00405EB5: EB 02              jmp         00405EB9
  00405EB7: 33 C0              xor         eax,eax
  00405EB9: C2 04 00           ret         4
  00405EBC: 53                 push        ebx
  00405EBD: 56                 push        esi
  00405EBE: 8B 35 30 82 40 00  mov         esi,dword ptr ds:[00408230h]
  00405EC4: 57                 push        edi
  00405EC5: 8B 7C 24 10        mov         edi,dword ptr [esp+10h]
  00405EC9: 57                 push        edi
  00405ECA: FF D6              call        esi
  00405ECC: 8B D8              mov         ebx,eax
  00405ECE: 53                 push        ebx
  00405ECF: FF D6              call        esi
  00405ED1: 66 8B 0F           mov         cx,word ptr [edi]
  00405ED4: 66 85 C9           test        cx,cx
  00405ED7: 74 12              je          00405EEB
  00405ED9: 66 83 3B 3A        cmp         word ptr [ebx],3Ah
  00405EDD: 75 0C              jne         00405EEB
  00405EDF: 66 83 7B 02 5C     cmp         word ptr [ebx+2],5Ch
  00405EE4: 75 05              jne         00405EEB
  00405EE6: 50                 push        eax
  00405EE7: FF D6              call        esi
  00405EE9: EB 28              jmp         00405F13
  00405EEB: 66 83 F9 5C        cmp         cx,5Ch
  00405EEF: 75 20              jne         00405F11
  00405EF1: 66 39 4F 02        cmp         word ptr [edi+2],cx
  00405EF5: 75 1A              jne         00405F11
  00405EF7: 6A 02              push        2
  00405EF9: 5E                 pop         esi
  00405EFA: 6A 5C              push        5Ch
  00405EFC: 50                 push        eax
  00405EFD: 4E                 dec         esi
  00405EFE: E8 3B FF FF FF     call        00405E3E
  00405F03: 66 83 38 00        cmp         word ptr [eax],0
  00405F07: 74 08              je          00405F11
  00405F09: 40                 inc         eax
  00405F0A: 40                 inc         eax
  00405F0B: 85 F6              test        esi,esi
  00405F0D: 75 EB              jne         00405EFA
  00405F0F: EB 02              jmp         00405F13
  00405F11: 33 C0              xor         eax,eax
  00405F13: 5F                 pop         edi
  00405F14: 5E                 pop         esi
  00405F15: 5B                 pop         ebx
  00405F16: C2 04 00           ret         4
  00405F19: 56                 push        esi
  00405F1A: 57                 push        edi
  00405F1B: FF 74 24 0C        push        dword ptr [esp+0Ch]
  00405F1F: BE 50 5F 42 00     mov         esi,425F50h
  00405F24: 56                 push        esi
  00405F25: E8 12 06 00 00     call        0040653C
  00405F2A: 56                 push        esi
  00405F2B: E8 8C FF FF FF     call        00405EBC
  00405F30: 8B F8              mov         edi,eax
  00405F32: 85 FF              test        edi,edi
  00405F34: 75 04              jne         00405F3A
  00405F36: 33 C0              xor         eax,eax
  00405F38: EB 58              jmp         00405F92
  00405F3A: 57                 push        edi
  00405F3B: E8 AB 08 00 00     call        004067EB
  00405F40: F6 05 7C A2 42 00  test        byte ptr ds:[0042A27Ch],80h
            80
  00405F47: 74 0E              je          00405F57
  00405F49: 66 8B 07           mov         ax,word ptr [edi]
  00405F4C: 66 85 C0           test        ax,ax
  00405F4F: 74 E5              je          00405F36
  00405F51: 66 3D 5C 00        cmp         ax,5Ch
  00405F55: 74 DF              je          00405F36
  00405F57: 2B FE              sub         edi,esi
  00405F59: D1 FF              sar         edi,1
  00405F5B: EB 14              jmp         00405F71
  00405F5D: E8 38 09 00 00     call        0040689A
  00405F62: 85 C0              test        eax,eax
  00405F64: 74 05              je          00405F6B
  00405F66: F6 00 10           test        byte ptr [eax],10h
  00405F69: 74 CB              je          00405F36
  00405F6B: 56                 push        esi
  00405F6C: E8 EC FE FF FF     call        00405E5D
  00405F71: 56                 push        esi
  00405F72: E8 DB 05 00 00     call        00406552
  00405F77: 3B C7              cmp         eax,edi
  00405F79: 56                 push        esi
  00405F7A: 7F E1              jg          00405F5D
  00405F7C: E8 90 FE FF FF     call        00405E11
  00405F81: 56                 push        esi
  00405F82: FF 15 04 81 40 00  call        dword ptr ds:[00408104h]
  00405F88: 33 C9              xor         ecx,ecx
  00405F8A: 83 F8 FF           cmp         eax,0FFFFFFFFh
  00405F8D: 0F 95 C1           setne       cl
  00405F90: 8B C1              mov         eax,ecx
  00405F92: 5F                 pop         edi
  00405F93: 5E                 pop         esi
  00405F94: C2 04 00           ret         4
  00405F97: 55                 push        ebp
  00405F98: 8B EC              mov         ebp,esp
  00405F9A: 51                 push        ecx
  00405F9B: 53                 push        ebx
  00405F9C: 56                 push        esi
  00405F9D: 57                 push        edi
  00405F9E: 8B 3D 54 81 40 00  mov         edi,dword ptr ds:[00408154h]
  00405FA4: FF 75 0C           push        dword ptr [ebp+0Ch]
  00405FA7: FF D7              call        edi
  00405FA9: 8B 75 08           mov         esi,dword ptr [ebp+8]
  00405FAC: 89 45 FC           mov         dword ptr [ebp-4],eax
  00405FAF: EB 27              jmp         00405FD8
  00405FB1: 8B 45 FC           mov         eax,dword ptr [ebp-4]
  00405FB4: FF 75 0C           push        dword ptr [ebp+0Ch]
  00405FB7: 8A 1C 30           mov         bl,byte ptr [eax+esi]
  00405FBA: 80 24 30 00        and         byte ptr [eax+esi],0
  00405FBE: 56                 push        esi
  00405FBF: FF 15 98 80 40 00  call        dword ptr ds:[00408098h]
  00405FC5: 85 C0              test        eax,eax
  00405FC7: 8B 45 FC           mov         eax,dword ptr [ebp-4]
  00405FCA: 88 1C 30           mov         byte ptr [eax+esi],bl
  00405FCD: 74 1A              je          00405FE9
  00405FCF: 56                 push        esi
  00405FD0: FF 15 AC 81 40 00  call        dword ptr ds:[004081ACh]
  00405FD6: 8B F0              mov         esi,eax
  00405FD8: 56                 push        esi
  00405FD9: FF D7              call        edi
  00405FDB: 3B 45 FC           cmp         eax,dword ptr [ebp-4]
  00405FDE: 7D D1              jge         00405FB1
  00405FE0: 33 C0              xor         eax,eax
  00405FE2: 5F                 pop         edi
  00405FE3: 5E                 pop         esi
  00405FE4: 5B                 pop         ebx
  00405FE5: C9                 leave
  00405FE6: C2 08 00           ret         8
  00405FE9: 8B C6              mov         eax,esi
  00405FEB: EB F5              jmp         00405FE2
  00405FED: 8B 4C 24 04        mov         ecx,dword ptr [esp+4]
  00405FF1: 56                 push        esi
  00405FF2: 8B 74 24 10        mov         esi,dword ptr [esp+10h]
  00405FF6: 85 F6              test        esi,esi
  00405FF8: 76 0F              jbe         00406009
  00405FFA: 8B 44 24 0C        mov         eax,dword ptr [esp+0Ch]
  00405FFE: 2B C1              sub         eax,ecx
  00406000: 8A 14 08           mov         dl,byte ptr [eax+ecx]
  00406003: 88 11              mov         byte ptr [ecx],dl
  00406005: 41                 inc         ecx
  00406006: 4E                 dec         esi
  00406007: 75 F7              jne         00406000
  00406009: 5E                 pop         esi
  0040600A: C2 0C 00           ret         0Ch
  0040600D: 56                 push        esi
  0040600E: FF 74 24 08        push        dword ptr [esp+8]
  00406012: FF 15 04 81 40 00  call        dword ptr ds:[00408104h]
  00406018: 8B F0              mov         esi,eax
  0040601A: 83 FE FF           cmp         esi,0FFFFFFFFh
  0040601D: 74 0D              je          0040602C
  0040601F: 24 FE              and         al,0FEh
  00406021: 50                 push        eax
  00406022: FF 74 24 0C        push        dword ptr [esp+0Ch]
  00406026: FF 15 00 81 40 00  call        dword ptr ds:[00408100h]
  0040602C: 8B C6              mov         eax,esi
  0040602E: 5E                 pop         esi
  0040602F: C2 04 00           ret         4
  00406032: FF 74 24 04        push        dword ptr [esp+4]
  00406036: FF 15 04 81 40 00  call        dword ptr ds:[00408104h]
  0040603C: 8B C8              mov         ecx,eax
  0040603E: 6A 00              push        0
  00406040: 41                 inc         ecx
  00406041: F7 D9              neg         ecx
  00406043: 1B C9              sbb         ecx,ecx
  00406045: 23 C8              and         ecx,eax
  00406047: 51                 push        ecx
  00406048: FF 74 24 14        push        dword ptr [esp+14h]
  0040604C: 6A 00              push        0
  0040604E: 6A 01              push        1
  00406050: FF 74 24 1C        push        dword ptr [esp+1Ch]
  00406054: FF 74 24 1C        push        dword ptr [esp+1Ch]
  00406058: FF 15 F4 80 40 00  call        dword ptr ds:[004080F4h]
  0040605E: C2 0C 00           ret         0Ch
  00406061: 55                 push        ebp
  00406062: 8B EC              mov         ebp,esp
  00406064: 51                 push        ecx
  00406065: 51                 push        ecx
  00406066: 56                 push        esi
  00406067: 8B 75 08           mov         esi,dword ptr [ebp+8]
  0040606A: 57                 push        edi
  0040606B: 6A 64              push        64h
  0040606D: 5F                 pop         edi
  0040606E: A1 A8 A5 40 00     mov         eax,dword ptr ds:[0040A5A8h]
  00406073: 4F                 dec         edi
  00406074: 89 45 F8           mov         dword ptr [ebp-8],eax
  00406077: A1 AC A5 40 00     mov         eax,dword ptr ds:[0040A5ACh]
  0040607C: 89 45 FC           mov         dword ptr [ebp-4],eax
  0040607F: FF 15 F8 80 40 00  call        dword ptr ds:[004080F8h]
  00406085: 6A 1A              push        1Ah
  00406087: 33 D2              xor         edx,edx
  00406089: 59                 pop         ecx
  0040608A: F7 F1              div         eax,ecx
  0040608C: 56                 push        esi
  0040608D: 8D 45 F8           lea         eax,[ebp-8]
  00406090: 6A 00              push        0
  00406092: 50                 push        eax
  00406093: FF 75 0C           push        dword ptr [ebp+0Ch]
  00406096: 66 01 55 FC        add         word ptr [ebp-4],dx
  0040609A: FF 15 94 80 40 00  call        dword ptr ds:[00408094h]
  004060A0: 85 C0              test        eax,eax
  004060A2: 75 0D              jne         004060B1
  004060A4: 85 FF              test        edi,edi
  004060A6: 75 C6              jne         0040606E
  004060A8: 66 21 3E           and         word ptr [esi],di
  004060AB: 5F                 pop         edi
  004060AC: 5E                 pop         esi
  004060AD: C9                 leave
  004060AE: C2 08 00           ret         8
  004060B1: 8B C6              mov         eax,esi
  004060B3: EB F6              jmp         004060AB
  004060B5: 55                 push        ebp
  004060B6: 8B EC              mov         ebp,esp
  004060B8: 56                 push        esi
  004060B9: 8B 75 10           mov         esi,dword ptr [ebp+10h]
  004060BC: 8D 45 10           lea         eax,[ebp+10h]
  004060BF: 6A 00              push        0
  004060C1: 50                 push        eax
  004060C2: 56                 push        esi
  004060C3: FF 75 0C           push        dword ptr [ebp+0Ch]
  004060C6: FF 75 08           push        dword ptr [ebp+8]
  004060C9: FF 15 5C 81 40 00  call        dword ptr ds:[0040815Ch]
  004060CF: 85 C0              test        eax,eax
  004060D1: 74 0A              je          004060DD
  004060D3: 3B 75 10           cmp         esi,dword ptr [ebp+10h]
  004060D6: 75 05              jne         004060DD
  004060D8: 33 C0              xor         eax,eax
  004060DA: 40                 inc         eax
  004060DB: EB 02              jmp         004060DF
  004060DD: 33 C0              xor         eax,eax
  004060DF: 5E                 pop         esi
  004060E0: 5D                 pop         ebp
  004060E1: C2 0C 00           ret         0Ch
  004060E4: 55                 push        ebp
  004060E5: 8B EC              mov         ebp,esp
  004060E7: 56                 push        esi
  004060E8: 8B 75 10           mov         esi,dword ptr [ebp+10h]
  004060EB: 8D 45 10           lea         eax,[ebp+10h]
  004060EE: 6A 00              push        0
  004060F0: 50                 push        eax
  004060F1: 56                 push        esi
  004060F2: FF 75 0C           push        dword ptr [ebp+0Ch]
  004060F5: FF 75 08           push        dword ptr [ebp+8]
  004060F8: FF 15 90 80 40 00  call        dword ptr ds:[00408090h]
  004060FE: 85 C0              test        eax,eax
  00406100: 74 0A              je          0040610C
  00406102: 3B 75 10           cmp         esi,dword ptr [ebp+10h]
  00406105: 75 05              jne         0040610C
  00406107: 33 C0              xor         eax,eax
  00406109: 40                 inc         eax
  0040610A: EB 02              jmp         0040610E
  0040610C: 33 C0              xor         eax,eax
  0040610E: 5E                 pop         esi
  0040610F: 5D                 pop         ebp
  00406110: C2 0C 00           ret         0Ch
  00406113: 55                 push        ebp
  00406114: 8B EC              mov         ebp,esp
  00406116: 53                 push        ebx
  00406117: 8B 5D 08           mov         ebx,dword ptr [ebp+8]
  0040611A: 56                 push        esi
  0040611B: 8B 35 60 81 40 00  mov         esi,dword ptr ds:[00408160h]
  00406121: 57                 push        edi
  00406122: 33 FF              xor         edi,edi
  00406124: 6A 01              push        1
  00406126: 57                 push        edi
  00406127: 57                 push        edi
  00406128: 53                 push        ebx
  00406129: FF D6              call        esi
  0040612B: 85 C0              test        eax,eax
  0040612D: 75 4F              jne         0040617E
  0040612F: 8D 45 0A           lea         eax,[ebp+0Ah]
  00406132: 6A 02              push        2
  00406134: 50                 push        eax
  00406135: 53                 push        ebx
  00406136: E8 7A FF FF FF     call        004060B5
  0040613B: 85 C0              test        eax,eax
  0040613D: 74 0C              je          0040614B
  0040613F: 66 81 7D 0A FF FE  cmp         word ptr [ebp+0Ah],0FEFFh
  00406145: 75 04              jne         0040614B
  00406147: 33 C0              xor         eax,eax
  00406149: EB 36              jmp         00406181
  0040614B: 39 7D 0C           cmp         dword ptr [ebp+0Ch],edi
  0040614E: 74 28              je          00406178
  00406150: 6A 01              push        1
  00406152: 57                 push        edi
  00406153: 57                 push        edi
  00406154: 53                 push        ebx
  00406155: FF D6              call        esi
  00406157: 85 C0              test        eax,eax
  00406159: 75 1D              jne         00406178
  0040615B: 6A 02              push        2
  0040615D: 68 1C 84 40 00     push        40841Ch
  00406162: 53                 push        ebx
  00406163: E8 7C FF FF FF     call        004060E4
  00406168: F7 D8              neg         eax
  0040616A: 1B C0              sbb         eax,eax
  0040616C: 25 FB BF FF 7F     and         eax,7FFFBFFBh
  00406171: 05 05 40 00 80     add         eax,80004005h
  00406176: EB 09              jmp         00406181
  00406178: 57                 push        edi
  00406179: 57                 push        edi
  0040617A: 57                 push        edi
  0040617B: 53                 push        ebx
  0040617C: FF D6              call        esi
  0040617E: 33 C0              xor         eax,eax
  00406180: 40                 inc         eax
  00406181: 5F                 pop         edi
  00406182: 5E                 pop         esi
  00406183: 5B                 pop         ebx
  00406184: 5D                 pop         ebp
  00406185: C2 08 00           ret         8
  00406188: 53                 push        ebx
  00406189: 8B 1D 14 81 40 00  mov         ebx,dword ptr ds:[00408114h]
  0040618F: 55                 push        ebp
  00406190: 56                 push        esi
  00406191: 8B 74 24 14        mov         esi,dword ptr [esp+14h]
  00406195: 57                 push        edi
  00406196: 85 F6              test        esi,esi
  00406198: C7 05 E8 6D 42 00  mov         dword ptr ds:[00426DE8h],55004Eh
            4E 00 55 00
  004061A2: C7 05 EC 6D 42 00  mov         dword ptr ds:[00426DECh],4Ch
            4C 00 00 00
  004061AC: BF 00 04 00 00     mov         edi,400h
  004061B1: BD E8 6D 42 00     mov         ebp,426DE8h
  004061B6: 74 26              je          004061DE
  004061B8: 6A 01              push        1
  004061BA: 6A 00              push        0
  004061BC: 56                 push        esi
  004061BD: E8 70 FE FF FF     call        00406032
  004061C2: 50                 push        eax
  004061C3: FF 15 24 81 40 00  call        dword ptr ds:[00408124h]
  004061C9: 57                 push        edi
  004061CA: 55                 push        ebp
  004061CB: 56                 push        esi
  004061CC: FF D3              call        ebx
  004061CE: 85 C0              test        eax,eax
  004061D0: 0F 84 27 01 00 00  je          004062FD
  004061D6: 3B C7              cmp         eax,edi
  004061D8: 0F 8F 1F 01 00 00  jg          004062FD
  004061DE: BE E8 75 42 00     mov         esi,4275E8h
  004061E3: 57                 push        edi
  004061E4: 56                 push        esi
  004061E5: FF 74 24 1C        push        dword ptr [esp+1Ch]
  004061E9: FF D3              call        ebx
  004061EB: 85 C0              test        eax,eax
  004061ED: 0F 84 0A 01 00 00  je          004062FD
  004061F3: 3B C7              cmp         eax,edi
  004061F5: 0F 8F 02 01 00 00  jg          004062FD
  004061FB: 56                 push        esi
  004061FC: 55                 push        ebp
  004061FD: 68 C0 A5 40 00     push        40A5C0h
  00406202: 68 E8 69 42 00     push        4269E8h
  00406207: FF 15 A8 81 40 00  call        dword ptr ds:[004081A8h]
  0040620D: 8B D8              mov         ebx,eax
  0040620F: A1 74 A2 42 00     mov         eax,dword ptr ds:[0042A274h]
  00406214: 83 C4 10           add         esp,10h
  00406217: FF B0 28 01 00 00  push        dword ptr [eax+00000128h]
  0040621D: 56                 push        esi
  0040621E: E8 56 03 00 00     call        00406579
  00406223: 6A 04              push        4
  00406225: 68 00 00 00 C0     push        0C0000000h
  0040622A: 56                 push        esi
  0040622B: E8 02 FE FF FF     call        00406032
  00406230: 8B E8              mov         ebp,eax
  00406232: 83 FD FF           cmp         ebp,0FFFFFFFFh
  00406235: 89 6C 24 18        mov         dword ptr [esp+18h],ebp
  00406239: 0F 84 BE 00 00 00  je          004062FD
  0040623F: 6A 00              push        0
  00406241: 55                 push        ebp
  00406242: FF 15 F0 80 40 00  call        dword ptr ds:[004080F0h]
  00406248: 8B F8              mov         edi,eax
  0040624A: 8D 44 1F 0A        lea         eax,[edi+ebx+0Ah]
  0040624E: 50                 push        eax
  0040624F: 6A 40              push        40h
  00406251: FF 15 38 81 40 00  call        dword ptr ds:[00408138h]
  00406257: 8B F0              mov         esi,eax
  00406259: 85 F6              test        esi,esi
  0040625B: 0F 84 95 00 00 00  je          004062F6
  00406261: 57                 push        edi
  00406262: 56                 push        esi
  00406263: 55                 push        ebp
  00406264: E8 4C FE FF FF     call        004060B5
  00406269: 85 C0              test        eax,eax
  0040626B: 0F 84 85 00 00 00  je          004062F6
  00406271: 68 B4 A5 40 00     push        40A5B4h
  00406276: 56                 push        esi
  00406277: E8 1B FD FF FF     call        00405F97
  0040627C: 85 C0              test        eax,eax
  0040627E: 75 14              jne         00406294
  00406280: 8D 04 3E           lea         eax,[esi+edi]
  00406283: 68 B4 A5 40 00     push        40A5B4h
  00406288: 50                 push        eax
  00406289: FF 15 8C 80 40 00  call        dword ptr ds:[0040808Ch]
  0040628F: 83 C7 0A           add         edi,0Ah
  00406292: EB 35              jmp         004062C9
  00406294: 83 C0 0A           add         eax,0Ah
  00406297: 68 B0 A5 40 00     push        40A5B0h
  0040629C: 50                 push        eax
  0040629D: E8 F5 FC FF FF     call        00405F97
  004062A2: 8B E8              mov         ebp,eax
  004062A4: 85 ED              test        ebp,ebp
  004062A6: 74 1D              je          004062C5
  004062A8: 8D 0C 3E           lea         ecx,[esi+edi]
  004062AB: 8D 04 19           lea         eax,[ecx+ebx]
  004062AE: EB 06              jmp         004062B6
  004062B0: 8A 11              mov         dl,byte ptr [ecx]
  004062B2: 88 10              mov         byte ptr [eax],dl
  004062B4: 48                 dec         eax
  004062B5: 49                 dec         ecx
  004062B6: 3B CD              cmp         ecx,ebp
  004062B8: 77 F6              ja          004062B0
  004062BA: 2B EE              sub         ebp,esi
  004062BC: 45                 inc         ebp
  004062BD: 8B C5              mov         eax,ebp
  004062BF: 8B 6C 24 18        mov         ebp,dword ptr [esp+18h]
  004062C3: EB 06              jmp         004062CB
  004062C5: 8B 6C 24 18        mov         ebp,dword ptr [esp+18h]
  004062C9: 8B C7              mov         eax,edi
  004062CB: 53                 push        ebx
  004062CC: 03 C6              add         eax,esi
  004062CE: 68 E8 69 42 00     push        4269E8h
  004062D3: 50                 push        eax
  004062D4: E8 14 FD FF FF     call        00405FED
  004062D9: 33 C0              xor         eax,eax
  004062DB: 50                 push        eax
  004062DC: 50                 push        eax
  004062DD: 50                 push        eax
  004062DE: 55                 push        ebp
  004062DF: FF 15 60 81 40 00  call        dword ptr ds:[00408160h]
  004062E5: 03 FB              add         edi,ebx
  004062E7: 57                 push        edi
  004062E8: 56                 push        esi
  004062E9: 55                 push        ebp
  004062EA: E8 F5 FD FF FF     call        004060E4
  004062EF: 56                 push        esi
  004062F0: FF 15 34 81 40 00  call        dword ptr ds:[00408134h]
  004062F6: 55                 push        ebp
  004062F7: FF 15 24 81 40 00  call        dword ptr ds:[00408124h]
  004062FD: 5F                 pop         edi
  004062FE: 5E                 pop         esi
  004062FF: 5D                 pop         ebp
  00406300: 5B                 pop         ebx
  00406301: C3                 ret
  00406302: 6A 05              push        5
  00406304: FF 74 24 0C        push        dword ptr [esp+0Ch]
  00406308: FF 74 24 0C        push        dword ptr [esp+0Ch]
  0040630C: FF 15 44 81 40 00  call        dword ptr ds:[00408144h]
  00406312: 85 C0              test        eax,eax
  00406314: 75 0F              jne         00406325
  00406316: FF 74 24 08        push        dword ptr [esp+8]
  0040631A: FF 74 24 08        push        dword ptr [esp+8]
  0040631E: E8 65 FE FF FF     call        00406188
  00406323: 59                 pop         ecx
  00406324: 59                 pop         ecx
  00406325: FF 05 10 A3 42 00  inc         dword ptr ds:[0042A310h]
  0040632B: C2 08 00           ret         8
  0040632E: 8B 15 6C A2 42 00  mov         edx,dword ptr ds:[0042A26Ch]
  00406334: 53                 push        ebx
  00406335: 8B 5C 24 08        mov         ebx,dword ptr [esp+8]
  00406339: 57                 push        edi
  0040633A: 8B 7C 24 10        mov         edi,dword ptr [esp+10h]
  0040633E: F7 D2              not         edx
  00406340: 8B 07              mov         eax,dword ptr [edi]
  00406342: C1 EA 16           shr         edx,16h
  00406345: 81 E2 00 01 00 00  and         edx,100h
  0040634B: A8 20              test        al,20h
  0040634D: 74 34              je          00406383
  0040634F: F7 C3 00 00 00 60  test        ebx,60000000h
  00406355: 74 2C              je          00406383
  00406357: 8B CB              mov         ecx,ebx
  00406359: 56                 push        esi
  0040635A: C1 E9 15           shr         ecx,15h
  0040635D: BE 00 03 00 00     mov         esi,300h
  00406362: 23 CE              and         ecx,esi
  00406364: 3B CE              cmp         ecx,esi
  00406366: 5E                 pop         esi
  00406367: 75 0A              jne         00406373
  00406369: 8B CA              mov         ecx,edx
  0040636B: F7 D1              not         ecx
  0040636D: 23 0D 30 A3 42 00  and         ecx,dword ptr ds:[0042A330h]
  00406373: 80 E4 FE           and         ah,0FEh
  00406376: 0B C1              or          eax,ecx
  00406378: 80 E4 FD           and         ah,0FDh
  0040637B: 81 E3 FF FF FF 9F  and         ebx,9FFFFFFFh
  00406381: EB 0D              jmp         00406390
  00406383: A9 00 00 10 00     test        eax,100000h
  00406388: 74 06              je          00406390
  0040638A: 0B 05 30 A3 42 00  or          eax,dword ptr ds:[0042A330h]
  00406390: 8B C8              mov         ecx,eax
  00406392: 23 C2              and         eax,edx
  00406394: 81 E1 DF FF EF FF  and         ecx,0FFEFFFDFh
  0040639A: F7 D8              neg         eax
  0040639C: 1B C0              sbb         eax,eax
  0040639E: 89 0F              mov         dword ptr [edi],ecx
  004063A0: F7 D0              not         eax
  004063A2: 23 C3              and         eax,ebx
  004063A4: 5F                 pop         edi
  004063A5: 5B                 pop         ebx
  004063A6: C2 08 00           ret         8
  004063A9: 55                 push        ebp
  004063AA: 8B EC              mov         ebp,esp
  004063AC: 8D 45 10           lea         eax,[ebp+10h]
  004063AF: 50                 push        eax
  004063B0: FF 75 08           push        dword ptr [ebp+8]
  004063B3: E8 76 FF FF FF     call        0040632E
  004063B8: 85 C0              test        eax,eax
  004063BA: 75 05              jne         004063C1
  004063BC: 6A 06              push        6
  004063BE: 58                 pop         eax
  004063BF: EB 12              jmp         004063D3
  004063C1: FF 75 14           push        dword ptr [ebp+14h]
  004063C4: FF 75 10           push        dword ptr [ebp+10h]
  004063C7: 6A 00              push        0
  004063C9: FF 75 0C           push        dword ptr [ebp+0Ch]
  004063CC: 50                 push        eax
  004063CD: FF 15 2C 80 40 00  call        dword ptr ds:[0040802Ch]
  004063D3: 5D                 pop         ebp
  004063D4: C2 10 00           ret         10h
  004063D7: 55                 push        ebp
  004063D8: 8B EC              mov         ebp,esp
  004063DA: 8D 45 10           lea         eax,[ebp+10h]
  004063DD: 50                 push        eax
  004063DE: FF 75 08           push        dword ptr [ebp+8]
  004063E1: E8 48 FF FF FF     call        0040632E
  004063E6: 33 C9              xor         ecx,ecx
  004063E8: 3B C1              cmp         eax,ecx
  004063EA: 75 05              jne         004063F1
  004063EC: 6A 06              push        6
  004063EE: 58                 pop         eax
  004063EF: EB 15              jmp         00406406
  004063F1: 51                 push        ecx
  004063F2: FF 75 14           push        dword ptr [ebp+14h]
  004063F5: 51                 push        ecx
  004063F6: FF 75 10           push        dword ptr [ebp+10h]
  004063F9: 51                 push        ecx
  004063FA: 51                 push        ecx
  004063FB: 51                 push        ecx
  004063FC: FF 75 0C           push        dword ptr [ebp+0Ch]
  004063FF: 50                 push        eax
  00406400: FF 15 00 80 40 00  call        dword ptr ds:[00408000h]
  00406406: 5D                 pop         ebp
  00406407: C2 10 00           ret         10h
  0040640A: 55                 push        ebp
  0040640B: 8B EC              mov         ebp,esp
  0040640D: 51                 push        ecx
  0040640E: 8D 45 18           lea         eax,[ebp+18h]
  00406411: 56                 push        esi
  00406412: 50                 push        eax
  00406413: 8B 45 18           mov         eax,dword ptr [ebp+18h]
  00406416: F7 D8              neg         eax
  00406418: 1B C0              sbb         eax,eax
  0040641A: C7 45 FC 00 08 00  mov         dword ptr [ebp-4],800h
            00
  00406421: 25 00 01 00 00     and         eax,100h
  00406426: 0D 19 00 02 00     or          eax,20019h
  0040642B: 50                 push        eax
  0040642C: FF 75 0C           push        dword ptr [ebp+0Ch]
  0040642F: FF 75 08           push        dword ptr [ebp+8]
  00406432: E8 72 FF FF FF     call        004063A9
  00406437: 8B 75 14           mov         esi,dword ptr [ebp+14h]
  0040643A: 85 C0              test        eax,eax
  0040643C: 75 3C              jne         0040647A
  0040643E: 8D 45 FC           lea         eax,[ebp-4]
  00406441: 57                 push        edi
  00406442: 50                 push        eax
  00406443: 8D 45 0C           lea         eax,[ebp+0Ch]
  00406446: 56                 push        esi
  00406447: 50                 push        eax
  00406448: 6A 00              push        0
  0040644A: FF 75 10           push        dword ptr [ebp+10h]
  0040644D: FF 75 18           push        dword ptr [ebp+18h]
  00406450: FF 15 08 80 40 00  call        dword ptr ds:[00408008h]
  00406456: FF 75 18           push        dword ptr [ebp+18h]
  00406459: 8B F8              mov         edi,eax
  0040645B: FF 15 10 80 40 00  call        dword ptr ds:[00408010h]
  00406461: 66 83 A6 FE 07 00  and         word ptr [esi+000007FEh],0
            00 00
  00406469: 85 FF              test        edi,edi
  0040646B: 5F                 pop         edi
  0040646C: 75 0C              jne         0040647A
  0040646E: 83 7D 0C 01        cmp         dword ptr [ebp+0Ch],1
  00406472: 74 0A              je          0040647E
  00406474: 83 7D 0C 02        cmp         dword ptr [ebp+0Ch],2
  00406478: 74 04              je          0040647E
  0040647A: 66 83 26 00        and         word ptr [esi],0
  0040647E: 5E                 pop         esi
  0040647F: C9                 leave
  00406480: C2 14 00           ret         14h
  00406483: FF 74 24 08        push        dword ptr [esp+8]
  00406487: 68 20 84 40 00     push        408420h
  0040648C: FF 74 24 0C        push        dword ptr [esp+0Ch]
  00406490: FF 15 54 82 40 00  call        dword ptr ds:[00408254h]
  00406496: 83 C4 0C           add         esp,0Ch
  00406499: C2 08 00           ret         8
  0040649C: 55                 push        ebp
  0040649D: 8B EC              mov         ebp,esp
  0040649F: 51                 push        ecx
  004064A0: 51                 push        ecx
  004064A1: 8B 4D 08           mov         ecx,dword ptr [ebp+8]
  004064A4: 83 65 FC 00        and         dword ptr [ebp-4],0
  004064A8: 53                 push        ebx
  004064A9: 56                 push        esi
  004064AA: 66 83 39 2D        cmp         word ptr [ecx],2Dh
  004064AE: 6A 0A              push        0Ah
  004064B0: 58                 pop         eax
  004064B1: C7 45 F8 01 00 00  mov         dword ptr [ebp-8],1
            00
  004064B8: 6A 39              push        39h
  004064BA: 5B                 pop         ebx
  004064BB: 75 06              jne         004064C3
  004064BD: 41                 inc         ecx
  004064BE: 41                 inc         ecx
  004064BF: 83 4D F8 FF        or          dword ptr [ebp-8],0FFFFFFFFh
  004064C3: 66 83 39 30        cmp         word ptr [ecx],30h
  004064C7: 75 27              jne         004064F0
  004064C9: 41                 inc         ecx
  004064CA: 41                 inc         ecx
  004064CB: 66 8B 11           mov         dx,word ptr [ecx]
  004064CE: 66 83 FA 30        cmp         dx,30h
  004064D2: 72 0C              jb          004064E0
  004064D4: 66 83 FA 37        cmp         dx,37h
  004064D8: 77 06              ja          004064E0
  004064DA: 6A 08              push        8
  004064DC: 58                 pop         eax
  004064DD: 6A 37              push        37h
  004064DF: 5B                 pop         ebx
  004064E0: 0F B7 D2           movzx       edx,dx
  004064E3: 83 E2 DF           and         edx,0FFFFFFDFh
  004064E6: 83 FA 58           cmp         edx,58h
  004064E9: 75 05              jne         004064F0
  004064EB: 6A 10              push        10h
  004064ED: 41                 inc         ecx
  004064EE: 58                 pop         eax
  004064EF: 41                 inc         ecx
  004064F0: 0F B7 11           movzx       edx,word ptr [ecx]
  004064F3: 41                 inc         ecx
  004064F4: 41                 inc         ecx
  004064F5: 83 FA 30           cmp         edx,30h
  004064F8: 7C 0C              jl          00406506
  004064FA: 0F B7 F3           movzx       esi,bx
  004064FD: 3B D6              cmp         edx,esi
  004064FF: 7F 05              jg          00406506
  00406501: 83 EA 30           sub         edx,30h
  00406504: EB 1B              jmp         00406521
  00406506: 66 3D 10 00        cmp         ax,10h
  0040650A: 75 23              jne         0040652F
  0040650C: 8B F2              mov         esi,edx
  0040650E: 83 E6 DF           and         esi,0FFFFFFDFh
  00406511: 83 FE 41           cmp         esi,41h
  00406514: 7C 19              jl          0040652F
  00406516: 83 FE 46           cmp         esi,46h
  00406519: 7F 14              jg          0040652F
  0040651B: 83 E2 07           and         edx,7
  0040651E: 83 C2 09           add         edx,9
  00406521: 0F B7 F0           movzx       esi,ax
  00406524: 0F AF 75 FC        imul        esi,dword ptr [ebp-4]
  00406528: 03 F2              add         esi,edx
  0040652A: 89 75 FC           mov         dword ptr [ebp-4],esi
  0040652D: EB C1              jmp         004064F0
  0040652F: 8B 45 F8           mov         eax,dword ptr [ebp-8]
  00406532: 5E                 pop         esi
  00406533: 0F AF 45 FC        imul        eax,dword ptr [ebp-4]
  00406537: 5B                 pop         ebx
  00406538: C9                 leave
  00406539: C2 04 00           ret         4
  0040653C: 68 00 04 00 00     push        400h
  00406541: FF 74 24 0C        push        dword ptr [esp+0Ch]
  00406545: FF 74 24 0C        push        dword ptr [esp+0Ch]
  00406549: FF 15 C0 80 40 00  call        dword ptr ds:[004080C0h]
  0040654F: C2 08 00           ret         8
  00406552: FF 25 C4 80 40 00  jmp         dword ptr ds:[004080C4h]
  00406558: FF 25 84 80 40 00  jmp         dword ptr ds:[00408084h]
  0040655E: 33 C0              xor         eax,eax
  00406560: 50                 push        eax
  00406561: 50                 push        eax
  00406562: FF 74 24 14        push        dword ptr [esp+14h]
  00406566: FF 74 24 14        push        dword ptr [esp+14h]
  0040656A: 6A FF              push        0FFFFFFFFh
  0040656C: FF 74 24 18        push        dword ptr [esp+18h]
  00406570: 50                 push        eax
  00406571: 50                 push        eax
  00406572: FF 15 BC 80 40 00  call        dword ptr ds:[004080BCh]
  00406578: C3                 ret
  00406579: 55                 push        ebp
  0040657A: 8B EC              mov         ebp,esp
  0040657C: 83 EC 18           sub         esp,18h
  0040657F: 8B 45 0C           mov         eax,dword ptr [ebp+0Ch]
  00406582: 85 C0              test        eax,eax
  00406584: 7D 11              jge         00406597
  00406586: 8B 0D 3C 92 42 00  mov         ecx,dword ptr ds:[0042923Ch]
  0040658C: 8D 04 85 04 00 00  lea         eax,[eax*4+00000004h]
            00
  00406593: 2B C8              sub         ecx,eax
  00406595: 8B 01              mov         eax,dword ptr [ecx]
  00406597: 8B 0D B8 A2 42 00  mov         ecx,dword ptr ds:[0042A2B8h]
  0040659D: 53                 push        ebx
  0040659E: 56                 push        esi
  0040659F: 57                 push        edi
  004065A0: 8D 14 41           lea         edx,[ecx+eax*2]
  004065A3: B8 00 82 42 00     mov         eax,428200h
  004065A8: 39 45 08           cmp         dword ptr [ebp+8],eax
  004065AB: 8B F0              mov         esi,eax
  004065AD: 0F 82 12 02 00 00  jb          004067C5
  004065B3: 8B 4D 08           mov         ecx,dword ptr [ebp+8]
  004065B6: 2B C8              sub         ecx,eax
  004065B8: D1 F9              sar         ecx,1
  004065BA: 81 F9 00 08 00 00  cmp         ecx,800h
  004065C0: 0F 83 FF 01 00 00  jae         004067C5
  004065C6: 8B 75 08           mov         esi,dword ptr [ebp+8]
  004065C9: 83 65 08 00        and         dword ptr [ebp+8],0
  004065CD: E9 F3 01 00 00     jmp         004067C5
  004065D2: 8B CE              mov         ecx,esi
  004065D4: 2B C8              sub         ecx,eax
  004065D6: 83 E1 FE           and         ecx,0FFFFFFFEh
  004065D9: 81 F9 00 08 00 00  cmp         ecx,800h
  004065DF: 0F 8D EC 01 00 00  jge         004067D1
  004065E5: 6A 02              push        2
  004065E7: 59                 pop         ecx
  004065E8: 03 D1              add         edx,ecx
  004065EA: 66 83 FF 04        cmp         di,4
  004065EE: 89 55 0C           mov         dword ptr [ebp+0Ch],edx
  004065F1: 0F 83 BB 01 00 00  jae         004067B2
  004065F7: 8A 4A 01           mov         cl,byte ptr [edx+1]
  004065FA: 8A 02              mov         al,byte ptr [edx]
  004065FC: 8A D1              mov         dl,cl
  004065FE: 8A D8              mov         bl,al
  00406600: 83 E2 7F           and         edx,7Fh
  00406603: 83 E3 7F           and         ebx,7Fh
  00406606: C1 E2 07           shl         edx,7
  00406609: 0F B6 C0           movzx       eax,al
  0040660C: 0B D3              or          edx,ebx
  0040660E: 8B D8              mov         ebx,eax
  00406610: 89 55 FC           mov         dword ptr [ebp-4],edx
  00406613: BA 00 80 00 00     mov         edx,8000h
  00406618: 0B DA              or          ebx,edx
  0040661A: 83 45 0C 02        add         dword ptr [ebp+0Ch],2
  0040661E: 89 5D E8           mov         dword ptr [ebp-18h],ebx
  00406621: 89 45 EC           mov         dword ptr [ebp-14h],eax
  00406624: 0F B6 D9           movzx       ebx,cl
  00406627: 8B CB              mov         ecx,ebx
  00406629: 89 5D F4           mov         dword ptr [ebp-0Ch],ebx
  0040662C: 0B CA              or          ecx,edx
  0040662E: 66 83 FF 02        cmp         di,2
  00406632: 89 4D F0           mov         dword ptr [ebp-10h],ecx
  00406635: 0F 85 1A 01 00 00  jne         00406755
  0040663B: 8B 0D 6C A2 42 00  mov         ecx,dword ptr ds:[0042A26Ch]
  00406641: 6A 02              push        2
  00406643: 85 C9              test        ecx,ecx
  00406645: 5F                 pop         edi
  00406646: 79 17              jns         0040665F
  00406648: 66 81 F9 04 5A     cmp         cx,5A04h
  0040664D: 74 10              je          0040665F
  0040664F: 83 FB 23           cmp         ebx,23h
  00406652: 74 0B              je          0040665F
  00406654: 83 FB 2E           cmp         ebx,2Eh
  00406657: 74 06              je          0040665F
  00406659: 83 65 FC 00        and         dword ptr [ebp-4],0
  0040665D: EB 07              jmp         00406666
  0040665F: C7 45 FC 01 00 00  mov         dword ptr [ebp-4],1
            00
  00406666: 83 3D 04 A3 42 00  cmp         dword ptr ds:[0042A304h],0
            00
  0040666D: 74 03              je          00406672
  0040666F: 6A 04              push        4
  00406671: 5F                 pop         edi
  00406672: 84 C0              test        al,al
  00406674: 79 39              jns         004066AF
  00406676: 8B C8              mov         ecx,eax
  00406678: 83 E0 3F           and         eax,3Fh
  0040667B: 83 E1 40           and         ecx,40h
  0040667E: 51                 push        ecx
  0040667F: 8B 0D B8 A2 42 00  mov         ecx,dword ptr ds:[0042A2B8h]
  00406685: 56                 push        esi
  00406686: 8D 04 41           lea         eax,[ecx+eax*2]
  00406689: 50                 push        eax
  0040668A: 68 28 84 40 00     push        408428h
  0040668F: 68 02 00 00 80     push        80000002h
  00406694: E8 71 FD FF FF     call        0040640A
  00406699: 66 83 3E 00        cmp         word ptr [esi],0
  0040669D: 0F 85 9A 00 00 00  jne         0040673D
  004066A3: 53                 push        ebx
  004066A4: 56                 push        esi
  004066A5: E8 CF FE FF FF     call        00406579
  004066AA: E9 85 00 00 00     jmp         00406734
  004066AF: 83 F8 25           cmp         eax,25h
  004066B2: 75 0E              jne         004066C2
  004066B4: 68 00 04 00 00     push        400h
  004066B9: 56                 push        esi
  004066BA: FF 15 80 80 40 00  call        dword ptr ds:[00408080h]
  004066C0: EB 72              jmp         00406734
  004066C2: 83 F8 24           cmp         eax,24h
  004066C5: 75 69              jne         00406730
  004066C7: 68 00 04 00 00     push        400h
  004066CC: 56                 push        esi
  004066CD: FF 15 D8 80 40 00  call        dword ptr ds:[004080D8h]
  004066D3: 33 FF              xor         edi,edi
  004066D5: EB 59              jmp         00406730
  004066D7: A1 64 A2 42 00     mov         eax,dword ptr ds:[0042A264h]
  004066DC: 33 C9              xor         ecx,ecx
  004066DE: 4F                 dec         edi
  004066DF: 3B C1              cmp         eax,ecx
  004066E1: 74 18              je          004066FB
  004066E3: 39 4D FC           cmp         dword ptr [ebp-4],ecx
  004066E6: 74 13              je          004066FB
  004066E8: 56                 push        esi
  004066E9: 51                 push        ecx
  004066EA: 51                 push        ecx
  004066EB: FF 74 BD E8        push        dword ptr [ebp+edi*4-18h]
  004066EF: FF 35 68 A2 42 00  push        dword ptr ds:[0042A268h]
  004066F5: FF D0              call        eax
  004066F7: 85 C0              test        eax,eax
  004066F9: 74 39              je          00406734
  004066FB: 8D 45 F8           lea         eax,[ebp-8]
  004066FE: 50                 push        eax
  004066FF: FF 74 BD E8        push        dword ptr [ebp+edi*4-18h]
  00406703: FF 35 68 A2 42 00  push        dword ptr ds:[0042A268h]
  00406709: FF 15 78 81 40 00  call        dword ptr ds:[00408178h]
  0040670F: 85 C0              test        eax,eax
  00406711: 75 19              jne         0040672C
  00406713: 56                 push        esi
  00406714: FF 75 F8           push        dword ptr [ebp-8]
  00406717: FF 15 84 81 40 00  call        dword ptr ds:[00408184h]
  0040671D: FF 75 F8           push        dword ptr [ebp-8]
  00406720: 8B D8              mov         ebx,eax
  00406722: FF 15 A8 82 40 00  call        dword ptr ds:[004082A8h]
  00406728: 85 DB              test        ebx,ebx
  0040672A: 75 08              jne         00406734
  0040672C: 66 83 26 00        and         word ptr [esi],0
  00406730: 85 FF              test        edi,edi
  00406732: 75 A3              jne         004066D7
  00406734: 66 83 3E 00        cmp         word ptr [esi],0
  00406738: 74 13              je          0040674D
  0040673A: 8B 5D F4           mov         ebx,dword ptr [ebp-0Ch]
  0040673D: 83 FB 1A           cmp         ebx,1Ah
  00406740: 75 0B              jne         0040674D
  00406742: 68 80 84 40 00     push        408480h
  00406747: 56                 push        esi
  00406748: E8 0B FE FF FF     call        00406558
  0040674D: 56                 push        esi
  0040674E: E8 98 00 00 00     call        004067EB
  00406753: EB 4A              jmp         0040679F
  00406755: 66 83 FF 03        cmp         di,3
  00406759: 75 31              jne         0040678C
  0040675B: 8B 7D FC           mov         edi,dword ptr [ebp-4]
  0040675E: 83 FF 1D           cmp         edi,1Dh
  00406761: 75 0E              jne         00406771
  00406763: FF 35 68 A2 42 00  push        dword ptr ds:[0042A268h]
  00406769: 56                 push        esi
  0040676A: E8 14 FD FF FF     call        00406483
  0040676F: EB 11              jmp         00406782
  00406771: 8B C7              mov         eax,edi
  00406773: C1 E0 0B           shl         eax,0Bh
  00406776: 05 00 B0 42 00     add         eax,42B000h
  0040677B: 50                 push        eax
  0040677C: 56                 push        esi
  0040677D: E8 BA FD FF FF     call        0040653C
  00406782: 83 C7 EB           add         edi,0FFFFFFEBh
  00406785: 83 FF 07           cmp         edi,7
  00406788: 73 15              jae         0040679F
  0040678A: EB C1              jmp         0040674D
  0040678C: 66 83 FF 01        cmp         di,1
  00406790: 75 0D              jne         0040679F
  00406792: 83 C8 FF           or          eax,0FFFFFFFFh
  00406795: 2B 45 FC           sub         eax,dword ptr [ebp-4]
  00406798: 50                 push        eax
  00406799: 56                 push        esi
  0040679A: E8 DA FD FF FF     call        00406579
  0040679F: 56                 push        esi
  004067A0: E8 AD FD FF FF     call        00406552
  004067A5: 8B 55 0C           mov         edx,dword ptr [ebp+0Ch]
  004067A8: 8D 34 46           lea         esi,[esi+eax*2]
  004067AB: B8 00 82 42 00     mov         eax,428200h
  004067B0: EB 13              jmp         004067C5
  004067B2: 75 0C              jne         004067C0
  004067B4: 66 8B 3A           mov         di,word ptr [edx]
  004067B7: 66 89 3E           mov         word ptr [esi],di
  004067BA: 03 F1              add         esi,ecx
  004067BC: 03 D1              add         edx,ecx
  004067BE: EB 05              jmp         004067C5
  004067C0: 66 89 3E           mov         word ptr [esi],di
  004067C3: 03 F1              add         esi,ecx
  004067C5: 66 8B 3A           mov         di,word ptr [edx]
  004067C8: 66 85 FF           test        di,di
  004067CB: 0F 85 01 FE FF FF  jne         004065D2
  004067D1: 66 83 26 00        and         word ptr [esi],0
  004067D5: 83 7D 08 00        cmp         dword ptr [ebp+8],0
  004067D9: 5F                 pop         edi
  004067DA: 5E                 pop         esi
  004067DB: 5B                 pop         ebx
  004067DC: 74 09              je          004067E7
  004067DE: 50                 push        eax
  004067DF: FF 75 08           push        dword ptr [ebp+8]
  004067E2: E8 55 FD FF FF     call        0040653C
  004067E7: C9                 leave
  004067E8: C2 08 00           ret         8
  004067EB: 55                 push        ebp
  004067EC: 56                 push        esi
  004067ED: 8B 74 24 0C        mov         esi,dword ptr [esp+0Ch]
  004067F1: 57                 push        edi
  004067F2: 66 83 3E 5C        cmp         word ptr [esi],5Ch
  004067F6: 75 18              jne         00406810
  004067F8: 66 83 7E 02 5C     cmp         word ptr [esi+2],5Ch
  004067FD: 75 11              jne         00406810
  004067FF: 66 83 7E 04 3F     cmp         word ptr [esi+4],3Fh
  00406804: 75 0A              jne         00406810
  00406806: 66 83 7E 06 5C     cmp         word ptr [esi+6],5Ch
  0040680B: 75 03              jne         00406810
  0040680D: 83 C6 08           add         esi,8
  00406810: 66 83 3E 00        cmp         word ptr [esi],0
  00406814: 74 0D              je          00406823
  00406816: 56                 push        esi
  00406817: E8 6C F6 FF FF     call        00405E88
  0040681C: 85 C0              test        eax,eax
  0040681E: 74 03              je          00406823
  00406820: 83 C6 04           add         esi,4
  00406823: 66 8B 06           mov         ax,word ptr [esi]
  00406826: 8B EE              mov         ebp,esi
  00406828: 66 85 C0           test        ax,ax
  0040682B: 8B FE              mov         edi,esi
  0040682D: 74 40              je          0040686F
  0040682F: 53                 push        ebx
  00406830: 8B 1D 30 82 40 00  mov         ebx,dword ptr ds:[00408230h]
  00406836: 66 3D 1F 00        cmp         ax,1Fh
  0040683A: 76 25              jbe         00406861
  0040683C: 50                 push        eax
  0040683D: 68 CC A5 40 00     push        40A5CCh
  00406842: E8 F7 F5 FF FF     call        00405E3E
  00406847: 66 83 38 00        cmp         word ptr [eax],0
  0040684B: 75 14              jne         00406861
  0040684D: 56                 push        esi
  0040684E: FF D3              call        ebx
  00406850: 2B C6              sub         eax,esi
  00406852: D1 F8              sar         eax,1
  00406854: 50                 push        eax
  00406855: 56                 push        esi
  00406856: 57                 push        edi
  00406857: E8 91 F7 FF FF     call        00405FED
  0040685C: 57                 push        edi
  0040685D: FF D3              call        ebx
  0040685F: 8B F8              mov         edi,eax
  00406861: 56                 push        esi
  00406862: FF D3              call        ebx
  00406864: 8B F0              mov         esi,eax
  00406866: 66 8B 06           mov         ax,word ptr [esi]
  00406869: 66 85 C0           test        ax,ax
  0040686C: 75 C8              jne         00406836
  0040686E: 5B                 pop         ebx
  0040686F: 66 83 27 00        and         word ptr [edi],0
  00406873: 57                 push        edi
  00406874: 55                 push        ebp
  00406875: FF 15 B0 81 40 00  call        dword ptr ds:[004081B0h]
  0040687B: 8B F8              mov         edi,eax
  0040687D: 66 8B 07           mov         ax,word ptr [edi]
  00406880: 66 3D 20 00        cmp         ax,20h
  00406884: 74 06              je          0040688C
  00406886: 66 3D 5C 00        cmp         ax,5Ch
  0040688A: 75 08              jne         00406894
  0040688C: 66 83 27 00        and         word ptr [edi],0
  00406890: 3B EF              cmp         ebp,edi
  00406892: 72 DF              jb          00406873
  00406894: 5F                 pop         edi
  00406895: 5E                 pop         esi
  00406896: 5D                 pop         ebp
  00406897: C2 04 00           ret         4
  0040689A: 56                 push        esi
  0040689B: BE 98 67 42 00     mov         esi,426798h
  004068A0: 56                 push        esi
  004068A1: FF 74 24 0C        push        dword ptr [esp+0Ch]
  004068A5: FF 15 6C 81 40 00  call        dword ptr ds:[0040816Ch]
  004068AB: 83 F8 FF           cmp         eax,0FFFFFFFFh
  004068AE: 74 0B              je          004068BB
  004068B0: 50                 push        eax
  004068B1: FF 15 64 81 40 00  call        dword ptr ds:[00408164h]
  004068B7: 8B C6              mov         eax,esi
  004068B9: EB 02              jmp         004068BD
  004068BB: 33 C0              xor         eax,eax
  004068BD: 5E                 pop         esi
  004068BE: C2 04 00           ret         4
  004068C1: 55                 push        ebp
  004068C2: 8B EC              mov         ebp,esp
  004068C4: 81 EC 3C 02 00 00  sub         esp,23Ch
  004068CA: 56                 push        esi
  004068CB: BE 04 01 00 00     mov         esi,104h
  004068D0: 8D 85 C4 FD FF FF  lea         eax,[ebp+FFFFFDC4h]
  004068D6: 56                 push        esi
  004068D7: 50                 push        eax
  004068D8: FF 15 80 80 40 00  call        dword ptr ds:[00408080h]
  004068DE: 3B C6              cmp         eax,esi
  004068E0: 5E                 pop         esi
  004068E1: 76 02              jbe         004068E5
  004068E3: 33 C0              xor         eax,eax
  004068E5: 85 C0              test        eax,eax
  004068E7: 74 0F              je          004068F8
  004068E9: 66 83 BC 45 C2 FD  cmp         word ptr [ebp+eax*2+FFFFFDC2h],5Ch
            FF FF 5C
  004068F2: 74 04              je          004068F8
  004068F4: 33 C9              xor         ecx,ecx
  004068F6: EB 03              jmp         004068FB
  004068F8: 33 C9              xor         ecx,ecx
  004068FA: 41                 inc         ecx
  004068FB: FF 75 08           push        dword ptr [ebp+8]
  004068FE: 8D 0C 4D 14 A0 40  lea         ecx,[ecx*2+0040A014h]
            00
  00406905: 8D 84 45 C4 FD FF  lea         eax,[ebp+eax*2+FFFFFDC4h]
            FF
  0040690C: 51                 push        ecx
  0040690D: 68 E0 A5 40 00     push        40A5E0h
  00406912: 50                 push        eax
  00406913: FF 15 54 82 40 00  call        dword ptr ds:[00408254h]
  00406919: 83 C4 10           add         esp,10h
  0040691C: 8D 85 C4 FD FF FF  lea         eax,[ebp+FFFFFDC4h]
  00406922: 6A 08              push        8
  00406924: 6A 00              push        0
  00406926: 50                 push        eax
  00406927: FF 15 40 81 40 00  call        dword ptr ds:[00408140h]
  0040692D: C9                 leave
  0040692E: C2 04 00           ret         4
  00406931: 8B 44 24 04        mov         eax,dword ptr [esp+4]
  00406935: 56                 push        esi
  00406936: 8B F0              mov         esi,eax
  00406938: 57                 push        edi
  00406939: C1 E6 03           shl         esi,3
  0040693C: 8B BE 10 A4 40 00  mov         edi,dword ptr [esi+0040A410h]
  00406942: 57                 push        edi
  00406943: FF 15 78 80 40 00  call        dword ptr ds:[00408078h]
  00406949: 85 C0              test        eax,eax
  0040694B: 75 0A              jne         00406957
  0040694D: 57                 push        edi
  0040694E: E8 6E FF FF FF     call        004068C1
  00406953: 85 C0              test        eax,eax
  00406955: 74 0F              je          00406966
  00406957: FF B6 14 A4 40 00  push        dword ptr [esi+0040A414h]
  0040695D: 50                 push        eax
  0040695E: FF 15 7C 80 40 00  call        dword ptr ds:[0040807Ch]
  00406964: EB 02              jmp         00406968
  00406966: 33 C0              xor         eax,eax
  00406968: 5F                 pop         edi
  00406969: 5E                 pop         esi
  0040696A: C2 04 00           ret         4
  0040696D: 55                 push        ebp
  0040696E: 8B EC              mov         ebp,esp
  00406970: 83 EC 1C           sub         esp,1Ch
  00406973: 56                 push        esi
  00406974: 8B 75 08           mov         esi,dword ptr [ebp+8]
  00406977: 57                 push        edi
  00406978: 8B 3D 00 82 40 00  mov         edi,dword ptr ds:[00408200h]
  0040697E: EB 0A              jmp         0040698A
  00406980: 8D 45 E4           lea         eax,[ebp-1Ch]
  00406983: 50                 push        eax
  00406984: FF 15 A4 81 40 00  call        dword ptr ds:[004081A4h]
  0040698A: 6A 01              push        1
  0040698C: 56                 push        esi
  0040698D: 56                 push        esi
  0040698E: 8D 45 E4           lea         eax,[ebp-1Ch]
  00406991: 6A 00              push        0
  00406993: 50                 push        eax
  00406994: FF D7              call        edi
  00406996: 85 C0              test        eax,eax
  00406998: 75 E6              jne         00406980
  0040699A: 5F                 pop         edi
  0040699B: 5E                 pop         esi
  0040699C: C9                 leave
  0040699D: C2 04 00           ret         4
  004069A0: 55                 push        ebp
  004069A1: 8B EC              mov         ebp,esp
  004069A3: 81 EC 00 01 00 00  sub         esp,100h
  004069A9: 8D 85 00 FF FF FF  lea         eax,[ebp+FFFFFF00h]
  004069AF: 68 00 01 00 00     push        100h
  004069B4: 50                 push        eax
  004069B5: FF 75 0C           push        dword ptr [ebp+0Ch]
  004069B8: E8 A1 FB FF FF     call        0040655E
  004069BD: 83 C4 0C           add         esp,0Ch
  004069C0: 85 C0              test        eax,eax
  004069C2: 74 12              je          004069D6
  004069C4: 8D 85 00 FF FF FF  lea         eax,[ebp+FFFFFF00h]
  004069CA: 50                 push        eax
  004069CB: FF 75 08           push        dword ptr [ebp+8]
  004069CE: FF 15 7C 80 40 00  call        dword ptr ds:[0040807Ch]
  004069D4: EB 02              jmp         004069D8
  004069D6: 33 C0              xor         eax,eax
  004069D8: C9                 leave
  004069D9: C2 08 00           ret         8
  004069DC: 55                 push        ebp
  004069DD: 8B EC              mov         ebp,esp
  004069DF: 51                 push        ecx
  004069E0: 56                 push        esi
  004069E1: 8B 35 74 80 40 00  mov         esi,dword ptr ds:[00408074h]
  004069E7: 57                 push        edi
  004069E8: 6A 64              push        64h
  004069EA: FF 75 08           push        dword ptr [ebp+8]
  004069ED: FF D6              call        esi
  004069EF: BF 02 01 00 00     mov         edi,102h
  004069F4: EB 0E              jmp         00406A04
  004069F6: 6A 0F              push        0Fh
  004069F8: E8 70 FF FF FF     call        0040696D
  004069FD: 6A 64              push        64h
  004069FF: FF 75 08           push        dword ptr [ebp+8]
  00406A02: FF D6              call        esi
  00406A04: 3B C7              cmp         eax,edi
  00406A06: 74 EE              je          004069F6
  00406A08: 8D 45 FC           lea         eax,[ebp-4]
  00406A0B: 50                 push        eax
  00406A0C: FF 75 08           push        dword ptr [ebp+8]
  00406A0F: FF 15 70 80 40 00  call        dword ptr ds:[00408070h]
  00406A15: 8B 45 FC           mov         eax,dword ptr [ebp-4]
  00406A18: 5F                 pop         edi
  00406A19: 5E                 pop         esi
  00406A1A: C9                 leave
  00406A1B: C2 04 00           ret         4
  00406A1E: 83 3D EC 7D 42 00  cmp         dword ptr ds:[00427DECh],0
            00
  00406A25: 56                 push        esi
  00406A26: 75 2D              jne         00406A55
  00406A28: 33 C9              xor         ecx,ecx
  00406A2A: 6A 08              push        8
  00406A2C: 8B C1              mov         eax,ecx
  00406A2E: 5E                 pop         esi
  00406A2F: 8B D0              mov         edx,eax
  00406A31: 80 E2 01           and         dl,1
  00406A34: F6 DA              neg         dl
  00406A36: 1B D2              sbb         edx,edx
  00406A38: 81 E2 20 83 B8 ED  and         edx,0EDB88320h
  00406A3E: D1 E8              shr         eax,1
  00406A40: 33 C2              xor         eax,edx
  00406A42: 4E                 dec         esi
  00406A43: 75 EA              jne         00406A2F
  00406A45: 89 04 8D E8 7D 42  mov         dword ptr [ecx*4+00427DE8h],eax
            00
  00406A4C: 41                 inc         ecx
  00406A4D: 81 F9 00 01 00 00  cmp         ecx,100h
  00406A53: 7C D5              jl          00406A2A
  00406A55: 8B 54 24 10        mov         edx,dword ptr [esp+10h]
  00406A59: 8B 44 24 08        mov         eax,dword ptr [esp+8]
  00406A5D: 85 D2              test        edx,edx
  00406A5F: F7 D0              not         eax
  00406A61: 76 23              jbe         00406A86
  00406A63: 8B 4C 24 0C        mov         ecx,dword ptr [esp+0Ch]
  00406A67: 57                 push        edi
  00406A68: 0F B6 39           movzx       edi,byte ptr [ecx]
  00406A6B: 8B F0              mov         esi,eax
  00406A6D: 81 E6 FF 00 00 00  and         esi,0FFh
  00406A73: 33 F7              xor         esi,edi
  00406A75: C1 E8 08           shr         eax,8
  00406A78: 8B 34 B5 E8 7D 42  mov         esi,dword ptr [esi*4+00427DE8h]
            00
  00406A7F: 33 C6              xor         eax,esi
  00406A81: 41                 inc         ecx
  00406A82: 4A                 dec         edx
  00406A83: 75 E3              jne         00406A68
  00406A85: 5F                 pop         edi
  00406A86: F7 D0              not         eax
  00406A88: 5E                 pop         esi
  00406A89: C2 0C 00           ret         0Ch
  00406A8C: B8 80 00 00 00     mov         eax,80h
  00406A91: 48                 dec         eax
  00406A92: C6 04 08 00        mov         byte ptr [eax+ecx],0
  00406A96: 75 F9              jne         00406A91
  00406A98: 83 49 78 FF        or          dword ptr [ecx+78h],0FFFFFFFFh
  00406A9C: 33 C0              xor         eax,eax
  00406A9E: 40                 inc         eax
  00406A9F: 89 41 68           mov         dword ptr [ecx+68h],eax
  00406AA2: 89 41 64           mov         dword ptr [ecx+64h],eax
  00406AA5: 89 41 60           mov         dword ptr [ecx+60h],eax
  00406AA8: 89 41 5C           mov         dword ptr [ecx+5Ch],eax
  00406AAB: C3                 ret
  00406AAC: 55                 push        ebp
  00406AAD: 8B EC              mov         ebp,esp
  00406AAF: 81 EC 90 00 00 00  sub         esp,90h
  00406AB5: 53                 push        ebx
  00406AB6: 56                 push        esi
  00406AB7: 57                 push        edi
  00406AB8: 6A 22              push        22h
  00406ABA: 8B F1              mov         esi,ecx
  00406ABC: 59                 pop         ecx
  00406ABD: 8D BD 78 FF FF FF  lea         edi,[ebp+FFFFFF78h]
  00406AC3: 89 B5 70 FF FF FF  mov         dword ptr [ebp+FFFFFF70h],esi
  00406AC9: F3 A5              rep movs    dword ptr es:[edi],dword ptr [esi]
  00406ACB: 83 7D D0 FF        cmp         dword ptr [ebp-30h],0FFFFFFFFh
  00406ACF: 75 08              jne         00406AD9
  00406AD1: 33 C0              xor         eax,eax
  00406AD3: 40                 inc         eax
  00406AD4: E9 20 0A 00 00     jmp         004074F9
  00406AD9: 8B 5D BC           mov         ebx,dword ptr [ebp-44h]
  00406ADC: 8B 75 AC           mov         esi,dword ptr [ebp-54h]
  00406ADF: 8B 85 78 FF FF FF  mov         eax,dword ptr [ebp+FFFFFF78h]
  00406AE5: 83 F8 1C           cmp         eax,1Ch
  00406AE8: 0F 87 08 0A 00 00  ja          004074F6
  00406AEE: FF 24 85 FE 74 40  jmp         dword ptr [eax*4+004074FEh]
            00
  00406AF5: 83 7D 94 00        cmp         dword ptr [ebp-6Ch],0
  00406AF9: 0F 84 E2 09 00 00  je          004074E1
  00406AFF: 8B 45 90           mov         eax,dword ptr [ebp-70h]
  00406B02: FF 4D 94           dec         dword ptr [ebp-6Ch]
  00406B05: FF 45 90           inc         dword ptr [ebp-70h]
  00406B08: 8A 00              mov         al,byte ptr [eax]
  00406B0A: 3C E1              cmp         al,0E1h
  00406B0C: 0F 87 E4 09 00 00  ja          004074F6
  00406B12: 0F B6 C0           movzx       eax,al
  00406B15: 6A 2D              push        2Dh
  00406B17: 99                 cdq
  00406B18: 59                 pop         ecx
  00406B19: F7 F9              idiv        eax,ecx
  00406B1B: 6A 09              push        9
  00406B1D: 59                 pop         ecx
  00406B1E: 8B F0              mov         esi,eax
  00406B20: 0F B6 C2           movzx       eax,dl
  00406B23: 99                 cdq
  00406B24: F7 F9              idiv        eax,ecx
  00406B26: 8B CE              mov         ecx,esi
  00406B28: 0F B6 FA           movzx       edi,dl
  00406B2B: 33 D2              xor         edx,edx
  00406B2D: 89 7D C4           mov         dword ptr [ebp-3Ch],edi
  00406B30: 42                 inc         edx
  00406B31: D3 E2              shl         edx,cl
  00406B33: 8B C8              mov         ecx,eax
  00406B35: 4A                 dec         edx
  00406B36: 89 55 E4           mov         dword ptr [ebp-1Ch],edx
  00406B39: 33 D2              xor         edx,edx
  00406B3B: 42                 inc         edx
  00406B3C: D3 E2              shl         edx,cl
  00406B3E: 8D 0C 37           lea         ecx,[edi+esi]
  00406B41: BE 00 03 00 00     mov         esi,300h
  00406B46: D3 E6              shl         esi,cl
  00406B48: 4A                 dec         edx
  00406B49: 89 55 E8           mov         dword ptr [ebp-18h],edx
  00406B4C: 81 C6 36 07 00 00  add         esi,736h
  00406B52: 8D 3C 36           lea         edi,[esi+esi]
  00406B55: 3B 7D 88           cmp         edi,dword ptr [ebp-78h]
  00406B58: 74 26              je          00406B80
  00406B5A: 83 7D FC 00        cmp         dword ptr [ebp-4],0
  00406B5E: 74 09              je          00406B69
  00406B60: FF 75 FC           push        dword ptr [ebp-4]
  00406B63: FF 15 34 81 40 00  call        dword ptr ds:[00408134h]
  00406B69: 57                 push        edi
  00406B6A: 6A 40              push        40h
  00406B6C: FF 15 38 81 40 00  call        dword ptr ds:[00408138h]
  00406B72: 85 C0              test        eax,eax
  00406B74: 89 45 FC           mov         dword ptr [ebp-4],eax
  00406B77: 0F 84 79 09 00 00  je          004074F6
  00406B7D: 89 7D 88           mov         dword ptr [ebp-78h],edi
  00406B80: 85 F6              test        esi,esi
  00406B82: 74 0C              je          00406B90
  00406B84: 8B 45 FC           mov         eax,dword ptr [ebp-4]
  00406B87: 4E                 dec         esi
  00406B88: 66 C7 04 70 00 04  mov         word ptr [eax+esi*2],400h
  00406B8E: 75 F4              jne         00406B84
  00406B90: 83 65 B8 00        and         dword ptr [ebp-48h],0
  00406B94: 83 65 C0 00        and         dword ptr [ebp-40h],0
  00406B98: EB 26              jmp         00406BC0
  00406B9A: 83 7D 94 00        cmp         dword ptr [ebp-6Ch],0
  00406B9E: 0F 84 A6 08 00 00  je          0040744A
  00406BA4: 8B 45 B8           mov         eax,dword ptr [ebp-48h]
  00406BA7: FF 4D 94           dec         dword ptr [ebp-6Ch]
  00406BAA: 8B C8              mov         ecx,eax
  00406BAC: 8B 45 90           mov         eax,dword ptr [ebp-70h]
  00406BAF: C1 E1 03           shl         ecx,3
  00406BB2: 0F B6 00           movzx       eax,byte ptr [eax]
  00406BB5: D3 E0              shl         eax,cl
  00406BB7: 09 45 C0           or          dword ptr [ebp-40h],eax
  00406BBA: FF 45 90           inc         dword ptr [ebp-70h]
  00406BBD: FF 45 B8           inc         dword ptr [ebp-48h]
  00406BC0: 83 7D B8 04        cmp         dword ptr [ebp-48h],4
  00406BC4: 7C D4              jl          00406B9A
  00406BC6: 8B 45 C0           mov         eax,dword ptr [ebp-40h]
  00406BC9: 3B 45 8C           cmp         eax,dword ptr [ebp-74h]
  00406BCC: 74 28              je          00406BF6
  00406BCE: 83 7D F8 00        cmp         dword ptr [ebp-8],0
  00406BD2: 89 45 8C           mov         dword ptr [ebp-74h],eax
  00406BD5: 74 09              je          00406BE0
  00406BD7: FF 75 F8           push        dword ptr [ebp-8]
  00406BDA: FF 15 34 81 40 00  call        dword ptr ds:[00408134h]
  00406BE0: FF 75 C0           push        dword ptr [ebp-40h]
  00406BE3: 6A 40              push        40h
  00406BE5: FF 15 38 81 40 00  call        dword ptr ds:[00408138h]
  00406BEB: 85 C0              test        eax,eax
  00406BED: 89 45 F8           mov         dword ptr [ebp-8],eax
  00406BF0: 0F 84 00 09 00 00  je          004074F6
  00406BF6: 8B 45 F8           mov         eax,dword ptr [ebp-8]
  00406BF9: 8B 4D 8C           mov         ecx,dword ptr [ebp-74h]
  00406BFC: C7 45 B8 05 00 00  mov         dword ptr [ebp-48h],5
            00
  00406C03: 80 64 08 FF 00     and         byte ptr [eax+ecx-1],0
  00406C08: EB 21              jmp         00406C2B
  00406C0A: 83 7D 94 00        cmp         dword ptr [ebp-6Ch],0
  00406C0E: 0F 84 45 08 00 00  je          00407459
  00406C14: 8B 4D 90           mov         ecx,dword ptr [ebp-70h]
  00406C17: 8B 45 F4           mov         eax,dword ptr [ebp-0Ch]
  00406C1A: FF 4D 94           dec         dword ptr [ebp-6Ch]
  00406C1D: 0F B6 09           movzx       ecx,byte ptr [ecx]
  00406C20: C1 E0 08           shl         eax,8
  00406C23: 0B C1              or          eax,ecx
  00406C25: FF 45 90           inc         dword ptr [ebp-70h]
  00406C28: 89 45 F4           mov         dword ptr [ebp-0Ch],eax
  00406C2B: 8B 45 B8           mov         eax,dword ptr [ebp-48h]
  00406C2E: FF 4D B8           dec         dword ptr [ebp-48h]
  00406C31: 85 C0              test        eax,eax
  00406C33: 75 D5              jne         00406C0A
  00406C35: 8B 45 A0           mov         eax,dword ptr [ebp-60h]
  00406C38: 8B 4D C8           mov         ecx,dword ptr [ebp-38h]
  00406C3B: 23 45 E4           and         eax,dword ptr [ebp-1Ch]
  00406C3E: C7 85 7C FF FF FF  mov         dword ptr [ebp+FFFFFF7Ch],6
            06 00 00 00
  00406C48: C1 E1 04           shl         ecx,4
  00406C4B: 89 45 B4           mov         dword ptr [ebp-4Ch],eax
  00406C4E: 03 C8              add         ecx,eax
  00406C50: 8B 45 FC           mov         eax,dword ptr [ebp-4]
  00406C53: 8D 34 48           lea         esi,[eax+ecx*2]
  00406C56: E9 6C 06 00 00     jmp         004072C7
  00406C5B: 33 D2              xor         edx,edx
  00406C5D: 39 55 C0           cmp         dword ptr [ebp-40h],edx
  00406C60: 75 6F              jne         00406CD1
  00406C62: 0F B6 45 A4        movzx       eax,byte ptr [ebp-5Ch]
  00406C66: 8B 75 A0           mov         esi,dword ptr [ebp-60h]
  00406C69: B1 08              mov         cl,8
  00406C6B: 2A 4D C4           sub         cl,byte ptr [ebp-3Ch]
  00406C6E: 23 75 E8           and         esi,dword ptr [ebp-18h]
  00406C71: D3 E8              shr         eax,cl
  00406C73: 8B 4D C4           mov         ecx,dword ptr [ebp-3Ch]
  00406C76: D3 E6              shl         esi,cl
  00406C78: 8B 4D FC           mov         ecx,dword ptr [ebp-4]
  00406C7B: 03 C6              add         eax,esi
  00406C7D: 8D 04 40           lea         eax,[eax+eax*2]
  00406C80: C1 E0 09           shl         eax,9
  00406C83: 83 7D C8 04        cmp         dword ptr [ebp-38h],4
  00406C87: 8D 84 08 6C 0E 00  lea         eax,[eax+ecx+00000E6Ch]
            00
  00406C8E: 89 45 A8           mov         dword ptr [ebp-58h],eax
  00406C91: 7D 05              jge         00406C98
  00406C93: 89 55 C8           mov         dword ptr [ebp-38h],edx
  00406C96: EB 10              jmp         00406CA8
  00406C98: 83 7D C8 0A        cmp         dword ptr [ebp-38h],0Ah
  00406C9C: 7D 06              jge         00406CA4
  00406C9E: 83 6D C8 03        sub         dword ptr [ebp-38h],3
  00406CA2: EB 04              jmp         00406CA8
  00406CA4: 83 6D C8 06        sub         dword ptr [ebp-38h],6
  00406CA8: 39 55 CC           cmp         dword ptr [ebp-34h],edx
  00406CAB: 74 1C              je          00406CC9
  00406CAD: 8B 45 EC           mov         eax,dword ptr [ebp-14h]
  00406CB0: 2B 45 D4           sub         eax,dword ptr [ebp-2Ch]
  00406CB3: 3B 45 8C           cmp         eax,dword ptr [ebp-74h]
  00406CB6: 72 03              jb          00406CBB
  00406CB8: 03 45 8C           add         eax,dword ptr [ebp-74h]
  00406CBB: 8B 4D F8           mov         ecx,dword ptr [ebp-8]
  00406CBE: 33 DB              xor         ebx,ebx
  00406CC0: 43                 inc         ebx
  00406CC1: 8A 04 08           mov         al,byte ptr [eax+ecx]
  00406CC4: 88 45 A5           mov         byte ptr [ebp-5Bh],al
  00406CC7: EB 68              jmp         00406D31
  00406CC9: 33 DB              xor         ebx,ebx
  00406CCB: 43                 inc         ebx
  00406CCC: E9 CD 01 00 00     jmp         00406E9E
  00406CD1: 8B 45 FC           mov         eax,dword ptr [ebp-4]
  00406CD4: 8B 4D C8           mov         ecx,dword ptr [ebp-38h]
  00406CD7: C7 45 CC 01 00 00  mov         dword ptr [ebp-34h],1
            00
  00406CDE: C7 85 7C FF FF FF  mov         dword ptr [ebp+FFFFFF7Ch],7
            07 00 00 00
  00406CE8: 8D B4 48 80 01 00  lea         esi,[eax+ecx*2+00000180h]
            00
  00406CEF: E9 D3 05 00 00     jmp         004072C7
  00406CF4: 83 7D 94 00        cmp         dword ptr [ebp-6Ch],0
  00406CF8: 0F 84 67 07 00 00  je          00407465
  00406CFE: 8B 4D 90           mov         ecx,dword ptr [ebp-70h]
  00406D01: 8B 45 F4           mov         eax,dword ptr [ebp-0Ch]
  00406D04: C1 65 F0 08        shl         dword ptr [ebp-10h],8
  00406D08: 0F B6 09           movzx       ecx,byte ptr [ecx]
  00406D0B: FF 4D 94           dec         dword ptr [ebp-6Ch]
  00406D0E: C1 E0 08           shl         eax,8
  00406D11: 0B C1              or          eax,ecx
  00406D13: FF 45 90           inc         dword ptr [ebp-70h]
  00406D16: 89 45 F4           mov         dword ptr [ebp-0Ch],eax
  00406D19: 8B 45 C0           mov         eax,dword ptr [ebp-40h]
  00406D1C: 39 45 B8           cmp         dword ptr [ebp-48h],eax
  00406D1F: 0F 85 AD 00 00 00  jne         00406DD2
  00406D25: 81 FB 00 01 00 00  cmp         ebx,100h
  00406D2B: 0F 8D 05 01 00 00  jge         00406E36
  00406D31: 0F B6 45 A5        movzx       eax,byte ptr [ebp-5Bh]
  00406D35: D0 65 A5           shl         byte ptr [ebp-5Bh],1
  00406D38: 8B 4D A8           mov         ecx,dword ptr [ebp-58h]
  00406D3B: C1 E8 07           shr         eax,7
  00406D3E: 89 45 B8           mov         dword ptr [ebp-48h],eax
  00406D41: 40                 inc         eax
  00406D42: C1 E0 08           shl         eax,8
  00406D45: 03 C3              add         eax,ebx
  00406D47: 8D 34 41           lea         esi,[ecx+eax*2]
  00406D4A: 8B 4D F0           mov         ecx,dword ptr [ebp-10h]
  00406D4D: C1 E9 0B           shr         ecx,0Bh
  00406D50: 66 8B 06           mov         ax,word ptr [esi]
  00406D53: 89 75 AC           mov         dword ptr [ebp-54h],esi
  00406D56: 0F B7 D0           movzx       edx,ax
  00406D59: 0F AF CA           imul        ecx,edx
  00406D5C: 39 4D F4           cmp         dword ptr [ebp-0Ch],ecx
  00406D5F: 73 1A              jae         00406D7B
  00406D61: 83 65 C0 00        and         dword ptr [ebp-40h],0
  00406D65: 89 4D F0           mov         dword ptr [ebp-10h],ecx
  00406D68: B9 00 08 00 00     mov         ecx,800h
  00406D6D: 2B CA              sub         ecx,edx
  00406D6F: C1 F9 05           sar         ecx,5
  00406D72: 03 C8              add         ecx,eax
  00406D74: 03 DB              add         ebx,ebx
  00406D76: 66 89 0E           mov         word ptr [esi],cx
  00406D79: EB 1D              jmp         00406D98
  00406D7B: 29 4D F0           sub         dword ptr [ebp-10h],ecx
  00406D7E: 29 4D F4           sub         dword ptr [ebp-0Ch],ecx
  00406D81: 66 8B C8           mov         cx,ax
  00406D84: C7 45 C0 01 00 00  mov         dword ptr [ebp-40h],1
            00
  00406D8B: 66 C1 E9 05        shr         cx,5
  00406D8F: 2B C1              sub         eax,ecx
  00406D91: 8D 5C 1B 01        lea         ebx,[ebx+ebx+1]
  00406D95: 66 89 06           mov         word ptr [esi],ax
  00406D98: 81 7D F0 00 00 00  cmp         dword ptr [ebp-10h],1000000h
            01
  00406D9F: 89 5D BC           mov         dword ptr [ebp-44h],ebx
  00406DA2: 0F 83 71 FF FF FF  jae         00406D19
  00406DA8: E9 47 FF FF FF     jmp         00406CF4
  00406DAD: 83 7D 94 00        cmp         dword ptr [ebp-6Ch],0
  00406DB1: 0F 84 BA 06 00 00  je          00407471
  00406DB7: 8B 4D 90           mov         ecx,dword ptr [ebp-70h]
  00406DBA: 8B 45 F4           mov         eax,dword ptr [ebp-0Ch]
  00406DBD: C1 65 F0 08        shl         dword ptr [ebp-10h],8
  00406DC1: 0F B6 09           movzx       ecx,byte ptr [ecx]
  00406DC4: FF 4D 94           dec         dword ptr [ebp-6Ch]
  00406DC7: C1 E0 08           shl         eax,8
  00406DCA: 0B C1              or          eax,ecx
  00406DCC: FF 45 90           inc         dword ptr [ebp-70h]
  00406DCF: 89 45 F4           mov         dword ptr [ebp-0Ch],eax
  00406DD2: 81 FB 00 01 00 00  cmp         ebx,100h
  00406DD8: 7D 5C              jge         00406E36
  00406DDA: 8B 45 A8           mov         eax,dword ptr [ebp-58h]
  00406DDD: 8D 14 1B           lea         edx,[ebx+ebx]
  00406DE0: 8B 4D F0           mov         ecx,dword ptr [ebp-10h]
  00406DE3: 8D 34 02           lea         esi,[edx+eax]
  00406DE6: C1 E9 0B           shr         ecx,0Bh
  00406DE9: 66 8B 06           mov         ax,word ptr [esi]
  00406DEC: 89 75 AC           mov         dword ptr [ebp-54h],esi
  00406DEF: 0F B7 F8           movzx       edi,ax
  00406DF2: 0F AF CF           imul        ecx,edi
  00406DF5: 39 4D F4           cmp         dword ptr [ebp-0Ch],ecx
  00406DF8: 73 16              jae         00406E10
  00406DFA: 89 4D F0           mov         dword ptr [ebp-10h],ecx
  00406DFD: B9 00 08 00 00     mov         ecx,800h
  00406E02: 2B CF              sub         ecx,edi
  00406E04: C1 F9 05           sar         ecx,5
  00406E07: 03 C8              add         ecx,eax
  00406E09: 03 DB              add         ebx,ebx
  00406E0B: 66 89 0E           mov         word ptr [esi],cx
  00406E0E: EB 15              jmp         00406E25
  00406E10: 29 4D F0           sub         dword ptr [ebp-10h],ecx
  00406E13: 29 4D F4           sub         dword ptr [ebp-0Ch],ecx
  00406E16: 66 8B C8           mov         cx,ax
  00406E19: 8D 5A 01           lea         ebx,[edx+1]
  00406E1C: 66 C1 E9 05        shr         cx,5
  00406E20: 2B C1              sub         eax,ecx
  00406E22: 66 89 06           mov         word ptr [esi],ax
  00406E25: 81 7D F0 00 00 00  cmp         dword ptr [ebp-10h],1000000h
            01
  00406E2C: 89 5D BC           mov         dword ptr [ebp-44h],ebx
  00406E2F: 73 A1              jae         00406DD2
  00406E31: E9 77 FF FF FF     jmp         00406DAD
  00406E36: 83 65 CC 00        and         dword ptr [ebp-34h],0
  00406E3A: 8A 45 BC           mov         al,byte ptr [ebp-44h]
  00406E3D: 88 45 A4           mov         byte ptr [ebp-5Ch],al
  00406E40: 83 7D 9C 00        cmp         dword ptr [ebp-64h],0
  00406E44: 0F 84 3F 06 00 00  je          00407489
  00406E4A: 8B 4D 98           mov         ecx,dword ptr [ebp-68h]
  00406E4D: 8A 45 A4           mov         al,byte ptr [ebp-5Ch]
  00406E50: 8B 55 F8           mov         edx,dword ptr [ebp-8]
  00406E53: FF 45 A0           inc         dword ptr [ebp-60h]
  00406E56: FF 45 98           inc         dword ptr [ebp-68h]
  00406E59: FF 4D 9C           dec         dword ptr [ebp-64h]
  00406E5C: 88 01              mov         byte ptr [ecx],al
  00406E5E: 8B 4D EC           mov         ecx,dword ptr [ebp-14h]
  00406E61: 88 04 11           mov         byte ptr [ecx+edx],al
  00406E64: 8D 41 01           lea         eax,[ecx+1]
  00406E67: 33 D2              xor         edx,edx
  00406E69: F7 75 8C           div         eax,dword ptr [ebp-74h]
  00406E6C: E9 95 01 00 00     jmp         00407006
  00406E71: 83 7D 94 00        cmp         dword ptr [ebp-6Ch],0
  00406E75: 0F 84 02 06 00 00  je          0040747D
  00406E7B: 8B 4D 90           mov         ecx,dword ptr [ebp-70h]
  00406E7E: 8B 45 F4           mov         eax,dword ptr [ebp-0Ch]
  00406E81: C1 65 F0 08        shl         dword ptr [ebp-10h],8
  00406E85: 0F B6 09           movzx       ecx,byte ptr [ecx]
  00406E88: FF 4D 94           dec         dword ptr [ebp-6Ch]
  00406E8B: C1 E0 08           shl         eax,8
  00406E8E: 0B C1              or          eax,ecx
  00406E90: FF 45 90           inc         dword ptr [ebp-70h]
  00406E93: 89 45 F4           mov         dword ptr [ebp-0Ch],eax
  00406E96: 81 FB 00 01 00 00  cmp         ebx,100h
  00406E9C: 7D 9C              jge         00406E3A
  00406E9E: 8B 45 A8           mov         eax,dword ptr [ebp-58h]
  00406EA1: 8D 14 1B           lea         edx,[ebx+ebx]
  00406EA4: 8B 4D F0           mov         ecx,dword ptr [ebp-10h]
  00406EA7: 8D 34 02           lea         esi,[edx+eax]
  00406EAA: C1 E9 0B           shr         ecx,0Bh
  00406EAD: 66 8B 06           mov         ax,word ptr [esi]
  00406EB0: 89 75 AC           mov         dword ptr [ebp-54h],esi
  00406EB3: 0F B7 F8           movzx       edi,ax
  00406EB6: 0F AF CF           imul        ecx,edi
  00406EB9: 39 4D F4           cmp         dword ptr [ebp-0Ch],ecx
  00406EBC: 73 16              jae         00406ED4
  00406EBE: 89 4D F0           mov         dword ptr [ebp-10h],ecx
  00406EC1: B9 00 08 00 00     mov         ecx,800h
  00406EC6: 2B CF              sub         ecx,edi
  00406EC8: C1 F9 05           sar         ecx,5
  00406ECB: 03 C8              add         ecx,eax
  00406ECD: 03 DB              add         ebx,ebx
  00406ECF: 66 89 0E           mov         word ptr [esi],cx
  00406ED2: EB 15              jmp         00406EE9
  00406ED4: 29 4D F0           sub         dword ptr [ebp-10h],ecx
  00406ED7: 29 4D F4           sub         dword ptr [ebp-0Ch],ecx
  00406EDA: 66 8B C8           mov         cx,ax
  00406EDD: 8D 5A 01           lea         ebx,[edx+1]
  00406EE0: 66 C1 E9 05        shr         cx,5
  00406EE4: 2B C1              sub         eax,ecx
  00406EE6: 66 89 06           mov         word ptr [esi],ax
  00406EE9: 81 7D F0 00 00 00  cmp         dword ptr [ebp-10h],1000000h
            01
  00406EF0: 89 5D BC           mov         dword ptr [ebp-44h],ebx
  00406EF3: 73 A1              jae         00406E96
  00406EF5: E9 77 FF FF FF     jmp         00406E71
  00406EFA: 83 7D C0 01        cmp         dword ptr [ebp-40h],1
  00406EFE: 75 1C              jne         00406F1C
  00406F00: 8B 45 FC           mov         eax,dword ptr [ebp-4]
  00406F03: 8B 4D C8           mov         ecx,dword ptr [ebp-38h]
  00406F06: C7 85 7C FF FF FF  mov         dword ptr [ebp+FFFFFF7Ch],8
            08 00 00 00
  00406F10: 8D B4 48 98 01 00  lea         esi,[eax+ecx*2+00000198h]
            00
  00406F17: E9 AB 03 00 00     jmp         004072C7
  00406F1C: 8B 45 DC           mov         eax,dword ptr [ebp-24h]
  00406F1F: C7 45 80 16 00 00  mov         dword ptr [ebp-80h],16h
            00
  00406F26: 89 45 E0           mov         dword ptr [ebp-20h],eax
  00406F29: 8B 45 D8           mov         eax,dword ptr [ebp-28h]
  00406F2C: 89 45 DC           mov         dword ptr [ebp-24h],eax
  00406F2F: 8B 45 D4           mov         eax,dword ptr [ebp-2Ch]
  00406F32: 89 45 D8           mov         dword ptr [ebp-28h],eax
  00406F35: 33 C0              xor         eax,eax
  00406F37: 83 7D C8 07        cmp         dword ptr [ebp-38h],7
  00406F3B: 0F 9D C0           setge       al
  00406F3E: 48                 dec         eax
  00406F3F: 24 FD              and         al,0FDh
  00406F41: 83 C0 0A           add         eax,0Ah
  00406F44: 89 45 C8           mov         dword ptr [ebp-38h],eax
  00406F47: 8B 45 FC           mov         eax,dword ptr [ebp-4]
  00406F4A: 05 64 06 00 00     add         eax,664h
  00406F4F: 89 45 A8           mov         dword ptr [ebp-58h],eax
  00406F52: 8B 75 A8           mov         esi,dword ptr [ebp-58h]
  00406F55: C7 85 7C FF FF FF  mov         dword ptr [ebp+FFFFFF7Ch],12h
            12 00 00 00
  00406F5F: E9 63 03 00 00     jmp         004072C7
  00406F64: 83 7D C0 00        cmp         dword ptr [ebp-40h],0
  00406F68: 75 21              jne         00406F8B
  00406F6A: 8B 45 C8           mov         eax,dword ptr [ebp-38h]
  00406F6D: 8B 4D FC           mov         ecx,dword ptr [ebp-4]
  00406F70: 83 C0 0F           add         eax,0Fh
  00406F73: C7 85 7C FF FF FF  mov         dword ptr [ebp+FFFFFF7Ch],9
            09 00 00 00
  00406F7D: C1 E0 04           shl         eax,4
  00406F80: 03 45 B4           add         eax,dword ptr [ebp-4Ch]
  00406F83: 8D 34 41           lea         esi,[ecx+eax*2]
  00406F86: E9 3C 03 00 00     jmp         004072C7
  00406F8B: 8B 45 FC           mov         eax,dword ptr [ebp-4]
  00406F8E: 8B 4D C8           mov         ecx,dword ptr [ebp-38h]
  00406F91: C7 85 7C FF FF FF  mov         dword ptr [ebp+FFFFFF7Ch],0Ah
            0A 00 00 00
  00406F9B: 8D B4 48 B0 01 00  lea         esi,[eax+ecx*2+000001B0h]
            00
  00406FA2: E9 20 03 00 00     jmp         004072C7
  00406FA7: 83 7D C0 00        cmp         dword ptr [ebp-40h],0
  00406FAB: 0F 85 B1 00 00 00  jne         00407062
  00406FB1: 83 7D A0 00        cmp         dword ptr [ebp-60h],0
  00406FB5: 0F 84 3B 05 00 00  je          004074F6
  00406FBB: 33 C0              xor         eax,eax
  00406FBD: 83 7D C8 07        cmp         dword ptr [ebp-38h],7
  00406FC1: 0F 9D C0           setge       al
  00406FC4: 8D 44 00 09        lea         eax,[eax+eax+9]
  00406FC8: 89 45 C8           mov         dword ptr [ebp-38h],eax
  00406FCB: 83 7D 9C 00        cmp         dword ptr [ebp-64h],0
  00406FCF: 0F 84 C0 04 00 00  je          00407495
  00406FD5: 8B 45 EC           mov         eax,dword ptr [ebp-14h]
  00406FD8: 2B 45 D4           sub         eax,dword ptr [ebp-2Ch]
  00406FDB: 3B 45 8C           cmp         eax,dword ptr [ebp-74h]
  00406FDE: 72 03              jb          00406FE3
  00406FE0: 03 45 8C           add         eax,dword ptr [ebp-74h]
  00406FE3: 8B 55 F8           mov         edx,dword ptr [ebp-8]
  00406FE6: 8A 0C 10           mov         cl,byte ptr [eax+edx]
  00406FE9: 8B 45 EC           mov         eax,dword ptr [ebp-14h]
  00406FEC: 88 4D A4           mov         byte ptr [ebp-5Ch],cl
  00406FEF: 88 0C 10           mov         byte ptr [eax+edx],cl
  00406FF2: 40                 inc         eax
  00406FF3: 33 D2              xor         edx,edx
  00406FF5: F7 75 8C           div         eax,dword ptr [ebp-74h]
  00406FF8: 8B 45 98           mov         eax,dword ptr [ebp-68h]
  00406FFB: FF 45 A0           inc         dword ptr [ebp-60h]
  00406FFE: FF 45 98           inc         dword ptr [ebp-68h]
  00407001: FF 4D 9C           dec         dword ptr [ebp-64h]
  00407004: 88 08              mov         byte ptr [eax],cl
  00407006: 89 55 EC           mov         dword ptr [ebp-14h],edx
  00407009: C7 85 78 FF FF FF  mov         dword ptr [ebp+FFFFFF78h],2
            02 00 00 00
  00407013: E9 C7 FA FF FF     jmp         00406ADF
  00407018: 83 7D C0 00        cmp         dword ptr [ebp-40h],0
  0040701C: 75 05              jne         00407023
  0040701E: 8B 45 D8           mov         eax,dword ptr [ebp-28h]
  00407021: EB 36              jmp         00407059
  00407023: 8B 45 FC           mov         eax,dword ptr [ebp-4]
  00407026: 8B 4D C8           mov         ecx,dword ptr [ebp-38h]
  00407029: C7 85 7C FF FF FF  mov         dword ptr [ebp+FFFFFF7Ch],0Bh
            0B 00 00 00
  00407033: 8D B4 48 C8 01 00  lea         esi,[eax+ecx*2+000001C8h]
            00
  0040703A: E9 88 02 00 00     jmp         004072C7
  0040703F: 83 7D C0 00        cmp         dword ptr [ebp-40h],0
  00407043: 75 05              jne         0040704A
  00407045: 8B 45 DC           mov         eax,dword ptr [ebp-24h]
  00407048: EB 09              jmp         00407053
  0040704A: 8B 4D DC           mov         ecx,dword ptr [ebp-24h]
  0040704D: 8B 45 E0           mov         eax,dword ptr [ebp-20h]
  00407050: 89 4D E0           mov         dword ptr [ebp-20h],ecx
  00407053: 8B 4D D8           mov         ecx,dword ptr [ebp-28h]
  00407056: 89 4D DC           mov         dword ptr [ebp-24h],ecx
  00407059: 8B 4D D4           mov         ecx,dword ptr [ebp-2Ch]
  0040705C: 89 45 D4           mov         dword ptr [ebp-2Ch],eax
  0040705F: 89 4D D8           mov         dword ptr [ebp-28h],ecx
  00407062: 8B 45 FC           mov         eax,dword ptr [ebp-4]
  00407065: C7 45 80 15 00 00  mov         dword ptr [ebp-80h],15h
            00
  0040706C: 05 68 0A 00 00     add         eax,0A68h
  00407071: 89 45 A8           mov         dword ptr [ebp-58h],eax
  00407074: E9 D9 FE FF FF     jmp         00406F52
  00407079: 33 C0              xor         eax,eax
  0040707B: 83 7D C8 07        cmp         dword ptr [ebp-38h],7
  0040707F: 0F 9D C0           setge       al
  00407082: 48                 dec         eax
  00407083: 24 FD              and         al,0FDh
  00407085: 83 C0 0B           add         eax,0Bh
  00407088: 89 45 C8           mov         dword ptr [ebp-38h],eax
  0040708B: E9 9A 01 00 00     jmp         0040722A
  00407090: 8B 45 D0           mov         eax,dword ptr [ebp-30h]
  00407093: 83 F8 04           cmp         eax,4
  00407096: 7C 03              jl          0040709B
  00407098: 6A 03              push        3
  0040709A: 58                 pop         eax
  0040709B: 8B 4D FC           mov         ecx,dword ptr [ebp-4]
  0040709E: C7 45 C0 06 00 00  mov         dword ptr [ebp-40h],6
            00
  004070A5: C1 E0 07           shl         eax,7
  004070A8: C7 45 84 19 00 00  mov         dword ptr [ebp-7Ch],19h
            00
  004070AF: 8D 84 08 60 03 00  lea         eax,[eax+ecx+00000360h]
            00
  004070B6: 89 45 A8           mov         dword ptr [ebp-58h],eax
  004070B9: E9 CE 02 00 00     jmp         0040738C
  004070BE: 83 FB 04           cmp         ebx,4
  004070C1: 7C 34              jl          004070F7
  004070C3: 8B CB              mov         ecx,ebx
  004070C5: 8B C3              mov         eax,ebx
  004070C7: D1 F9              sar         ecx,1
  004070C9: 83 E0 01           and         eax,1
  004070CC: 49                 dec         ecx
  004070CD: 0C 02              or          al,2
  004070CF: D3 E0              shl         eax,cl
  004070D1: 83 FB 0E           cmp         ebx,0Eh
  004070D4: 89 45 D4           mov         dword ptr [ebp-2Ch],eax
  004070D7: 7D 14              jge         004070ED
  004070D9: 8B 55 FC           mov         edx,dword ptr [ebp-4]
  004070DC: 2B C3              sub         eax,ebx
  004070DE: 89 4D C0           mov         dword ptr [ebp-40h],ecx
  004070E1: 8D 84 42 5E 05 00  lea         eax,[edx+eax*2+0000055Eh]
            00
  004070E8: E9 81 00 00 00     jmp         0040716E
  004070ED: 33 DB              xor         ebx,ebx
  004070EF: 83 C1 FC           add         ecx,0FFFFFFFCh
  004070F2: 89 4D B8           mov         dword ptr [ebp-48h],ecx
  004070F5: EB 33              jmp         0040712A
  004070F7: 89 5D D4           mov         dword ptr [ebp-2Ch],ebx
  004070FA: E9 28 01 00 00     jmp         00407227
  004070FF: 83 7D 94 00        cmp         dword ptr [ebp-6Ch],0
  00407103: 0F 84 98 03 00 00  je          004074A1
  00407109: 8B 4D 90           mov         ecx,dword ptr [ebp-70h]
  0040710C: 8B 45 F4           mov         eax,dword ptr [ebp-0Ch]
  0040710F: C1 65 F0 08        shl         dword ptr [ebp-10h],8
  00407113: 0F B6 09           movzx       ecx,byte ptr [ecx]
  00407116: FF 4D 94           dec         dword ptr [ebp-6Ch]
  00407119: C1 E0 08           shl         eax,8
  0040711C: 0B C1              or          eax,ecx
  0040711E: FF 45 90           inc         dword ptr [ebp-70h]
  00407121: 89 45 F4           mov         dword ptr [ebp-0Ch],eax
  00407124: 8B 45 D4           mov         eax,dword ptr [ebp-2Ch]
  00407127: FF 4D B8           dec         dword ptr [ebp-48h]
  0040712A: 83 7D B8 00        cmp         dword ptr [ebp-48h],0
  0040712E: 7E 27              jle         00407157
  00407130: 8B 4D F4           mov         ecx,dword ptr [ebp-0Ch]
  00407133: 03 DB              add         ebx,ebx
  00407135: D1 6D F0           shr         dword ptr [ebp-10h],1
  00407138: 3B 4D F0           cmp         ecx,dword ptr [ebp-10h]
  0040713B: 89 5D BC           mov         dword ptr [ebp-44h],ebx
  0040713E: 72 0C              jb          0040714C
  00407140: 8B 4D F0           mov         ecx,dword ptr [ebp-10h]
  00407143: 29 4D F4           sub         dword ptr [ebp-0Ch],ecx
  00407146: 83 CB 01           or          ebx,1
  00407149: 89 5D BC           mov         dword ptr [ebp-44h],ebx
  0040714C: 81 7D F0 00 00 00  cmp         dword ptr [ebp-10h],1000000h
            01
  00407153: 73 D2              jae         00407127
  00407155: EB A8              jmp         004070FF
  00407157: C1 E3 04           shl         ebx,4
  0040715A: 03 C3              add         eax,ebx
  0040715C: C7 45 C0 04 00 00  mov         dword ptr [ebp-40h],4
            00
  00407163: 89 45 D4           mov         dword ptr [ebp-2Ch],eax
  00407166: 8B 45 FC           mov         eax,dword ptr [ebp-4]
  00407169: 05 44 06 00 00     add         eax,644h
  0040716E: 33 DB              xor         ebx,ebx
  00407170: 89 45 A8           mov         dword ptr [ebp-58h],eax
  00407173: C7 45 B0 01 00 00  mov         dword ptr [ebp-50h],1
            00
  0040717A: 89 5D BC           mov         dword ptr [ebp-44h],ebx
  0040717D: 89 5D B8           mov         dword ptr [ebp-48h],ebx
  00407180: EB 28              jmp         004071AA
  00407182: 83 7D 94 00        cmp         dword ptr [ebp-6Ch],0
  00407186: 0F 84 21 03 00 00  je          004074AD
  0040718C: 8B 4D 90           mov         ecx,dword ptr [ebp-70h]
  0040718F: 8B 45 F4           mov         eax,dword ptr [ebp-0Ch]
  00407192: C1 65 F0 08        shl         dword ptr [ebp-10h],8
  00407196: 0F B6 09           movzx       ecx,byte ptr [ecx]
  00407199: FF 4D 94           dec         dword ptr [ebp-6Ch]
  0040719C: C1 E0 08           shl         eax,8
  0040719F: 0B C1              or          eax,ecx
  004071A1: FF 45 90           inc         dword ptr [ebp-70h]
  004071A4: 89 45 F4           mov         dword ptr [ebp-0Ch],eax
  004071A7: FF 45 B8           inc         dword ptr [ebp-48h]
  004071AA: 8B 45 C0           mov         eax,dword ptr [ebp-40h]
  004071AD: 39 45 B8           cmp         dword ptr [ebp-48h],eax
  004071B0: 7D 72              jge         00407224
  004071B2: 8B 45 B0           mov         eax,dword ptr [ebp-50h]
  004071B5: 8B 55 F0           mov         edx,dword ptr [ebp-10h]
  004071B8: C1 EA 0B           shr         edx,0Bh
  004071BB: 8D 3C 00           lea         edi,[eax+eax]
  004071BE: 8B 45 A8           mov         eax,dword ptr [ebp-58h]
  004071C1: 8D 34 07           lea         esi,[edi+eax]
  004071C4: 89 75 AC           mov         dword ptr [ebp-54h],esi
  004071C7: 66 8B 06           mov         ax,word ptr [esi]
  004071CA: 0F B7 C8           movzx       ecx,ax
  004071CD: 0F AF D1           imul        edx,ecx
  004071D0: 39 55 F4           cmp         dword ptr [ebp-0Ch],edx
  004071D3: 73 17              jae         004071EC
  004071D5: 89 55 F0           mov         dword ptr [ebp-10h],edx
  004071D8: BA 00 08 00 00     mov         edx,800h
  004071DD: 2B D1              sub         edx,ecx
  004071DF: C1 FA 05           sar         edx,5
  004071E2: 03 D0              add         edx,eax
  004071E4: D1 65 B0           shl         dword ptr [ebp-50h],1
  004071E7: 66 89 16           mov         word ptr [esi],dx
  004071EA: EB 2A              jmp         00407216
  004071EC: 33 C9              xor         ecx,ecx
  004071EE: 29 55 F0           sub         dword ptr [ebp-10h],edx
  004071F1: 41                 inc         ecx
  004071F2: 29 55 F4           sub         dword ptr [ebp-0Ch],edx
  004071F5: 8B D9              mov         ebx,ecx
  004071F7: 8B 4D B8           mov         ecx,dword ptr [ebp-48h]
  004071FA: D3 E3              shl         ebx,cl
  004071FC: 8B CB              mov         ecx,ebx
  004071FE: 8B 5D BC           mov         ebx,dword ptr [ebp-44h]
  00407201: 0B D9              or          ebx,ecx
  00407203: 66 8B C8           mov         cx,ax
  00407206: 66 C1 E9 05        shr         cx,5
  0040720A: 2B C1              sub         eax,ecx
  0040720C: 47                 inc         edi
  0040720D: 89 5D BC           mov         dword ptr [ebp-44h],ebx
  00407210: 66 89 06           mov         word ptr [esi],ax
  00407213: 89 7D B0           mov         dword ptr [ebp-50h],edi
  00407216: 81 7D F0 00 00 00  cmp         dword ptr [ebp-10h],1000000h
            01
  0040721D: 73 88              jae         004071A7
  0040721F: E9 5E FF FF FF     jmp         00407182
  00407224: 01 5D D4           add         dword ptr [ebp-2Ch],ebx
  00407227: FF 45 D4           inc         dword ptr [ebp-2Ch]
  0040722A: 8B 45 D4           mov         eax,dword ptr [ebp-2Ch]
  0040722D: 85 C0              test        eax,eax
  0040722F: 0F 84 84 02 00 00  je          004074B9
  00407235: 3B 45 A0           cmp         eax,dword ptr [ebp-60h]
  00407238: 0F 87 B8 02 00 00  ja          004074F6
  0040723E: 83 45 D0 02        add         dword ptr [ebp-30h],2
  00407242: 8B 45 D0           mov         eax,dword ptr [ebp-30h]
  00407245: 01 45 A0           add         dword ptr [ebp-60h],eax
  00407248: 83 7D 9C 00        cmp         dword ptr [ebp-64h],0
  0040724C: 0F 84 6D 02 00 00  je          004074BF
  00407252: 8B 45 EC           mov         eax,dword ptr [ebp-14h]
  00407255: 2B 45 D4           sub         eax,dword ptr [ebp-2Ch]
  00407258: 3B 45 8C           cmp         eax,dword ptr [ebp-74h]
  0040725B: 72 03              jb          00407260
  0040725D: 03 45 8C           add         eax,dword ptr [ebp-74h]
  00407260: 8B 55 F8           mov         edx,dword ptr [ebp-8]
  00407263: 8A 0C 10           mov         cl,byte ptr [eax+edx]
  00407266: 8B 45 EC           mov         eax,dword ptr [ebp-14h]
  00407269: 88 4D A4           mov         byte ptr [ebp-5Ch],cl
  0040726C: 88 0C 10           mov         byte ptr [eax+edx],cl
  0040726F: 40                 inc         eax
  00407270: 33 D2              xor         edx,edx
  00407272: F7 75 8C           div         eax,dword ptr [ebp-74h]
  00407275: 8B 45 98           mov         eax,dword ptr [ebp-68h]
  00407278: FF 45 98           inc         dword ptr [ebp-68h]
  0040727B: FF 4D 9C           dec         dword ptr [ebp-64h]
  0040727E: FF 4D D0           dec         dword ptr [ebp-30h]
  00407281: 83 7D D0 00        cmp         dword ptr [ebp-30h],0
  00407285: 88 08              mov         byte ptr [eax],cl
  00407287: 89 55 EC           mov         dword ptr [ebp-14h],edx
  0040728A: 7F BC              jg          00407248
  0040728C: E9 78 FD FF FF     jmp         00407009
  00407291: 83 7D C0 00        cmp         dword ptr [ebp-40h],0
  00407295: 75 20              jne         004072B7
  00407297: 8B 45 B4           mov         eax,dword ptr [ebp-4Ch]
  0040729A: 83 65 D0 00        and         dword ptr [ebp-30h],0
  0040729E: 8B 4D A8           mov         ecx,dword ptr [ebp-58h]
  004072A1: C1 E0 04           shl         eax,4
  004072A4: 8D 44 01 04        lea         eax,[ecx+eax+4]
  004072A8: 89 45 A8           mov         dword ptr [ebp-58h],eax
  004072AB: C7 45 C0 03 00 00  mov         dword ptr [ebp-40h],3
            00
  004072B2: E9 CE 00 00 00     jmp         00407385
  004072B7: 8B 45 A8           mov         eax,dword ptr [ebp-58h]
  004072BA: C7 85 7C FF FF FF  mov         dword ptr [ebp+FFFFFF7Ch],13h
            13 00 00 00
  004072C4: 8D 70 02           lea         esi,[eax+2]
  004072C7: 89 75 AC           mov         dword ptr [ebp-54h],esi
  004072CA: 66 8B 06           mov         ax,word ptr [esi]
  004072CD: 8B 4D F0           mov         ecx,dword ptr [ebp-10h]
  004072D0: 0F B7 D0           movzx       edx,ax
  004072D3: C1 E9 0B           shr         ecx,0Bh
  004072D6: 0F AF CA           imul        ecx,edx
  004072D9: 39 4D F4           cmp         dword ptr [ebp-0Ch],ecx
  004072DC: 73 18              jae         004072F6
  004072DE: 89 4D F0           mov         dword ptr [ebp-10h],ecx
  004072E1: B9 00 08 00 00     mov         ecx,800h
  004072E6: 2B CA              sub         ecx,edx
  004072E8: C1 F9 05           sar         ecx,5
  004072EB: 03 C8              add         ecx,eax
  004072ED: 83 65 C0 00        and         dword ptr [ebp-40h],0
  004072F1: 66 89 0E           mov         word ptr [esi],cx
  004072F4: EB 19              jmp         0040730F
  004072F6: 29 4D F0           sub         dword ptr [ebp-10h],ecx
  004072F9: 29 4D F4           sub         dword ptr [ebp-0Ch],ecx
  004072FC: 66 8B C8           mov         cx,ax
  004072FF: C7 45 C0 01 00 00  mov         dword ptr [ebp-40h],1
            00
  00407306: 66 C1 E9 05        shr         cx,5
  0040730A: 2B C1              sub         eax,ecx
  0040730C: 66 89 06           mov         word ptr [esi],ax
  0040730F: 81 7D F0 00 00 00  cmp         dword ptr [ebp-10h],1000000h
            01
  00407316: 73 25              jae         0040733D
  00407318: 83 7D 94 00        cmp         dword ptr [ebp-6Ch],0
  0040731C: 0F 84 A9 01 00 00  je          004074CB
  00407322: 8B 4D 90           mov         ecx,dword ptr [ebp-70h]
  00407325: 8B 45 F4           mov         eax,dword ptr [ebp-0Ch]
  00407328: C1 65 F0 08        shl         dword ptr [ebp-10h],8
  0040732C: 0F B6 09           movzx       ecx,byte ptr [ecx]
  0040732F: FF 4D 94           dec         dword ptr [ebp-6Ch]
  00407332: C1 E0 08           shl         eax,8
  00407335: 0B C1              or          eax,ecx
  00407337: FF 45 90           inc         dword ptr [ebp-70h]
  0040733A: 89 45 F4           mov         dword ptr [ebp-0Ch],eax
  0040733D: 8B 85 7C FF FF FF  mov         eax,dword ptr [ebp+FFFFFF7Ch]
  00407343: 89 85 78 FF FF FF  mov         dword ptr [ebp+FFFFFF78h],eax
  00407349: E9 91 F7 FF FF     jmp         00406ADF
  0040734E: 83 7D C0 00        cmp         dword ptr [ebp-40h],0
  00407352: 75 1C              jne         00407370
  00407354: 8B 45 B4           mov         eax,dword ptr [ebp-4Ch]
  00407357: 8B 4D A8           mov         ecx,dword ptr [ebp-58h]
  0040735A: C1 E0 04           shl         eax,4
  0040735D: C7 45 D0 08 00 00  mov         dword ptr [ebp-30h],8
            00
  00407364: 8D 84 01 04 01 00  lea         eax,[ecx+eax+00000104h]
            00
  0040736B: E9 38 FF FF FF     jmp         004072A8
  00407370: 81 45 A8 04 02 00  add         dword ptr [ebp-58h],204h
            00
  00407377: C7 45 D0 10 00 00  mov         dword ptr [ebp-30h],10h
            00
  0040737E: C7 45 C0 08 00 00  mov         dword ptr [ebp-40h],8
            00
  00407385: C7 45 84 14 00 00  mov         dword ptr [ebp-7Ch],14h
            00
  0040738C: 8B 45 C0           mov         eax,dword ptr [ebp-40h]
  0040738F: C7 45 B0 01 00 00  mov         dword ptr [ebp-50h],1
            00
  00407396: 89 45 B8           mov         dword ptr [ebp-48h],eax
  00407399: EB 28              jmp         004073C3
  0040739B: 83 7D 94 00        cmp         dword ptr [ebp-6Ch],0
  0040739F: 0F 84 32 01 00 00  je          004074D7
  004073A5: 8B 4D 90           mov         ecx,dword ptr [ebp-70h]
  004073A8: 8B 45 F4           mov         eax,dword ptr [ebp-0Ch]
  004073AB: C1 65 F0 08        shl         dword ptr [ebp-10h],8
  004073AF: 0F B6 09           movzx       ecx,byte ptr [ecx]
  004073B2: FF 4D 94           dec         dword ptr [ebp-6Ch]
  004073B5: C1 E0 08           shl         eax,8
  004073B8: 0B C1              or          eax,ecx
  004073BA: FF 45 90           inc         dword ptr [ebp-70h]
  004073BD: 89 45 F4           mov         dword ptr [ebp-0Ch],eax
  004073C0: FF 4D B8           dec         dword ptr [ebp-48h]
  004073C3: 83 7D B8 00        cmp         dword ptr [ebp-48h],0
  004073C7: 7E 5E              jle         00407427
  004073C9: 8B 45 B0           mov         eax,dword ptr [ebp-50h]
  004073CC: 8B 4D F0           mov         ecx,dword ptr [ebp-10h]
  004073CF: C1 E9 0B           shr         ecx,0Bh
  004073D2: 8D 14 00           lea         edx,[eax+eax]
  004073D5: 8B 45 A8           mov         eax,dword ptr [ebp-58h]
  004073D8: 8D 34 02           lea         esi,[edx+eax]
  004073DB: 89 75 AC           mov         dword ptr [ebp-54h],esi
  004073DE: 66 8B 06           mov         ax,word ptr [esi]
  004073E1: 0F B7 F8           movzx       edi,ax
  004073E4: 0F AF CF           imul        ecx,edi
  004073E7: 39 4D F4           cmp         dword ptr [ebp-0Ch],ecx
  004073EA: 73 17              jae         00407403
  004073EC: 89 4D F0           mov         dword ptr [ebp-10h],ecx
  004073EF: B9 00 08 00 00     mov         ecx,800h
  004073F4: 2B CF              sub         ecx,edi
  004073F6: C1 F9 05           sar         ecx,5
  004073F9: 03 C8              add         ecx,eax
  004073FB: D1 65 B0           shl         dword ptr [ebp-50h],1
  004073FE: 66 89 0E           mov         word ptr [esi],cx
  00407401: EB 16              jmp         00407419
  00407403: 29 4D F0           sub         dword ptr [ebp-10h],ecx
  00407406: 29 4D F4           sub         dword ptr [ebp-0Ch],ecx
  00407409: 66 8B C8           mov         cx,ax
  0040740C: 66 C1 E9 05        shr         cx,5
  00407410: 2B C1              sub         eax,ecx
  00407412: 42                 inc         edx
  00407413: 66 89 06           mov         word ptr [esi],ax
  00407416: 89 55 B0           mov         dword ptr [ebp-50h],edx
  00407419: 81 7D F0 00 00 00  cmp         dword ptr [ebp-10h],1000000h
            01
  00407420: 73 9E              jae         004073C0
  00407422: E9 74 FF FF FF     jmp         0040739B
  00407427: 8B 4D C0           mov         ecx,dword ptr [ebp-40h]
  0040742A: 8B 5D B0           mov         ebx,dword ptr [ebp-50h]
  0040742D: 33 C0              xor         eax,eax
  0040742F: 40                 inc         eax
  00407430: D3 E0              shl         eax,cl
  00407432: 2B D8              sub         ebx,eax
  00407434: 8B 45 84           mov         eax,dword ptr [ebp-7Ch]
  00407437: 89 5D BC           mov         dword ptr [ebp-44h],ebx
  0040743A: E9 04 FF FF FF     jmp         00407343
  0040743F: 01 5D D0           add         dword ptr [ebp-30h],ebx
  00407442: 8B 45 80           mov         eax,dword ptr [ebp-80h]
  00407445: E9 F9 FE FF FF     jmp         00407343
  0040744A: C7 85 78 FF FF FF  mov         dword ptr [ebp+FFFFFF78h],1
            01 00 00 00
  00407454: E9 88 00 00 00     jmp         004074E1
  00407459: C7 85 78 FF FF FF  mov         dword ptr [ebp+FFFFFF78h],3
            03 00 00 00
  00407463: EB 7C              jmp         004074E1
  00407465: C7 85 78 FF FF FF  mov         dword ptr [ebp+FFFFFF78h],0Dh
            0D 00 00 00
  0040746F: EB 70              jmp         004074E1
  00407471: C7 85 78 FF FF FF  mov         dword ptr [ebp+FFFFFF78h],0Eh
            0E 00 00 00
  0040747B: EB 64              jmp         004074E1
  0040747D: C7 85 78 FF FF FF  mov         dword ptr [ebp+FFFFFF78h],0Fh
            0F 00 00 00
  00407487: EB 58              jmp         004074E1
  00407489: C7 85 78 FF FF FF  mov         dword ptr [ebp+FFFFFF78h],1Ah
            1A 00 00 00
  00407493: EB 4C              jmp         004074E1
  00407495: C7 85 78 FF FF FF  mov         dword ptr [ebp+FFFFFF78h],1Bh
            1B 00 00 00
  0040749F: EB 40              jmp         004074E1
  004074A1: C7 85 78 FF FF FF  mov         dword ptr [ebp+FFFFFF78h],0Ch
            0C 00 00 00
  004074AB: EB 34              jmp         004074E1
  004074AD: C7 85 78 FF FF FF  mov         dword ptr [ebp+FFFFFF78h],10h
            10 00 00 00
  004074B7: EB 28              jmp         004074E1
  004074B9: 83 4D D0 FF        or          dword ptr [ebp-30h],0FFFFFFFFh
  004074BD: EB 22              jmp         004074E1
  004074BF: C7 85 78 FF FF FF  mov         dword ptr [ebp+FFFFFF78h],1Ch
            1C 00 00 00
  004074C9: EB 16              jmp         004074E1
  004074CB: C7 85 78 FF FF FF  mov         dword ptr [ebp+FFFFFF78h],5
            05 00 00 00
  004074D5: EB 0A              jmp         004074E1
  004074D7: C7 85 78 FF FF FF  mov         dword ptr [ebp+FFFFFF78h],18h
            18 00 00 00
  004074E1: 8B BD 70 FF FF FF  mov         edi,dword ptr [ebp+FFFFFF70h]
  004074E7: 6A 22              push        22h
  004074E9: 59                 pop         ecx
  004074EA: 8D B5 78 FF FF FF  lea         esi,[ebp+FFFFFF78h]
  004074F0: F3 A5              rep movs    dword ptr es:[edi],dword ptr [esi]
  004074F2: 33 C0              xor         eax,eax
  004074F4: EB 03              jmp         004074F9
  004074F6: 83 C8 FF           or          eax,0FFFFFFFFh
  004074F9: 5F                 pop         edi
  004074FA: 5E                 pop         esi
  004074FB: 5B                 pop         ebx
  004074FC: C9                 leave
  004074FD: C3                 ret
  004074FE: F5                 cmc
  004074FF: 6A 40              push        40h
  00407501: 00 9A 6B 40 00 35  add         byte ptr [edx+3500406Bh],bl
  00407507: 6C                 ins         byte ptr es:[edi],dx
  00407508: 40                 inc         eax
  00407509: 00 0A              add         byte ptr [edx],cl
  0040750B: 6C                 ins         byte ptr es:[edi],dx
  0040750C: 40                 inc         eax
  0040750D: 00 CA              add         dl,cl
  0040750F: 72 40              jb          00407551
  00407511: 00 18              add         byte ptr [eax],bl
  00407513: 73 40              jae         00407555
  00407515: 00 5B 6C           add         byte ptr [ebx+6Ch],bl
  00407518: 40                 inc         eax
  00407519: 00 FA              add         dl,bh
  0040751B: 6E                 outs        dx,byte ptr [esi]
  0040751C: 40                 inc         eax
  0040751D: 00 64 6F 40        add         byte ptr [edi+ebp*2+40h],ah
  00407521: 00 A7 6F 40 00 18  add         byte ptr [edi+1800406Fh],ah
  00407527: 70 40              jo          00407569
  00407529: 00 3F              add         byte ptr [edi],bh
  0040752B: 70 40              jo          0040756D
  0040752D: 00 FF              add         bh,bh
  0040752F: 70 40              jo          00407571
  00407531: 00 F4              add         ah,dh
  00407533: 6C                 ins         byte ptr es:[edi],dx
  00407534: 40                 inc         eax
  00407535: 00 AD 6D 40 00 71  add         byte ptr [ebp+7100406Dh],ch
  0040753B: 6E                 outs        dx,byte ptr [esi]
  0040753C: 40                 inc         eax
  0040753D: 00 82 71 40 00 52  add         byte ptr [edx+52004071h],al
  00407543: 6F                 outs        dx,dword ptr [esi]
  00407544: 40                 inc         eax
  00407545: 00 91 72 40 00 4E  add         byte ptr [ecx+4E004072h],dl
  0040754B: 73 40              jae         0040758D
  0040754D: 00 3F              add         byte ptr [edi],bh
  0040754F: 74 40              je          00407591
  00407551: 00 79 70           add         byte ptr [ecx+70h],bh
  00407554: 40                 inc         eax
  00407555: 00 90 70 40 00 8C  add         byte ptr [eax+8C004070h],dl
  0040755B: 73 40              jae         0040759D
  0040755D: 00 9B 73 40 00 BE  add         byte ptr [ebx+BE004073h],bl
  00407563: 70 40              jo          004075A5
  00407565: 00 40 6E           add         byte ptr [eax+6Eh],al
  00407568: 40                 inc         eax
  00407569: 00 CB              add         bl,cl
  0040756B: 6F                 outs        dx,dword ptr [esi]
  0040756C: 40                 inc         eax
  0040756D: 00 48 72           add         byte ptr [eax+72h],cl
  00407570: 40                 inc         eax
  00407571: 00

  Summary

       21000 .data
       27000 .ndata
        2000 .rdata
       65000 .rsrc
        7000 .text
