
Dump of file D:\Downloads\Compare2\parsec-windows.exe

File Type: EXECUTABLE IMAGE

  00401000: 55                 push        ebp
  00401001: 8B EC              mov         ebp,esp
  00401003: 83 EC 5C           sub         esp,5Ch
  00401006: 83 7D 0C 0F        cmp         dword ptr [ebp+0Ch],0Fh
  0040100A: 74 2B              je          00401037
  0040100C: 83 7D 0C 46        cmp         dword ptr [ebp+0Ch],46h
  00401010: 8B 45 14           mov         eax,dword ptr [ebp+14h]
  00401013: 75 0D              jne         00401022
  00401015: 83 48 18 10        or          dword ptr [eax+18h],10h
  00401019: 8B 0D E8 4E 43 00  mov         ecx,dword ptr ds:[00434EE8h]
  0040101F: 89 48 04           mov         dword ptr [eax+4],ecx
  00401022: 50                 push        eax
  00401023: FF 75 10           push        dword ptr [ebp+10h]
  00401026: FF 75 0C           push        dword ptr [ebp+0Ch]
  00401029: FF 75 08           push        dword ptr [ebp+8]
  0040102C: FF 15 1C 82 40 00  call        dword ptr ds:[0040821Ch]
  00401032: E9 42 01 00 00     jmp         00401179
  00401037: 53                 push        ebx
  00401038: 56                 push        esi
  00401039: 8B 35 F4 4E 43 00  mov         esi,dword ptr ds:[00434EF4h]
  0040103F: 8D 45 A4           lea         eax,[ebp-5Ch]
  00401042: 57                 push        edi
  00401043: 50                 push        eax
  00401044: FF 75 08           push        dword ptr [ebp+8]
  00401047: FF 15 20 82 40 00  call        dword ptr ds:[00408220h]
  0040104D: 83 65 F4 00        and         dword ptr [ebp-0Ch],0
  00401051: 89 45 0C           mov         dword ptr [ebp+0Ch],eax
  00401054: 8D 45 E4           lea         eax,[ebp-1Ch]
  00401057: 50                 push        eax
  00401058: FF 75 08           push        dword ptr [ebp+8]
  0040105B: FF 15 24 82 40 00  call        dword ptr ds:[00408224h]
  00401061: 8B 7D F0           mov         edi,dword ptr [ebp-10h]
  00401064: 83 65 F0 00        and         dword ptr [ebp-10h],0
  00401068: 8B 1D 5C 80 40 00  mov         ebx,dword ptr ds:[0040805Ch]
  0040106E: E9 80 00 00 00     jmp         004010F3
  00401073: 0F B6 46 52        movzx       eax,byte ptr [esi+52h]
  00401077: 0F B6 56 56        movzx       edx,byte ptr [esi+56h]
  0040107B: 0F AF 55 E8        imul        edx,dword ptr [ebp-18h]
  0040107F: 8B CF              mov         ecx,edi
  00401081: 2B 4D E8           sub         ecx,dword ptr [ebp-18h]
  00401084: 0F AF C1           imul        eax,ecx
  00401087: 03 C2              add         eax,edx
  00401089: 89 4D 10           mov         dword ptr [ebp+10h],ecx
  0040108C: 99                 cdq
  0040108D: F7 FF              idiv        eax,edi
  0040108F: 33 D2              xor         edx,edx
  00401091: 8A F0              mov         dh,al
  00401093: 0F B6 46 51        movzx       eax,byte ptr [esi+51h]
  00401097: 0F AF C1           imul        eax,ecx
  0040109A: 0F B6 4E 55        movzx       ecx,byte ptr [esi+55h]
  0040109E: 0F AF 4D E8        imul        ecx,dword ptr [ebp-18h]
  004010A2: 03 C1              add         eax,ecx
  004010A4: 8B CA              mov         ecx,edx
  004010A6: 99                 cdq
  004010A7: F7 FF              idiv        eax,edi
  004010A9: 0F B6 56 54        movzx       edx,byte ptr [esi+54h]
  004010AD: 0F AF 55 E8        imul        edx,dword ptr [ebp-18h]
  004010B1: 8A C8              mov         cl,al
  004010B3: 0F B6 46 50        movzx       eax,byte ptr [esi+50h]
  004010B7: 0F AF 45 10        imul        eax,dword ptr [ebp+10h]
  004010BB: 03 C2              add         eax,edx
  004010BD: 99                 cdq
  004010BE: F7 FF              idiv        eax,edi
  004010C0: C1 E1 08           shl         ecx,8
  004010C3: 0F B6 C0           movzx       eax,al
  004010C6: 0B C8              or          ecx,eax
  004010C8: 8D 45 F4           lea         eax,[ebp-0Ch]
  004010CB: 50                 push        eax
  004010CC: 89 4D F8           mov         dword ptr [ebp-8],ecx
  004010CF: FF 15 64 80 40 00  call        dword ptr ds:[00408064h]
  004010D5: 83 45 F0 04        add         dword ptr [ebp-10h],4
  004010D9: 89 45 14           mov         dword ptr [ebp+14h],eax
  004010DC: 50                 push        eax
  004010DD: 8D 45 E4           lea         eax,[ebp-1Ch]
  004010E0: 50                 push        eax
  004010E1: FF 75 0C           push        dword ptr [ebp+0Ch]
  004010E4: FF 15 28 82 40 00  call        dword ptr ds:[00408228h]
  004010EA: FF 75 14           push        dword ptr [ebp+14h]
  004010ED: FF D3              call        ebx
  004010EF: 83 45 E8 04        add         dword ptr [ebp-18h],4
  004010F3: 39 7D E8           cmp         dword ptr [ebp-18h],edi
  004010F6: 0F 8C 77 FF FF FF  jl          00401073
  004010FC: 83 7E 58 FF        cmp         dword ptr [esi+58h],0FFFFFFFFh
  00401100: 74 65              je          00401167
  00401102: FF 76 34           push        dword ptr [esi+34h]
  00401105: FF 15 54 80 40 00  call        dword ptr ds:[00408054h]
  0040110B: 85 C0              test        eax,eax
  0040110D: 89 45 14           mov         dword ptr [ebp+14h],eax
  00401110: 74 55              je          00401167
  00401112: 8B 7D 0C           mov         edi,dword ptr [ebp+0Ch]
  00401115: 6A 01              push        1
  00401117: 57                 push        edi
  00401118: C7 45 E4 10 00 00  mov         dword ptr [ebp-1Ch],10h
            00
  0040111F: C7 45 E8 08 00 00  mov         dword ptr [ebp-18h],8
            00
  00401126: FF 15 50 80 40 00  call        dword ptr ds:[00408050h]
  0040112C: FF 76 58           push        dword ptr [esi+58h]
  0040112F: 57                 push        edi
  00401130: FF 15 58 80 40 00  call        dword ptr ds:[00408058h]
  00401136: FF 75 14           push        dword ptr [ebp+14h]
  00401139: 8B 35 4C 80 40 00  mov         esi,dword ptr ds:[0040804Ch]
  0040113F: 57                 push        edi
  00401140: FF D6              call        esi
  00401142: 89 45 0C           mov         dword ptr [ebp+0Ch],eax
  00401145: 8D 45 E4           lea         eax,[ebp-1Ch]
  00401148: 68 20 08 00 00     push        820h
  0040114D: 50                 push        eax
  0040114E: 6A FF              push        0FFFFFFFFh
  00401150: 68 E0 3E 43 00     push        433EE0h
  00401155: 57                 push        edi
  00401156: FF 15 2C 82 40 00  call        dword ptr ds:[0040822Ch]
  0040115C: FF 75 0C           push        dword ptr [ebp+0Ch]
  0040115F: 57                 push        edi
  00401160: FF D6              call        esi
  00401162: FF 75 14           push        dword ptr [ebp+14h]
  00401165: FF D3              call        ebx
  00401167: 8D 45 A4           lea         eax,[ebp-5Ch]
  0040116A: 50                 push        eax
  0040116B: FF 75 08           push        dword ptr [ebp+8]
  0040116E: FF 15 84 82 40 00  call        dword ptr ds:[00408284h]
  00401174: 5F                 pop         edi
  00401175: 5E                 pop         esi
  00401176: 33 C0              xor         eax,eax
  00401178: 5B                 pop         ebx
  00401179: C9                 leave
  0040117A: C2 10 00           ret         10h
  0040117D: 8B 4C 24 04        mov         ecx,dword ptr [esp+4]
  00401181: A1 28 4F 43 00     mov         eax,dword ptr ds:[00434F28h]
  00401186: 8B D1              mov         edx,ecx
  00401188: 53                 push        ebx
  00401189: 69 D2 18 08 00 00  imul        edx,edx,818h
  0040118F: 56                 push        esi
  00401190: 57                 push        edi
  00401191: 8B 54 02 08        mov         edx,dword ptr [edx+eax+8]
  00401195: F6 C2 02           test        dl,2
  00401198: 74 4F              je          004011E9
  0040119A: 8D 71 01           lea         esi,[ecx+1]
  0040119D: 33 FF              xor         edi,edi
  0040119F: 3B 35 2C 4F 43 00  cmp         esi,dword ptr ds:[00434F2Ch]
  004011A5: 73 42              jae         004011E9
  004011A7: 8B CE              mov         ecx,esi
  004011A9: 69 C9 18 08 00 00  imul        ecx,ecx,818h
  004011AF: 8D 44 01 08        lea         eax,[ecx+eax+8]
  004011B3: 8B 08              mov         ecx,dword ptr [eax]
  004011B5: F6 C1 02           test        cl,2
  004011B8: 74 03              je          004011BD
  004011BA: 47                 inc         edi
  004011BB: EB 1E              jmp         004011DB
  004011BD: F6 C1 04           test        cl,4
  004011C0: 74 09              je          004011CB
  004011C2: 8B CF              mov         ecx,edi
  004011C4: 4F                 dec         edi
  004011C5: 85 C9              test        ecx,ecx
  004011C7: 74 20              je          004011E9
  004011C9: EB 10              jmp         004011DB
  004011CB: F6 C1 10           test        cl,10h
  004011CE: 75 0B              jne         004011DB
  004011D0: 8B D9              mov         ebx,ecx
  004011D2: 33 DA              xor         ebx,edx
  004011D4: 83 E3 01           and         ebx,1
  004011D7: 33 D9              xor         ebx,ecx
  004011D9: 89 18              mov         dword ptr [eax],ebx
  004011DB: 46                 inc         esi
  004011DC: 05 18 08 00 00     add         eax,818h
  004011E1: 3B 35 2C 4F 43 00  cmp         esi,dword ptr ds:[00434F2Ch]
  004011E7: 72 CA              jb          004011B3
  004011E9: 5F                 pop         edi
  004011EA: 5E                 pop         esi
  004011EB: 5B                 pop         ebx
  004011EC: C2 04 00           ret         4
  004011EF: 55                 push        ebp
  004011F0: 8B EC              mov         ebp,esp
  004011F2: 51                 push        ecx
  004011F3: 51                 push        ecx
  004011F4: 8B 55 08           mov         edx,dword ptr [ebp+8]
  004011F7: 53                 push        ebx
  004011F8: 56                 push        esi
  004011F9: 8B F2              mov         esi,edx
  004011FB: 69 F6 18 08 00 00  imul        esi,esi,818h
  00401201: 8B 1D 28 4F 43 00  mov         ebx,dword ptr ds:[00434F28h]
  00401207: 33 C9              xor         ecx,ecx
  00401209: 03 F3              add         esi,ebx
  0040120B: 57                 push        edi
  0040120C: 89 4D FC           mov         dword ptr [ebp-4],ecx
  0040120F: 89 4D F8           mov         dword ptr [ebp-8],ecx
  00401212: 8B 46 08           mov         eax,dword ptr [esi+8]
  00401215: A8 02              test        al,2
  00401217: 74 0B              je          00401224
  00401219: 39 4D 0C           cmp         dword ptr [ebp+0Ch],ecx
  0040121C: 74 06              je          00401224
  0040121E: 24 BE              and         al,0BEh
  00401220: 42                 inc         edx
  00401221: 89 46 08           mov         dword ptr [esi+8],eax
  00401224: 3B 15 2C 4F 43 00  cmp         edx,dword ptr ds:[00434F2Ch]
  0040122A: 73 44              jae         00401270
  0040122C: 8B C2              mov         eax,edx
  0040122E: 69 C0 18 08 00 00  imul        eax,eax,818h
  00401234: 8D 7C 18 08        lea         edi,[eax+ebx+8]
  00401238: 8D 42 01           lea         eax,[edx+1]
  0040123B: 8B 0F              mov         ecx,dword ptr [edi]
  0040123D: F6 C1 02           test        cl,2
  00401240: 74 0A              je          0040124C
  00401242: 6A 01              push        1
  00401244: 52                 push        edx
  00401245: E8 A5 FF FF FF     call        004011EF
  0040124A: 8B 0F              mov         ecx,dword ptr [edi]
  0040124C: F6 C1 04           test        cl,4
  0040124F: 75 28              jne         00401279
  00401251: F6 C1 40           test        cl,40h
  00401254: 74 03              je          00401259
  00401256: FF 45 FC           inc         dword ptr [ebp-4]
  00401259: F6 C1 01           test        cl,1
  0040125C: 74 05              je          00401263
  0040125E: FF 45 FC           inc         dword ptr [ebp-4]
  00401261: EB 03              jmp         00401266
  00401263: FF 45 F8           inc         dword ptr [ebp-8]
  00401266: 3B 05 2C 4F 43 00  cmp         eax,dword ptr ds:[00434F2Ch]
  0040126C: 8B D0              mov         edx,eax
  0040126E: 72 BC              jb          0040122C
  00401270: 33 C0              xor         eax,eax
  00401272: 5F                 pop         edi
  00401273: 5E                 pop         esi
  00401274: 5B                 pop         ebx
  00401275: C9                 leave
  00401276: C2 08 00           ret         8
  00401279: 83 7D FC 00        cmp         dword ptr [ebp-4],0
  0040127D: 74 F3              je          00401272
  0040127F: 83 7D F8 00        cmp         dword ptr [ebp-8],0
  00401283: 74 06              je          0040128B
  00401285: 83 4E 08 40        or          dword ptr [esi+8],40h
  00401289: EB E7              jmp         00401272
  0040128B: 8B 4E 08           mov         ecx,dword ptr [esi+8]
  0040128E: 80 E1 7F           and         cl,7Fh
  00401291: 83 C9 01           or          ecx,1
  00401294: 89 4E 08           mov         dword ptr [esi+8],ecx
  00401297: EB D9              jmp         00401272
  00401299: 8B 4C 24 04        mov         ecx,dword ptr [esp+4]
  0040129D: A1 28 4F 43 00     mov         eax,dword ptr ds:[00434F28h]
  004012A2: 56                 push        esi
  004012A3: 33 F6              xor         esi,esi
  004012A5: 83 F9 20           cmp         ecx,20h
  004012A8: 73 34              jae         004012DE
  004012AA: 39 35 2C 4F 43 00  cmp         dword ptr ds:[00434F2Ch],esi
  004012B0: 76 2C              jbe         004012DE
  004012B2: 8D 50 08           lea         edx,[eax+8]
  004012B5: 57                 push        edi
  004012B6: 8B 02              mov         eax,dword ptr [edx]
  004012B8: A8 06              test        al,6
  004012BA: 75 12              jne         004012CE
  004012BC: 33 FF              xor         edi,edi
  004012BE: 47                 inc         edi
  004012BF: D3 E7              shl         edi,cl
  004012C1: 85 7A FC           test        dword ptr [edx-4],edi
  004012C4: 74 04              je          004012CA
  004012C6: 0C 01              or          al,1
  004012C8: EB 02              jmp         004012CC
  004012CA: 24 FE              and         al,0FEh
  004012CC: 89 02              mov         dword ptr [edx],eax
  004012CE: 46                 inc         esi
  004012CF: 81 C2 18 08 00 00  add         edx,818h
  004012D5: 3B 35 2C 4F 43 00  cmp         esi,dword ptr ds:[00434F2Ch]
  004012DB: 72 D9              jb          004012B6
  004012DD: 5F                 pop         edi
  004012DE: 5E                 pop         esi
  004012DF: C2 04 00           ret         4
  004012E2: 55                 push        ebp
  004012E3: 8B EC              mov         ebp,esp
  004012E5: 83 EC 0C           sub         esp,0Ch
  004012E8: A1 F4 4E 43 00     mov         eax,dword ptr ds:[00434EF4h]
  004012ED: 83 65 FC 00        and         dword ptr [ebp-4],0
  004012F1: 53                 push        ebx
  004012F2: 56                 push        esi
  004012F3: 05 94 00 00 00     add         eax,94h
  004012F8: 57                 push        edi
  004012F9: 8B 3D 2C 4F 43 00  mov         edi,dword ptr ds:[00434F2Ch]
  004012FF: 89 45 F8           mov         dword ptr [ebp-8],eax
  00401302: 8B 45 F8           mov         eax,dword ptr [ebp-8]
  00401305: 33 DB              xor         ebx,ebx
  00401307: 39 18              cmp         dword ptr [eax],ebx
  00401309: 74 4B              je          00401356
  0040130B: 3B DF              cmp         ebx,edi
  0040130D: 73 45              jae         00401354
  0040130F: 8B 35 28 4F 43 00  mov         esi,dword ptr ds:[00434F28h]
  00401315: 83 C6 08           add         esi,8
  00401318: 8B 16              mov         edx,dword ptr [esi]
  0040131A: F6 C2 06           test        dl,6
  0040131D: 75 28              jne         00401347
  0040131F: 8B 45 08           mov         eax,dword ptr [ebp+8]
  00401322: 85 C0              test        eax,eax
  00401324: 74 06              je          0040132C
  00401326: 83 3C 98 00        cmp         dword ptr [eax+ebx*4],0
  0040132A: 74 1B              je          00401347
  0040132C: 8B 4D FC           mov         ecx,dword ptr [ebp-4]
  0040132F: 33 C0              xor         eax,eax
  00401331: 40                 inc         eax
  00401332: 83 E2 01           and         edx,1
  00401335: D3 E0              shl         eax,cl
  00401337: 8B 4E FC           mov         ecx,dword ptr [esi-4]
  0040133A: 23 C8              and         ecx,eax
  0040133C: 8B C1              mov         eax,ecx
  0040133E: 8B 4D FC           mov         ecx,dword ptr [ebp-4]
  00401341: D3 E2              shl         edx,cl
  00401343: 3B C2              cmp         eax,edx
  00401345: 75 0B              jne         00401352
  00401347: 43                 inc         ebx
  00401348: 81 C6 18 08 00 00  add         esi,818h
  0040134E: 3B DF              cmp         ebx,edi
  00401350: 72 C6              jb          00401318
  00401352: 3B DF              cmp         ebx,edi
  00401354: 74 0D              je          00401363
  00401356: FF 45 FC           inc         dword ptr [ebp-4]
  00401359: 83 45 F8 04        add         dword ptr [ebp-8],4
  0040135D: 83 7D FC 20        cmp         dword ptr [ebp-4],20h
  00401361: 72 9F              jb          00401302
  00401363: 8B 45 FC           mov         eax,dword ptr [ebp-4]
  00401366: 5F                 pop         edi
  00401367: 5E                 pop         esi
  00401368: 5B                 pop         ebx
  00401369: C9                 leave
  0040136A: C2 04 00           ret         4
  0040136D: 8B 44 24 04        mov         eax,dword ptr [esp+4]
  00401371: 85 C0              test        eax,eax
  00401373: 7D 11              jge         00401386
  00401375: 40                 inc         eax
  00401376: B9 00 50 43 00     mov         ecx,435000h
  0040137B: C1 E0 0B           shl         eax,0Bh
  0040137E: 2B C8              sub         ecx,eax
  00401380: 51                 push        ecx
  00401381: E8 94 4E 00 00     call        0040621A
  00401386: C2 04 00           ret         4
  00401389: 56                 push        esi
  0040138A: 8B 74 24 08        mov         esi,dword ptr [esp+8]
  0040138E: EB 6A              jmp         004013FA
  00401390: 8B C6              mov         eax,esi
  00401392: 8B 0D 30 4F 43 00  mov         ecx,dword ptr ds:[00434F30h]
  00401398: 6B C0 1C           imul        eax,eax,1Ch
  0040139B: 03 C1              add         eax,ecx
  0040139D: 83 38 01           cmp         dword ptr [eax],1
  004013A0: 74 5C              je          004013FE
  004013A2: 50                 push        eax
  004013A3: E8 8C 00 00 00     call        00401434
  004013A8: 3D FF FF FF 7F     cmp         eax,7FFFFFFFh
  004013AD: 74 55              je          00401404
  004013AF: 50                 push        eax
  004013B0: E8 B8 FF FF FF     call        0040136D
  004013B5: 85 C0              test        eax,eax
  004013B7: 75 04              jne         004013BD
  004013B9: 40                 inc         eax
  004013BA: 46                 inc         esi
  004013BB: EB 07              jmp         004013C4
  004013BD: 48                 dec         eax
  004013BE: 8B CE              mov         ecx,esi
  004013C0: 8B F0              mov         esi,eax
  004013C2: 2B C1              sub         eax,ecx
  004013C4: 83 7C 24 0C 00     cmp         dword ptr [esp+0Ch],0
  004013C9: 74 2F              je          004013FA
  004013CB: 01 05 CC 3E 43 00  add         dword ptr ds:[00433ECCh],eax
  004013D1: 6A 00              push        0
  004013D3: FF 35 B4 3E 43 00  push        dword ptr ds:[00433EB4h]
  004013D9: 68 30 75 00 00     push        7530h
  004013DE: FF 35 CC 3E 43 00  push        dword ptr ds:[00433ECCh]
  004013E4: FF 15 54 81 40 00  call        dword ptr ds:[00408154h]
  004013EA: 50                 push        eax
  004013EB: 68 02 04 00 00     push        402h
  004013F0: FF 74 24 18        push        dword ptr [esp+18h]
  004013F4: FF 15 18 82 40 00  call        dword ptr ds:[00408218h]
  004013FA: 85 F6              test        esi,esi
  004013FC: 7D 92              jge         00401390
  004013FE: 33 C0              xor         eax,eax
  00401400: 5E                 pop         esi
  00401401: C2 08 00           ret         8
  00401404: B8 FF FF FF 7F     mov         eax,7FFFFFFFh
  00401409: EB F5              jmp         00401400
  0040140B: 8B 44 24 04        mov         eax,dword ptr [esp+4]
  0040140F: 8B 0D F4 4E 43 00  mov         ecx,dword ptr ds:[00434EF4h]
  00401415: 6A 00              push        0
  00401417: FF 74 81 6C        push        dword ptr [ecx+eax*4+6Ch]
  0040141B: E8 69 FF FF FF     call        00401389
  00401420: C2 04 00           ret         4
  00401423: 68 D0 AD 40 00     push        40ADD0h
  00401428: FF 74 24 08        push        dword ptr [esp+8]
  0040142C: E8 F1 3E 00 00     call        00405322
  00401431: C2 04 00           ret         4
  00401434: 55                 push        ebp
  00401435: 8B EC              mov         ebp,esp
  00401437: 81 EC D4 02 00 00  sub         esp,2D4h
  0040143D: 53                 push        ebx
  0040143E: 56                 push        esi
  0040143F: 8B 75 08           mov         esi,dword ptr [ebp+8]
  00401442: 57                 push        edi
  00401443: A1 E8 4E 43 00     mov         eax,dword ptr ds:[00434EE8h]
  00401448: 6A 07              push        7
  0040144A: 59                 pop         ecx
  0040144B: 8D 7D D4           lea         edi,[ebp-2Ch]
  0040144E: F3 A5              rep movs    dword ptr es:[edi],dword ptr [esi]
  00401450: 8B 4D DC           mov         ecx,dword ptr [ebp-24h]
  00401453: 8B 55 D4           mov         edx,dword ptr [ebp-2Ch]
  00401456: BF 00 50 43 00     mov         edi,435000h
  0040145B: 89 45 F8           mov         dword ptr [ebp-8],eax
  0040145E: 8B 45 D8           mov         eax,dword ptr [ebp-28h]
  00401461: 33 DB              xor         ebx,ebx
  00401463: C1 E1 0B           shl         ecx,0Bh
  00401466: 03 CF              add         ecx,edi
  00401468: 8B F0              mov         esi,eax
  0040146A: 89 4D F4           mov         dword ptr [ebp-0Ch],ecx
  0040146D: 8D 4D D8           lea         ecx,[ebp-28h]
  00401470: C1 E6 0B           shl         esi,0Bh
  00401473: 89 0D 2C CE 40 00  mov         dword ptr ds:[0040CE2Ch],ecx
  00401479: 8D 4A FE           lea         ecx,[edx-2]
  0040147C: 03 F7              add         esi,edi
  0040147E: 83 F9 43           cmp         ecx,43h
  00401481: 89 5D FC           mov         dword ptr [ebp-4],ebx
  00401484: 0F 87 3B 16 00 00  ja          00402AC5
  0040148A: FF 24 8D D7 2A 40  jmp         dword ptr [ecx*4+00402AD7h]
            00
  00401491: 53                 push        ebx
  00401492: 50                 push        eax
  00401493: E8 8A 3E 00 00     call        00405322
  00401498: E9 5A 0E 00 00     jmp         004022F7
  0040149D: FF 05 AC 3E 43 00  inc         dword ptr ds:[00433EACh]
  004014A3: 39 5D F8           cmp         dword ptr [ebp-8],ebx
  004014A6: 0F 84 4B 0E 00 00  je          004022F7
  004014AC: 53                 push        ebx
  004014AD: FF 15 94 82 40 00  call        dword ptr ds:[00408294h]
  004014B3: E9 3F 0E 00 00     jmp         004022F7
  004014B8: 50                 push        eax
  004014B9: E8 AF FE FF FF     call        0040136D
  004014BE: 48                 dec         eax
  004014BF: 53                 push        ebx
  004014C0: 50                 push        eax
  004014C1: E8 C3 FE FF FF     call        00401389
  004014C6: E9 05 16 00 00     jmp         00402AD0
  004014CB: 53                 push        ebx
  004014CC: 50                 push        eax
  004014CD: E8 50 3E 00 00     call        00405322
  004014D2: E9 EE 15 00 00     jmp         00402AC5
  004014D7: 53                 push        ebx
  004014D8: E8 42 17 00 00     call        00402C1F
  004014DD: 83 F8 01           cmp         eax,1
  004014E0: 59                 pop         ecx
  004014E1: 89 55 B4           mov         dword ptr [ebp-4Ch],edx
  004014E4: 7F 03              jg          004014E9
  004014E6: 33 C0              xor         eax,eax
  004014E8: 40                 inc         eax
  004014E9: 50                 push        eax
  004014EA: FF 15 78 80 40 00  call        dword ptr ds:[00408078h]
  004014F0: E9 D0 15 00 00     jmp         00402AC5
  004014F5: FF 75 F8           push        dword ptr [ebp-8]
  004014F8: FF 15 64 82 40 00  call        dword ptr ds:[00408264h]
  004014FE: E9 C2 15 00 00     jmp         00402AC5
  00401503: C1 E0 02           shl         eax,2
  00401506: 39 5D E0           cmp         dword ptr [ebp-20h],ebx
  00401509: 75 26              jne         00401531
  0040150B: 8B 88 80 4F 43 00  mov         ecx,dword ptr [eax+00434F80h]
  00401511: 6A 01              push        1
  00401513: 89 88 C0 4F 43 00  mov         dword ptr [eax+00434FC0h],ecx
  00401519: E8 01 17 00 00     call        00402C1F
  0040151E: 59                 pop         ecx
  0040151F: 89 55 B4           mov         dword ptr [ebp-4Ch],edx
  00401522: 8B 4D D8           mov         ecx,dword ptr [ebp-28h]
  00401525: 89 04 8D 80 4F 43  mov         dword ptr [ecx*4+00434F80h],eax
            00
  0040152C: E9 94 15 00 00     jmp         00402AC5
  00401531: 8B 88 C0 4F 43 00  mov         ecx,dword ptr [eax+00434FC0h]
  00401537: 89 88 80 4F 43 00  mov         dword ptr [eax+00434F80h],ecx
  0040153D: E9 83 15 00 00     jmp         00402AC5
  00401542: 8B 45 E0           mov         eax,dword ptr [ebp-20h]
  00401545: 8D 34 85 80 4F 43  lea         esi,[eax*4+00434F80h]
            00
  0040154C: 33 C0              xor         eax,eax
  0040154E: 8B 0E              mov         ecx,dword ptr [esi]
  00401550: 3B CB              cmp         ecx,ebx
  00401552: 0F 94 C0           sete        al
  00401555: 23 4D E4           and         ecx,dword ptr [ebp-1Ch]
  00401558: 8B 44 85 D8        mov         eax,dword ptr [ebp+eax*4-28h]
  0040155C: 89 0E              mov         dword ptr [esi],ecx
  0040155E: E9 6D 15 00 00     jmp         00402AD0
  00401563: 8B 45 DC           mov         eax,dword ptr [ebp-24h]
  00401566: FF 34 85 80 4F 43  push        dword ptr [eax*4+00434F80h]
            00
  0040156D: 56                 push        esi
  0040156E: E9 F8 14 00 00     jmp         00402A6B
  00401573: 8B 0D B0 3E 43 00  mov         ecx,dword ptr ds:[00433EB0h]
  00401579: 8B 35 68 82 40 00  mov         esi,dword ptr ds:[00408268h]
  0040157F: 3B CB              cmp         ecx,ebx
  00401581: 74 09              je          0040158C
  00401583: FF 75 DC           push        dword ptr [ebp-24h]
  00401586: 51                 push        ecx
  00401587: FF D6              call        esi
  00401589: 8B 45 D8           mov         eax,dword ptr [ebp-28h]
  0040158C: 8B 0D C4 3E 43 00  mov         ecx,dword ptr ds:[00433EC4h]
  00401592: 3B CB              cmp         ecx,ebx
  00401594: 0F 84 2B 15 00 00  je          00402AC5
  0040159A: 50                 push        eax
  0040159B: 51                 push        ecx
  0040159C: FF D6              call        esi
  0040159E: E9 22 15 00 00     jmp         00402AC5
  004015A3: 6A F0              push        0FFFFFFF0h
  004015A5: E8 97 16 00 00     call        00402C41
  004015AA: FF 75 DC           push        dword ptr [ebp-24h]
  004015AD: 50                 push        eax
  004015AE: FF 15 74 80 40 00  call        dword ptr ds:[00408074h]
  004015B4: 85 C0              test        eax,eax
  004015B6: 0F 85 09 15 00 00  jne         00402AC5
  004015BC: E9 CA 12 00 00     jmp         0040288B
  004015C1: 6A F0              push        0FFFFFFF0h
  004015C3: E8 79 16 00 00     call        00402C41
  004015C8: 50                 push        eax
  004015C9: 89 45 08           mov         dword ptr [ebp+8],eax
  004015CC: E8 69 46 00 00     call        00405C3A
  004015D1: 8B F0              mov         esi,eax
  004015D3: 3B F3              cmp         esi,ebx
  004015D5: 74 5A              je          00401631
  004015D7: 6A 5C              push        5Ch
  004015D9: 56                 push        esi
  004015DA: E8 DD 45 00 00     call        00405BBC
  004015DF: 8B F0              mov         esi,eax
  004015E1: 66 8B 3E           mov         di,word ptr [esi]
  004015E4: 66 89 1E           mov         word ptr [esi],bx
  004015E7: 66 3B FB           cmp         di,bx
  004015EA: 75 18              jne         00401604
  004015EC: 39 5D E0           cmp         dword ptr [ebp-20h],ebx
  004015EF: 74 13              je          00401604
  004015F1: E8 95 42 00 00     call        0040588B
  004015F6: 85 C0              test        eax,eax
  004015F8: 74 0A              je          00401604
  004015FA: FF 75 08           push        dword ptr [ebp+8]
  004015FD: E8 EF 41 00 00     call        004057F1
  00401602: EB 08              jmp         0040160C
  00401604: FF 75 08           push        dword ptr [ebp+8]
  00401607: E8 62 42 00 00     call        0040586E
  0040160C: 3B C3              cmp         eax,ebx
  0040160E: 74 17              je          00401627
  00401610: 3D B7 00 00 00     cmp         eax,0B7h
  00401615: 75 0D              jne         00401624
  00401617: FF 75 08           push        dword ptr [ebp+8]
  0040161A: FF 15 94 80 40 00  call        dword ptr ds:[00408094h]
  00401620: A8 10              test        al,10h
  00401622: 75 03              jne         00401627
  00401624: FF 45 FC           inc         dword ptr [ebp-4]
  00401627: 66 89 3E           mov         word ptr [esi],di
  0040162A: 46                 inc         esi
  0040162B: 46                 inc         esi
  0040162C: 66 3B FB           cmp         di,bx
  0040162F: 75 A6              jne         004015D7
  00401631: 39 5D DC           cmp         dword ptr [ebp-24h],ebx
  00401634: 74 2D              je          00401663
  00401636: 6A E6              push        0FFFFFFE6h
  00401638: E8 E6 FD FF FF     call        00401423
  0040163D: FF 75 08           push        dword ptr [ebp+8]
  00401640: 68 00 00 44 00     push        440000h
  00401645: E8 70 4C 00 00     call        004062BA
  0040164A: FF 75 08           push        dword ptr [ebp+8]
  0040164D: FF 15 90 80 40 00  call        dword ptr ds:[00408090h]
  00401653: 85 C0              test        eax,eax
  00401655: 0F 85 6A 14 00 00  jne         00402AC5
  0040165B: FF 45 FC           inc         dword ptr [ebp-4]
  0040165E: E9 62 14 00 00     jmp         00402AC5
  00401663: 6A F5              push        0FFFFFFF5h
  00401665: E9 E1 0B 00 00     jmp         0040224B
  0040166A: 53                 push        ebx
  0040166B: E8 D1 15 00 00     call        00402C41
  00401670: 50                 push        eax
  00401671: E8 87 4F 00 00     call        004065FD
  00401676: E9 89 06 00 00     jmp         00401D04
  0040167B: 6A D0              push        0FFFFFFD0h
  0040167D: E8 BF 15 00 00     call        00402C41
  00401682: 6A DF              push        0FFFFFFDFh
  00401684: 8B F0              mov         esi,eax
  00401686: E8 B6 15 00 00     call        00402C41
  0040168B: 6A 13              push        13h
  0040168D: 8B F8              mov         edi,eax
  0040168F: E8 AD 15 00 00     call        00402C41
  00401694: 57                 push        edi
  00401695: 56                 push        esi
  00401696: FF 15 08 81 40 00  call        dword ptr ds:[00408108h]
  0040169C: 85 C0              test        eax,eax
  0040169E: 74 07              je          004016A7
  004016A0: 6A E3              push        0FFFFFFE3h
  004016A2: E9 A4 0B 00 00     jmp         0040224B
  004016A7: 39 5D E0           cmp         dword ptr [ebp-20h],ebx
  004016AA: 0F 84 DB 11 00 00  je          0040288B
  004016B0: 56                 push        esi
  004016B1: E8 47 4F 00 00     call        004065FD
  004016B6: 85 C0              test        eax,eax
  004016B8: 0F 84 CD 11 00 00  je          0040288B
  004016BE: 57                 push        edi
  004016BF: 56                 push        esi
  004016C0: E8 BB 49 00 00     call        00406080
  004016C5: 6A E4              push        0FFFFFFE4h
  004016C7: E9 7F 0B 00 00     jmp         0040224B
  004016CC: 53                 push        ebx
  004016CD: E8 6F 15 00 00     call        00402C41
  004016D2: 8B 7D F4           mov         edi,dword ptr [ebp-0Ch]
  004016D5: 8B F0              mov         esi,eax
  004016D7: 8D 45 08           lea         eax,[ebp+8]
  004016DA: 50                 push        eax
  004016DB: 57                 push        edi
  004016DC: 68 00 04 00 00     push        400h
  004016E1: 56                 push        esi
  004016E2: FF 15 0C 81 40 00  call        dword ptr ds:[0040810Ch]
  004016E8: 85 C0              test        eax,eax
  004016EA: 74 24              je          00401710
  004016EC: 8B 45 08           mov         eax,dword ptr [ebp+8]
  004016EF: 3B C6              cmp         eax,esi
  004016F1: 76 27              jbe         0040171A
  004016F3: 66 39 18           cmp         word ptr [eax],bx
  004016F6: 74 22              je          0040171A
  004016F8: 56                 push        esi
  004016F9: E8 FF 4E 00 00     call        004065FD
  004016FE: 3B C3              cmp         eax,ebx
  00401700: 74 0E              je          00401710
  00401702: 83 C0 2C           add         eax,2Ch
  00401705: 50                 push        eax
  00401706: FF 75 08           push        dword ptr [ebp+8]
  00401709: E8 AC 4B 00 00     call        004062BA
  0040170E: EB 0A              jmp         0040171A
  00401710: C7 45 FC 01 00 00  mov         dword ptr [ebp-4],1
            00
  00401717: 66 89 1F           mov         word ptr [edi],bx
  0040171A: 39 5D E0           cmp         dword ptr [ebp-20h],ebx
  0040171D: 0F 85 A2 13 00 00  jne         00402AC5
  00401723: 68 00 04 00 00     push        400h
  00401728: 57                 push        edi
  00401729: 57                 push        edi
  0040172A: FF 15 BC 80 40 00  call        dword ptr ds:[004080BCh]
  00401730: E9 90 13 00 00     jmp         00402AC5
  00401735: 6A FF              push        0FFFFFFFFh
  00401737: E8 05 15 00 00     call        00402C41
  0040173C: 8D 4D 08           lea         ecx,[ebp+8]
  0040173F: 51                 push        ecx
  00401740: 56                 push        esi
  00401741: 68 00 04 00 00     push        400h
  00401746: 53                 push        ebx
  00401747: 50                 push        eax
  00401748: 53                 push        ebx
  00401749: FF 15 14 81 40 00  call        dword ptr ds:[00408114h]
  0040174F: 85 C0              test        eax,eax
  00401751: 0F 85 6E 13 00 00  jne         00402AC5
  00401757: E9 FD 10 00 00     jmp         00402859
  0040175C: 6A EF              push        0FFFFFFEFh
  0040175E: E8 DE 14 00 00     call        00402C41
  00401763: 50                 push        eax
  00401764: 56                 push        esi
  00401765: E8 75 46 00 00     call        00405DDF
  0040176A: E9 45 FE FF FF     jmp         004015B4
  0040176F: 6A 31              push        31h
  00401771: E8 CB 14 00 00     call        00402C41
  00401776: 89 45 F8           mov         dword ptr [ebp-8],eax
  00401779: 8B 45 D8           mov         eax,dword ptr [ebp-28h]
  0040177C: FF 75 F8           push        dword ptr [ebp-8]
  0040177F: 83 E0 07           and         eax,7
  00401782: 89 45 08           mov         dword ptr [ebp+8],eax
  00401785: E8 7C 44 00 00     call        00405C06
  0040178A: FF 75 F8           push        dword ptr [ebp-8]
  0040178D: BE D0 A5 40 00     mov         esi,40A5D0h
  00401792: 85 C0              test        eax,eax
  00401794: 74 08              je          0040179E
  00401796: 56                 push        esi
  00401797: E8 1E 4B 00 00     call        004062BA
  0040179C: EB 17              jmp         004017B5
  0040179E: 68 00 00 44 00     push        440000h
  004017A3: 56                 push        esi
  004017A4: E8 11 4B 00 00     call        004062BA
  004017A9: 50                 push        eax
  004017AA: E8 E0 43 00 00     call        00405B8F
  004017AF: 50                 push        eax
  004017B0: E8 21 4B 00 00     call        004062D6
  004017B5: 56                 push        esi
  004017B6: E8 93 4D 00 00     call        0040654E
  004017BB: 83 7D 08 03        cmp         dword ptr [ebp+8],3
  004017BF: 7C 31              jl          004017F2
  004017C1: 56                 push        esi
  004017C2: E8 36 4E 00 00     call        004065FD
  004017C7: 33 C9              xor         ecx,ecx
  004017C9: 3B C3              cmp         eax,ebx
  004017CB: 74 10              je          004017DD
  004017CD: 8D 4D E4           lea         ecx,[ebp-1Ch]
  004017D0: 83 C0 14           add         eax,14h
  004017D3: 51                 push        ecx
  004017D4: 50                 push        eax
  004017D5: FF 15 18 81 40 00  call        dword ptr ds:[00408118h]
  004017DB: 8B C8              mov         ecx,eax
  004017DD: 8B 45 08           mov         eax,dword ptr [ebp+8]
  004017E0: 83 C0 FD           add         eax,0FFFFFFFDh
  004017E3: 0D 00 00 00 80     or          eax,80000000h
  004017E8: 23 C1              and         eax,ecx
  004017EA: F7 D8              neg         eax
  004017EC: 1B C0              sbb         eax,eax
  004017EE: 40                 inc         eax
  004017EF: 89 45 08           mov         dword ptr [ebp+8],eax
  004017F2: 39 5D 08           cmp         dword ptr [ebp+8],ebx
  004017F5: 75 06              jne         004017FD
  004017F7: 56                 push        esi
  004017F8: E8 8E 45 00 00     call        00405D8B
  004017FD: 33 C0              xor         eax,eax
  004017FF: 83 7D 08 01        cmp         dword ptr [ebp+8],1
  00401803: 0F 95 C0           setne       al
  00401806: 40                 inc         eax
  00401807: 50                 push        eax
  00401808: 68 00 00 00 40     push        40000000h
  0040180D: 56                 push        esi
  0040180E: E8 9D 45 00 00     call        00405DB0
  00401813: 83 F8 FF           cmp         eax,0FFFFFFFFh
  00401816: 89 45 D0           mov         dword ptr [ebp-30h],eax
  00401819: 75 72              jne         0040188D
  0040181B: 39 5D 08           cmp         dword ptr [ebp+8],ebx
  0040181E: 75 4F              jne         0040186F
  00401820: 57                 push        edi
  00401821: 68 D0 B5 40 00     push        40B5D0h
  00401826: E8 8F 4A 00 00     call        004062BA
  0040182B: 56                 push        esi
  0040182C: 57                 push        edi
  0040182D: E8 88 4A 00 00     call        004062BA
  00401832: FF 75 EC           push        dword ptr [ebp-14h]
  00401835: 68 D0 AD 40 00     push        40ADD0h
  0040183A: E8 9D 4A 00 00     call        004062DC
  0040183F: 68 D0 B5 40 00     push        40B5D0h
  00401844: 57                 push        edi
  00401845: E8 70 4A 00 00     call        004062BA
  0040184A: 8B 45 D8           mov         eax,dword ptr [ebp-28h]
  0040184D: C1 F8 03           sar         eax,3
  00401850: 50                 push        eax
  00401851: 68 D0 AD 40 00     push        40ADD0h
  00401856: E8 C5 40 00 00     call        00405920
  0040185B: 83 E8 04           sub         eax,4
  0040185E: 0F 84 57 FF FF FF  je          004017BB
  00401864: 48                 dec         eax
  00401865: 74 1B              je          00401882
  00401867: 56                 push        esi
  00401868: 6A FA              push        0FFFFFFFAh
  0040186A: E9 24 FC FF FF     jmp         00401493
  0040186F: FF 75 F8           push        dword ptr [ebp-8]
  00401872: 6A E2              push        0FFFFFFE2h
  00401874: E8 A9 3A 00 00     call        00405322
  00401879: 83 7D 08 02        cmp         dword ptr [ebp+8],2
  0040187D: E9 34 FD FF FF     jmp         004015B6
  00401882: FF 05 88 4F 43 00  inc         dword ptr ds:[00434F88h]
  00401888: E9 41 12 00 00     jmp         00402ACE
  0040188D: FF 75 F8           push        dword ptr [ebp-8]
  00401890: 6A EA              push        0FFFFFFEAh
  00401892: E8 8B 3A 00 00     call        00405322
  00401897: FF 05 B4 4F 43 00  inc         dword ptr ds:[00434FB4h]
  0040189D: 53                 push        ebx
  0040189E: 53                 push        ebx
  0040189F: FF 75 D0           push        dword ptr [ebp-30h]
  004018A2: FF 75 E0           push        dword ptr [ebp-20h]
  004018A5: E8 6C 18 00 00     call        00403116
  004018AA: FF 0D B4 4F 43 00  dec         dword ptr ds:[00434FB4h]
  004018B0: 83 7D E4 FF        cmp         dword ptr [ebp-1Ch],0FFFFFFFFh
  004018B4: 8B F8              mov         edi,eax
  004018B6: 75 06              jne         004018BE
  004018B8: 83 7D E8 FF        cmp         dword ptr [ebp-18h],0FFFFFFFFh
  004018BC: 74 12              je          004018D0
  004018BE: 8D 45 E4           lea         eax,[ebp-1Ch]
  004018C1: 50                 push        eax
  004018C2: 8D 45 E4           lea         eax,[ebp-1Ch]
  004018C5: 53                 push        ebx
  004018C6: 50                 push        eax
  004018C7: FF 75 D0           push        dword ptr [ebp-30h]
  004018CA: FF 15 10 81 40 00  call        dword ptr ds:[00408110h]
  004018D0: FF 75 D0           push        dword ptr [ebp-30h]
  004018D3: FF 15 20 81 40 00  call        dword ptr ds:[00408120h]
  004018D9: 3B FB              cmp         edi,ebx
  004018DB: 0F 8D E4 11 00 00  jge         00402AC5
  004018E1: 83 FF FE           cmp         edi,0FFFFFFFEh
  004018E4: 75 13              jne         004018F9
  004018E6: 6A E9              push        0FFFFFFE9h
  004018E8: 56                 push        esi
  004018E9: E8 EE 49 00 00     call        004062DC
  004018EE: FF 75 F8           push        dword ptr [ebp-8]
  004018F1: 56                 push        esi
  004018F2: E8 DF 49 00 00     call        004062D6
  004018F7: EB 08              jmp         00401901
  004018F9: 6A EE              push        0FFFFFFEEh
  004018FB: 56                 push        esi
  004018FC: E8 DB 49 00 00     call        004062DC
  00401901: 68 10 00 20 00     push        200010h
  00401906: 56                 push        esi
  00401907: E9 E6 09 00 00     jmp         004022F2
  0040190C: 53                 push        ebx
  0040190D: EB 34              jmp         00401943
  0040190F: 6A 31              push        31h
  00401911: E8 2B 13 00 00     call        00402C41
  00401916: FF 75 D8           push        dword ptr [ebp-28h]
  00401919: 50                 push        eax
  0040191A: E8 01 40 00 00     call        00405920
  0040191F: 3B C3              cmp         eax,ebx
  00401921: 0F 84 64 0F 00 00  je          0040288B
  00401927: 3B 45 E0           cmp         eax,dword ptr [ebp-20h]
  0040192A: 0F 84 6C 01 00 00  je          00401A9C
  00401930: 3B 45 E8           cmp         eax,dword ptr [ebp-18h]
  00401933: 0F 85 8C 11 00 00  jne         00402AC5
  00401939: 8B 45 EC           mov         eax,dword ptr [ebp-14h]
  0040193C: E9 8F 11 00 00     jmp         00402AD0
  00401941: 6A F0              push        0FFFFFFF0h
  00401943: E8 F9 12 00 00     call        00402C41
  00401948: FF 75 DC           push        dword ptr [ebp-24h]
  0040194B: 50                 push        eax
  0040194C: E8 7B 40 00 00     call        004059CC
  00401951: E9 6F 11 00 00     jmp         00402AC5
  00401956: 6A 01              push        1
  00401958: E8 E4 12 00 00     call        00402C41
  0040195D: 50                 push        eax
  0040195E: E8 6D 49 00 00     call        004062D0
  00401963: E9 2A 0C 00 00     jmp         00402592
  00401968: 6A 02              push        2
  0040196A: E8 B0 12 00 00     call        00402C1F
  0040196F: 6A 03              push        3
  00401971: 89 45 B0           mov         dword ptr [ebp-50h],eax
  00401974: 89 55 B4           mov         dword ptr [ebp-4Ch],edx
  00401977: E8 A3 12 00 00     call        00402C1F
  0040197C: 59                 pop         ecx
  0040197D: 8B F8              mov         edi,eax
  0040197F: 8B 45 B0           mov         eax,dword ptr [ebp-50h]
  00401982: 59                 pop         ecx
  00401983: 6A 01              push        1
  00401985: 89 7D CC           mov         dword ptr [ebp-34h],edi
  00401988: 89 55 D0           mov         dword ptr [ebp-30h],edx
  0040198B: 89 45 08           mov         dword ptr [ebp+8],eax
  0040198E: E8 AE 12 00 00     call        00402C41
  00401993: 50                 push        eax
  00401994: 89 45 C4           mov         dword ptr [ebp-3Ch],eax
  00401997: E8 34 49 00 00     call        004062D0
  0040199C: 39 5D B4           cmp         dword ptr [ebp-4Ch],ebx
  0040199F: 66 89 1E           mov         word ptr [esi],bx
  004019A2: 75 03              jne         004019A7
  004019A4: 89 45 08           mov         dword ptr [ebp+8],eax
  004019A7: 39 5D 08           cmp         dword ptr [ebp+8],ebx
  004019AA: 0F 84 15 11 00 00  je          00402AC5
  004019B0: 8B 4D CC           mov         ecx,dword ptr [ebp-34h]
  004019B3: 3B CB              cmp         ecx,ebx
  004019B5: 7D 0B              jge         004019C2
  004019B7: 8D 3C 08           lea         edi,[eax+ecx]
  004019BA: 3B FB              cmp         edi,ebx
  004019BC: 0F 8C 03 11 00 00  jl          00402AC5
  004019C2: 3B F8              cmp         edi,eax
  004019C4: 7E 02              jle         004019C8
  004019C6: 8B F8              mov         edi,eax
  004019C8: 8B 45 C4           mov         eax,dword ptr [ebp-3Ch]
  004019CB: 8D 04 78           lea         eax,[eax+edi*2]
  004019CE: 50                 push        eax
  004019CF: 56                 push        esi
  004019D0: E8 E5 48 00 00     call        004062BA
  004019D5: 39 5D 08           cmp         dword ptr [ebp+8],ebx
  004019D8: 7D 0E              jge         004019E8
  004019DA: 56                 push        esi
  004019DB: E8 F0 48 00 00     call        004062D0
  004019E0: 01 45 08           add         dword ptr [ebp+8],eax
  004019E3: 79 03              jns         004019E8
  004019E5: 89 5D 08           mov         dword ptr [ebp+8],ebx
  004019E8: 8B 45 08           mov         eax,dword ptr [ebp+8]
  004019EB: 3D 00 04 00 00     cmp         eax,400h
  004019F0: 0F 8D CF 10 00 00  jge         00402AC5
  004019F6: 66 89 1C 46        mov         word ptr [esi+eax*2],bx
  004019FA: E9 C6 10 00 00     jmp         00402AC5
  004019FF: 6A 20              push        20h
  00401A01: E8 3B 12 00 00     call        00402C41
  00401A06: 6A 31              push        31h
  00401A08: 8B F0              mov         esi,eax
  00401A0A: E8 32 12 00 00     call        00402C41
  00401A0F: 39 5D E8           cmp         dword ptr [ebp-18h],ebx
  00401A12: 50                 push        eax
  00401A13: 56                 push        esi
  00401A14: 75 12              jne         00401A28
  00401A16: FF 15 04 81 40 00  call        dword ptr ds:[00408104h]
  00401A1C: 85 C0              test        eax,eax
  00401A1E: 75 7C              jne         00401A9C
  00401A20: 8B 45 E0           mov         eax,dword ptr [ebp-20h]
  00401A23: E9 A8 10 00 00     jmp         00402AD0
  00401A28: FF 15 1C 81 40 00  call        dword ptr ds:[0040811Ch]
  00401A2E: EB EC              jmp         00401A1C
  00401A30: 33 FF              xor         edi,edi
  00401A32: 47                 inc         edi
  00401A33: 57                 push        edi
  00401A34: E8 08 12 00 00     call        00402C41
  00401A39: 68 00 04 00 00     push        400h
  00401A3E: 56                 push        esi
  00401A3F: 50                 push        eax
  00401A40: 89 45 08           mov         dword ptr [ebp+8],eax
  00401A43: FF 15 24 81 40 00  call        dword ptr ds:[00408124h]
  00401A49: 85 C0              test        eax,eax
  00401A4B: 74 13              je          00401A60
  00401A4D: 39 5D E0           cmp         dword ptr [ebp-20h],ebx
  00401A50: 74 14              je          00401A66
  00401A52: 56                 push        esi
  00401A53: FF 75 08           push        dword ptr [ebp+8]
  00401A56: FF 15 1C 81 40 00  call        dword ptr ds:[0040811Ch]
  00401A5C: 85 C0              test        eax,eax
  00401A5E: 75 06              jne         00401A66
  00401A60: 89 7D FC           mov         dword ptr [ebp-4],edi
  00401A63: 66 89 1E           mov         word ptr [esi],bx
  00401A66: 66 89 9E FE 07 00  mov         word ptr [esi+000007FEh],bx
            00
  00401A6D: E9 53 10 00 00     jmp         00402AC5
  00401A72: 8B 75 EC           mov         esi,dword ptr [ebp-14h]
  00401A75: 53                 push        ebx
  00401A76: E8 A4 11 00 00     call        00402C1F
  00401A7B: 6A 01              push        1
  00401A7D: 8B F8              mov         edi,eax
  00401A7F: 89 55 B4           mov         dword ptr [ebp-4Ch],edx
  00401A82: E8 98 11 00 00     call        00402C1F
  00401A87: 59                 pop         ecx
  00401A88: 3B F3              cmp         esi,ebx
  00401A8A: 59                 pop         ecx
  00401A8B: 89 55 B4           mov         dword ptr [ebp-4Ch],edx
  00401A8E: 75 08              jne         00401A98
  00401A90: 3B F8              cmp         edi,eax
  00401A92: 7C 08              jl          00401A9C
  00401A94: 7E 8A              jle         00401A20
  00401A96: EB 12              jmp         00401AAA
  00401A98: 3B F8              cmp         edi,eax
  00401A9A: 73 08              jae         00401AA4
  00401A9C: 8B 45 E4           mov         eax,dword ptr [ebp-1Ch]
  00401A9F: E9 2C 10 00 00     jmp         00402AD0
  00401AA4: 0F 86 76 FF FF FF  jbe         00401A20
  00401AAA: 8B 45 E8           mov         eax,dword ptr [ebp-18h]
  00401AAD: E9 1E 10 00 00     jmp         00402AD0
  00401AB2: 6A 01              push        1
  00401AB4: E8 66 11 00 00     call        00402C1F
  00401AB9: 8B F8              mov         edi,eax
  00401ABB: 6A 02              push        2
  00401ABD: 89 55 B4           mov         dword ptr [ebp-4Ch],edx
  00401AC0: 89 7D 08           mov         dword ptr [ebp+8],edi
  00401AC3: E8 57 11 00 00     call        00402C1F
  00401AC8: 59                 pop         ecx
  00401AC9: 89 55 B4           mov         dword ptr [ebp-4Ch],edx
  00401ACC: 59                 pop         ecx
  00401ACD: 8B C8              mov         ecx,eax
  00401ACF: 8B 45 E4           mov         eax,dword ptr [ebp-1Ch]
  00401AD2: 83 F8 0D           cmp         eax,0Dh
  00401AD5: 77 73              ja          00401B4A
  00401AD7: FF 24 85 E7 2B 40  jmp         dword ptr [eax*4+00402BE7h]
            00
  00401ADE: 03 F9              add         edi,ecx
  00401AE0: EB 6B              jmp         00401B4D
  00401AE2: 2B F9              sub         edi,ecx
  00401AE4: EB 67              jmp         00401B4D
  00401AE6: 0F AF CF           imul        ecx,edi
  00401AE9: EB 17              jmp         00401B02
  00401AEB: 3B CB              cmp         ecx,ebx
  00401AED: 74 44              je          00401B33
  00401AEF: 8B C7              mov         eax,edi
  00401AF1: 99                 cdq
  00401AF2: F7 F9              idiv        eax,ecx
  00401AF4: 8B F8              mov         edi,eax
  00401AF6: EB 55              jmp         00401B4D
  00401AF8: 0B CF              or          ecx,edi
  00401AFA: EB 06              jmp         00401B02
  00401AFC: 23 CF              and         ecx,edi
  00401AFE: EB 02              jmp         00401B02
  00401B00: 33 CF              xor         ecx,edi
  00401B02: 8B F9              mov         edi,ecx
  00401B04: EB 47              jmp         00401B4D
  00401B06: 33 C0              xor         eax,eax
  00401B08: 3B FB              cmp         edi,ebx
  00401B0A: 0F 94 C0           sete        al
  00401B0D: EB E5              jmp         00401AF4
  00401B0F: 3B FB              cmp         edi,ebx
  00401B11: 75 0E              jne         00401B21
  00401B13: EB 08              jmp         00401B1D
  00401B15: 33 FF              xor         edi,edi
  00401B17: EB 34              jmp         00401B4D
  00401B19: 3B FB              cmp         edi,ebx
  00401B1B: 74 F8              je          00401B15
  00401B1D: 3B CB              cmp         ecx,ebx
  00401B1F: 74 F4              je          00401B15
  00401B21: 33 FF              xor         edi,edi
  00401B23: 47                 inc         edi
  00401B24: EB 27              jmp         00401B4D
  00401B26: 3B CB              cmp         ecx,ebx
  00401B28: 74 09              je          00401B33
  00401B2A: 8B C7              mov         eax,edi
  00401B2C: 99                 cdq
  00401B2D: F7 F9              idiv        eax,ecx
  00401B2F: 8B FA              mov         edi,edx
  00401B31: EB 1A              jmp         00401B4D
  00401B33: 33 FF              xor         edi,edi
  00401B35: C7 45 FC 01 00 00  mov         dword ptr [ebp-4],1
            00
  00401B3C: EB 0F              jmp         00401B4D
  00401B3E: D3 E7              shl         edi,cl
  00401B40: EB 0B              jmp         00401B4D
  00401B42: D3 FF              sar         edi,cl
  00401B44: EB 07              jmp         00401B4D
  00401B46: D3 EF              shr         edi,cl
  00401B48: EB 03              jmp         00401B4D
  00401B4A: 8B 7D 08           mov         edi,dword ptr [ebp+8]
  00401B4D: 57                 push        edi
  00401B4E: E9 1A FA FF FF     jmp         0040156D
  00401B53: 6A 01              push        1
  00401B55: E8 E7 10 00 00     call        00402C41
  00401B5A: 6A 02              push        2
  00401B5C: 8B F8              mov         edi,eax
  00401B5E: E8 BC 10 00 00     call        00402C1F
  00401B63: 50                 push        eax
  00401B64: 57                 push        edi
  00401B65: 56                 push        esi
  00401B66: 89 55 B4           mov         dword ptr [ebp-4Ch],edx
  00401B69: FF 15 90 82 40 00  call        dword ptr ds:[00408290h]
  00401B6F: 83 C4 10           add         esp,10h
  00401B72: E9 4E 0F 00 00     jmp         00402AC5
  00401B77: 8B 45 E0           mov         eax,dword ptr [ebp-20h]
  00401B7A: 8B 3D 30 CE 40 00  mov         edi,dword ptr ds:[0040CE30h]
  00401B80: 3B C3              cmp         eax,ebx
  00401B82: 74 44              je          00401BC8
  00401B84: 48                 dec         eax
  00401B85: 3B FB              cmp         edi,ebx
  00401B87: 0F 84 57 07 00 00  je          004022E4
  00401B8D: 8B 3F              mov         edi,dword ptr [edi]
  00401B8F: 3B C3              cmp         eax,ebx
  00401B91: 75 F1              jne         00401B84
  00401B93: 3B FB              cmp         edi,ebx
  00401B95: 0F 84 49 07 00 00  je          004022E4
  00401B9B: 83 C7 04           add         edi,4
  00401B9E: BE D0 A5 40 00     mov         esi,40A5D0h
  00401BA3: 57                 push        edi
  00401BA4: 56                 push        esi
  00401BA5: E8 10 47 00 00     call        004062BA
  00401BAA: A1 30 CE 40 00     mov         eax,dword ptr ds:[0040CE30h]
  00401BAF: 83 C0 04           add         eax,4
  00401BB2: 50                 push        eax
  00401BB3: 57                 push        edi
  00401BB4: E8 01 47 00 00     call        004062BA
  00401BB9: A1 30 CE 40 00     mov         eax,dword ptr ds:[0040CE30h]
  00401BBE: 56                 push        esi
  00401BBF: 83 C0 04           add         eax,4
  00401BC2: 50                 push        eax
  00401BC3: E9 19 0E 00 00     jmp         004029E1
  00401BC8: 39 5D DC           cmp         dword ptr [ebp-24h],ebx
  00401BCB: 74 25              je          00401BF2
  00401BCD: 3B FB              cmp         edi,ebx
  00401BCF: 0F 84 B6 0C 00 00  je          0040288B
  00401BD5: 8D 47 04           lea         eax,[edi+4]
  00401BD8: 50                 push        eax
  00401BD9: 56                 push        esi
  00401BDA: E8 DB 46 00 00     call        004062BA
  00401BDF: 8B 07              mov         eax,dword ptr [edi]
  00401BE1: 57                 push        edi
  00401BE2: A3 30 CE 40 00     mov         dword ptr ds:[0040CE30h],eax
  00401BE7: FF 15 28 81 40 00  call        dword ptr ds:[00408128h]
  00401BED: E9 D3 0E 00 00     jmp         00402AC5
  00401BF2: 68 04 08 00 00     push        804h
  00401BF7: 6A 40              push        40h
  00401BF9: FF 15 34 81 40 00  call        dword ptr ds:[00408134h]
  00401BFF: FF 75 D8           push        dword ptr [ebp-28h]
  00401C02: 8B F0              mov         esi,eax
  00401C04: 8D 46 04           lea         eax,[esi+4]
  00401C07: 50                 push        eax
  00401C08: E8 CF 46 00 00     call        004062DC
  00401C0D: A1 30 CE 40 00     mov         eax,dword ptr ds:[0040CE30h]
  00401C12: 89 06              mov         dword ptr [esi],eax
  00401C14: 89 35 30 CE 40 00  mov         dword ptr ds:[0040CE30h],esi
  00401C1A: E9 A6 0E 00 00     jmp         00402AC5
  00401C1F: 6A 03              push        3
  00401C21: E8 F9 0F 00 00     call        00402C1F
  00401C26: 6A 04              push        4
  00401C28: 89 55 B4           mov         dword ptr [ebp-4Ch],edx
  00401C2B: 89 45 F0           mov         dword ptr [ebp-10h],eax
  00401C2E: E8 EC 0F 00 00     call        00402C1F
  00401C33: F6 45 EC 01        test        byte ptr [ebp-14h],1
  00401C37: 59                 pop         ecx
  00401C38: 89 55 B4           mov         dword ptr [ebp-4Ch],edx
  00401C3B: 59                 pop         ecx
  00401C3C: 89 45 08           mov         dword ptr [ebp+8],eax
  00401C3F: 74 0A              je          00401C4B
  00401C41: 6A 33              push        33h
  00401C43: E8 F9 0F 00 00     call        00402C41
  00401C48: 89 45 F0           mov         dword ptr [ebp-10h],eax
  00401C4B: F6 45 EC 02        test        byte ptr [ebp-14h],2
  00401C4F: 74 0A              je          00401C5B
  00401C51: 6A 44              push        44h
  00401C53: E8 E9 0F 00 00     call        00402C41
  00401C58: 89 45 08           mov         dword ptr [ebp+8],eax
  00401C5B: 83 7D D4 21        cmp         dword ptr [ebp-2Ch],21h
  00401C5F: 6A 01              push        1
  00401C61: 75 4C              jne         00401CAF
  00401C63: E8 B7 0F 00 00     call        00402C1F
  00401C68: 6A 02              push        2
  00401C6A: 8B F8              mov         edi,eax
  00401C6C: 89 55 B4           mov         dword ptr [ebp-4Ch],edx
  00401C6F: E8 AB 0F 00 00     call        00402C1F
  00401C74: 59                 pop         ecx
  00401C75: 89 55 B4           mov         dword ptr [ebp-4Ch],edx
  00401C78: 59                 pop         ecx
  00401C79: 8B 4D EC           mov         ecx,dword ptr [ebp-14h]
  00401C7C: C1 F9 02           sar         ecx,2
  00401C7F: 74 1E              je          00401C9F
  00401C81: 8D 55 D0           lea         edx,[ebp-30h]
  00401C84: 52                 push        edx
  00401C85: 51                 push        ecx
  00401C86: 53                 push        ebx
  00401C87: FF 75 08           push        dword ptr [ebp+8]
  00401C8A: FF 75 F0           push        dword ptr [ebp-10h]
  00401C8D: 50                 push        eax
  00401C8E: 57                 push        edi
  00401C8F: FF 15 8C 82 40 00  call        dword ptr ds:[0040828Ch]
  00401C95: F7 D8              neg         eax
  00401C97: 1B C0              sbb         eax,eax
  00401C99: 40                 inc         eax
  00401C9A: 89 45 FC           mov         dword ptr [ebp-4],eax
  00401C9D: EB 43              jmp         00401CE2
  00401C9F: FF 75 08           push        dword ptr [ebp+8]
  00401CA2: FF 75 F0           push        dword ptr [ebp-10h]
  00401CA5: 50                 push        eax
  00401CA6: 57                 push        edi
  00401CA7: FF 15 18 82 40 00  call        dword ptr ds:[00408218h]
  00401CAD: EB 30              jmp         00401CDF
  00401CAF: E8 8D 0F 00 00     call        00402C41
  00401CB4: 6A 12              push        12h
  00401CB6: 8B F8              mov         edi,eax
  00401CB8: E8 84 0F 00 00     call        00402C41
  00401CBD: 66 8B 08           mov         cx,word ptr [eax]
  00401CC0: 66 F7 D9           neg         cx
  00401CC3: 1B C9              sbb         ecx,ecx
  00401CC5: 23 C8              and         ecx,eax
  00401CC7: 66 8B 07           mov         ax,word ptr [edi]
  00401CCA: 66 F7 D8           neg         ax
  00401CCD: 1B C0              sbb         eax,eax
  00401CCF: 51                 push        ecx
  00401CD0: 23 C7              and         eax,edi
  00401CD2: 50                 push        eax
  00401CD3: FF 75 08           push        dword ptr [ebp+8]
  00401CD6: FF 75 F0           push        dword ptr [ebp-10h]
  00401CD9: FF 15 74 82 40 00  call        dword ptr ds:[00408274h]
  00401CDF: 89 45 D0           mov         dword ptr [ebp-30h],eax
  00401CE2: 39 5D D8           cmp         dword ptr [ebp-28h],ebx
  00401CE5: 0F 8C DA 0D 00 00  jl          00402AC5
  00401CEB: FF 75 D0           push        dword ptr [ebp-30h]
  00401CEE: E9 7A F8 FF FF     jmp         0040156D
  00401CF3: 53                 push        ebx
  00401CF4: E8 26 0F 00 00     call        00402C1F
  00401CF9: 59                 pop         ecx
  00401CFA: 89 55 B4           mov         dword ptr [ebp-4Ch],edx
  00401CFD: 50                 push        eax
  00401CFE: FF 15 6C 82 40 00  call        dword ptr ds:[0040826Ch]
  00401D04: 85 C0              test        eax,eax
  00401D06: 0F 84 14 FD FF FF  je          00401A20
  00401D0C: 8B 45 DC           mov         eax,dword ptr [ebp-24h]
  00401D0F: E9 BC 0D 00 00     jmp         00402AD0
  00401D14: 6A 02              push        2
  00401D16: E8 04 0F 00 00     call        00402C1F
  00401D1B: 6A 01              push        1
  00401D1D: 8B F8              mov         edi,eax
  00401D1F: 89 55 B4           mov         dword ptr [ebp-4Ch],edx
  00401D22: E8 F8 0E 00 00     call        00402C1F
  00401D27: 59                 pop         ecx
  00401D28: 89 55 B4           mov         dword ptr [ebp-4Ch],edx
  00401D2B: 59                 pop         ecx
  00401D2C: 57                 push        edi
  00401D2D: 50                 push        eax
  00401D2E: FF 15 E4 81 40 00  call        dword ptr ds:[004081E4h]
  00401D34: E9 59 08 00 00     jmp         00402592
  00401D39: A1 48 4F 43 00     mov         eax,dword ptr ds:[00434F48h]
  00401D3E: 8B 4D DC           mov         ecx,dword ptr [ebp-24h]
  00401D41: 53                 push        ebx
  00401D42: 8D 34 08           lea         esi,[eax+ecx]
  00401D45: E8 D5 0E 00 00     call        00402C1F
  00401D4A: 59                 pop         ecx
  00401D4B: 89 55 B4           mov         dword ptr [ebp-4Ch],edx
  00401D4E: 56                 push        esi
  00401D4F: 6A EB              push        0FFFFFFEBh
  00401D51: 50                 push        eax
  00401D52: FF 15 70 82 40 00  call        dword ptr ds:[00408270h]
  00401D58: E9 68 0D 00 00     jmp         00402AC5
  00401D5D: FF 75 DC           push        dword ptr [ebp-24h]
  00401D60: FF 75 F8           push        dword ptr [ebp-8]
  00401D63: FF 15 E4 81 40 00  call        dword ptr ds:[004081E4h]
  00401D69: 8B F0              mov         esi,eax
  00401D6B: 8D 45 A8           lea         eax,[ebp-58h]
  00401D6E: 50                 push        eax
  00401D6F: 56                 push        esi
  00401D70: FF 15 24 82 40 00  call        dword ptr ds:[00408224h]
  00401D76: 8B 45 B4           mov         eax,dword ptr [ebp-4Ch]
  00401D79: 6A 10              push        10h
  00401D7B: 0F AF 45 E0        imul        eax,dword ptr [ebp-20h]
  00401D7F: 50                 push        eax
  00401D80: 8B 45 B0           mov         eax,dword ptr [ebp-50h]
  00401D83: 0F AF 45 E0        imul        eax,dword ptr [ebp-20h]
  00401D87: 50                 push        eax
  00401D88: 53                 push        ebx
  00401D89: 53                 push        ebx
  00401D8A: E8 B2 0E 00 00     call        00402C41
  00401D8F: 50                 push        eax
  00401D90: 53                 push        ebx
  00401D91: FF 15 60 82 40 00  call        dword ptr ds:[00408260h]
  00401D97: 50                 push        eax
  00401D98: 53                 push        ebx
  00401D99: 68 72 01 00 00     push        172h
  00401D9E: 56                 push        esi
  00401D9F: FF 15 18 82 40 00  call        dword ptr ds:[00408218h]
  00401DA5: 3B C3              cmp         eax,ebx
  00401DA7: 0F 84 18 0D 00 00  je          00402AC5
  00401DAD: 50                 push        eax
  00401DAE: FF 15 5C 80 40 00  call        dword ptr ds:[0040805Ch]
  00401DB4: E9 0C 0D 00 00     jmp         00402AC5
  00401DB9: FF 75 F8           push        dword ptr [ebp-8]
  00401DBC: FF 15 54 82 40 00  call        dword ptr ds:[00408254h]
  00401DC2: 6A 02              push        2
  00401DC4: 8B F8              mov         edi,eax
  00401DC6: E8 54 0E 00 00     call        00402C1F
  00401DCB: 59                 pop         ecx
  00401DCC: 8B D8              mov         ebx,eax
  00401DCE: 6A 48              push        48h
  00401DD0: 6A 5A              push        5Ah
  00401DD2: 57                 push        edi
  00401DD3: 89 55 B4           mov         dword ptr [ebp-4Ch],edx
  00401DD6: FF 15 60 80 40 00  call        dword ptr ds:[00408060h]
  00401DDC: 50                 push        eax
  00401DDD: 53                 push        ebx
  00401DDE: FF 15 54 81 40 00  call        dword ptr ds:[00408154h]
  00401DE4: 57                 push        edi
  00401DE5: FF 75 F8           push        dword ptr [ebp-8]
  00401DE8: F7 D8              neg         eax
  00401DEA: A3 D0 CD 40 00     mov         dword ptr ds:[0040CDD0h],eax
  00401DEF: FF 15 0C 82 40 00  call        dword ptr ds:[0040820Ch]
  00401DF5: 6A 03              push        3
  00401DF7: E8 23 0E 00 00     call        00402C1F
  00401DFC: A3 E0 CD 40 00     mov         dword ptr ds:[0040CDE0h],eax
  00401E01: 8A 45 E8           mov         al,byte ptr [ebp-18h]
  00401E04: 59                 pop         ecx
  00401E05: 89 55 B4           mov         dword ptr [ebp-4Ch],edx
  00401E08: FF 75 DC           push        dword ptr [ebp-24h]
  00401E0B: 8A C8              mov         cl,al
  00401E0D: 80 E1 01           and         cl,1
  00401E10: C6 05 E7 CD 40 00  mov         byte ptr ds:[0040CDE7h],1
            01
  00401E17: 88 0D E4 CD 40 00  mov         byte ptr ds:[0040CDE4h],cl
  00401E1D: 8A C8              mov         cl,al
  00401E1F: 80 E1 02           and         cl,2
  00401E22: 24 04              and         al,4
  00401E24: 68 EC CD 40 00     push        40CDECh
  00401E29: 88 0D E5 CD 40 00  mov         byte ptr ds:[0040CDE5h],cl
  00401E2F: A2 E6 CD 40 00     mov         byte ptr ds:[0040CDE6h],al
  00401E34: E8 A3 44 00 00     call        004062DC
  00401E39: 68 D0 CD 40 00     push        40CDD0h
  00401E3E: FF 15 54 80 40 00  call        dword ptr ds:[00408054h]
  00401E44: E9 49 07 00 00     jmp         00402592
  00401E49: 53                 push        ebx
  00401E4A: E8 D0 0D 00 00     call        00402C1F
  00401E4F: 6A 01              push        1
  00401E51: 8B F0              mov         esi,eax
  00401E53: 89 55 B4           mov         dword ptr [ebp-4Ch],edx
  00401E56: E8 C4 0D 00 00     call        00402C1F
  00401E5B: 39 5D E4           cmp         dword ptr [ebp-1Ch],ebx
  00401E5E: 59                 pop         ecx
  00401E5F: 59                 pop         ecx
  00401E60: 89 55 B4           mov         dword ptr [ebp-4Ch],edx
  00401E63: 50                 push        eax
  00401E64: 56                 push        esi
  00401E65: 75 0B              jne         00401E72
  00401E67: FF 15 68 82 40 00  call        dword ptr ds:[00408268h]
  00401E6D: E9 53 0C 00 00     jmp         00402AC5
  00401E72: FF 15 10 82 40 00  call        dword ptr ds:[00408210h]
  00401E78: E9 48 0C 00 00     jmp         00402AC5
  00401E7D: 53                 push        ebx
  00401E7E: E8 BE 0D 00 00     call        00402C41
  00401E83: 6A 31              push        31h
  00401E85: 8B F0              mov         esi,eax
  00401E87: E8 B5 0D 00 00     call        00402C41
  00401E8C: 6A 22              push        22h
  00401E8E: 8B D8              mov         ebx,eax
  00401E90: E8 AC 0D 00 00     call        00402C41
  00401E95: 6A 15              push        15h
  00401E97: 8B F8              mov         edi,eax
  00401E99: E8 A3 0D 00 00     call        00402C41
  00401E9E: 6A EC              push        0FFFFFFECh
  00401EA0: E8 7E F5 FF FF     call        00401423
  00401EA5: 8B 45 E8           mov         eax,dword ptr [ebp-18h]
  00401EA8: 89 45 80           mov         dword ptr [ebp-80h],eax
  00401EAB: 8B 45 F8           mov         eax,dword ptr [ebp-8]
  00401EAE: 89 45 84           mov         dword ptr [ebp-7Ch],eax
  00401EB1: 8B 45 E4           mov         eax,dword ptr [ebp-1Ch]
  00401EB4: 89 45 98           mov         dword ptr [ebp-68h],eax
  00401EB7: 66 8B 06           mov         ax,word ptr [esi]
  00401EBA: 66 F7 D8           neg         ax
  00401EBD: 1B C0              sbb         eax,eax
  00401EBF: 89 5D 8C           mov         dword ptr [ebp-74h],ebx
  00401EC2: 23 C6              and         eax,esi
  00401EC4: 89 45 88           mov         dword ptr [ebp-78h],eax
  00401EC7: 66 8B 07           mov         ax,word ptr [edi]
  00401ECA: 66 F7 D8           neg         ax
  00401ECD: 1B C0              sbb         eax,eax
  00401ECF: C7 45 94 00 00 44  mov         dword ptr [ebp-6Ch],440000h
            00
  00401ED6: 23 C7              and         eax,edi
  00401ED8: 89 45 90           mov         dword ptr [ebp-70h],eax
  00401EDB: 8D 85 7C FF FF FF  lea         eax,[ebp+FFFFFF7Ch]
  00401EE1: 50                 push        eax
  00401EE2: E8 FF 39 00 00     call        004058E6
  00401EE7: 85 C0              test        eax,eax
  00401EE9: 0F 84 9C 09 00 00  je          0040288B
  00401EEF: F6 45 80 40        test        byte ptr [ebp-80h],40h
  00401EF3: 0F 84 CC 0B 00 00  je          00402AC5
  00401EF9: FF 75 B4           push        dword ptr [ebp-4Ch]
  00401EFC: E8 44 48 00 00     call        00406745
  00401F01: FF 75 B4           push        dword ptr [ebp-4Ch]
  00401F04: EB 47              jmp         00401F4D
  00401F06: 53                 push        ebx
  00401F07: E8 35 0D 00 00     call        00402C41
  00401F0C: 8B F0              mov         esi,eax
  00401F0E: 56                 push        esi
  00401F0F: 6A EB              push        0FFFFFFEBh
  00401F11: E8 0C 34 00 00     call        00405322
  00401F16: 56                 push        esi
  00401F17: E8 87 39 00 00     call        004058A3
  00401F1C: 8B F0              mov         esi,eax
  00401F1E: 3B F3              cmp         esi,ebx
  00401F20: 0F 84 65 09 00 00  je          0040288B
  00401F26: 39 5D E0           cmp         dword ptr [ebp-20h],ebx
  00401F29: 74 21              je          00401F4C
  00401F2B: 56                 push        esi
  00401F2C: E8 14 48 00 00     call        00406745
  00401F31: 39 5D DC           cmp         dword ptr [ebp-24h],ebx
  00401F34: 7C 0B              jl          00401F41
  00401F36: 50                 push        eax
  00401F37: FF 75 F4           push        dword ptr [ebp-0Ch]
  00401F3A: E8 C2 42 00 00     call        00406201
  00401F3F: EB 0B              jmp         00401F4C
  00401F41: 3B C3              cmp         eax,ebx
  00401F43: 74 07              je          00401F4C
  00401F45: C7 45 FC 01 00 00  mov         dword ptr [ebp-4],1
            00
  00401F4C: 56                 push        esi
  00401F4D: FF 15 20 81 40 00  call        dword ptr ds:[00408120h]
  00401F53: E9 6D 0B 00 00     jmp         00402AC5
  00401F58: 6A 02              push        2
  00401F5A: E8 E2 0C 00 00     call        00402C41
  00401F5F: 50                 push        eax
  00401F60: E8 98 46 00 00     call        004065FD
  00401F65: 8B F8              mov         edi,eax
  00401F67: 3B FB              cmp         edi,ebx
  00401F69: 74 13              je          00401F7E
  00401F6B: FF 77 14           push        dword ptr [edi+14h]
  00401F6E: FF 75 F4           push        dword ptr [ebp-0Ch]
  00401F71: E8 8B 42 00 00     call        00406201
  00401F76: FF 77 18           push        dword ptr [edi+18h]
  00401F79: E9 EF F5 FF FF     jmp         0040156D
  00401F7E: 8B 45 F4           mov         eax,dword ptr [ebp-0Ch]
  00401F81: 66 89 1E           mov         word ptr [esi],bx
  00401F84: 66 89 18           mov         word ptr [eax],bx
  00401F87: E9 FF 08 00 00     jmp         0040288B
  00401F8C: 6A EE              push        0FFFFFFEEh
  00401F8E: E8 AE 0C 00 00     call        00402C41
  00401F93: 8D 4D B4           lea         ecx,[ebp-4Ch]
  00401F96: 89 45 D0           mov         dword ptr [ebp-30h],eax
  00401F99: 51                 push        ecx
  00401F9A: 50                 push        eax
  00401F9B: 6A 09              push        9
  00401F9D: E8 F2 46 00 00     call        00406694
  00401FA2: FF D0              call        eax
  00401FA4: 8B F8              mov         edi,eax
  00401FA6: 8B 45 F4           mov         eax,dword ptr [ebp-0Ch]
  00401FA9: 66 89 1E           mov         word ptr [esi],bx
  00401FAC: 3B FB              cmp         edi,ebx
  00401FAE: 66 89 18           mov         word ptr [eax],bx
  00401FB1: C7 45 FC 01 00 00  mov         dword ptr [ebp-4],1
            00
  00401FB8: 0F 84 07 0B 00 00  je          00402AC5
  00401FBE: 57                 push        edi
  00401FBF: 6A 40              push        40h
  00401FC1: FF 15 34 81 40 00  call        dword ptr ds:[00408134h]
  00401FC7: 3B C3              cmp         eax,ebx
  00401FC9: 89 45 08           mov         dword ptr [ebp+8],eax
  00401FCC: 0F 84 F3 0A 00 00  je          00402AC5
  00401FD2: 6A 0A              push        0Ah
  00401FD4: E8 BB 46 00 00     call        00406694
  00401FD9: 6A 0B              push        0Bh
  00401FDB: 89 45 C8           mov         dword ptr [ebp-38h],eax
  00401FDE: E8 B1 46 00 00     call        00406694
  00401FE3: FF 75 08           push        dword ptr [ebp+8]
  00401FE6: 89 45 F0           mov         dword ptr [ebp-10h],eax
  00401FE9: 57                 push        edi
  00401FEA: 53                 push        ebx
  00401FEB: FF 75 D0           push        dword ptr [ebp-30h]
  00401FEE: FF 55 C8           call        dword ptr [ebp-38h]
  00401FF1: 85 C0              test        eax,eax
  00401FF3: 74 34              je          00402029
  00401FF5: 8D 45 B8           lea         eax,[ebp-48h]
  00401FF8: 50                 push        eax
  00401FF9: 8D 45 C4           lea         eax,[ebp-3Ch]
  00401FFC: 50                 push        eax
  00401FFD: 68 14 A0 40 00     push        40A014h
  00402002: FF 75 08           push        dword ptr [ebp+8]
  00402005: FF 55 F0           call        dword ptr [ebp-10h]
  00402008: 85 C0              test        eax,eax
  0040200A: 74 1D              je          00402029
  0040200C: 8B 45 C4           mov         eax,dword ptr [ebp-3Ch]
  0040200F: FF 70 08           push        dword ptr [eax+8]
  00402012: 56                 push        esi
  00402013: E8 E9 41 00 00     call        00406201
  00402018: 8B 45 C4           mov         eax,dword ptr [ebp-3Ch]
  0040201B: FF 70 0C           push        dword ptr [eax+0Ch]
  0040201E: FF 75 F4           push        dword ptr [ebp-0Ch]
  00402021: E8 DB 41 00 00     call        00406201
  00402026: 89 5D FC           mov         dword ptr [ebp-4],ebx
  00402029: FF 75 08           push        dword ptr [ebp+8]
  0040202C: E9 B6 FB FF FF     jmp         00401BE7
  00402031: 39 1D B8 4F 43 00  cmp         dword ptr ds:[00434FB8h],ebx
  00402037: C7 45 FC 01 00 00  mov         dword ptr [ebp-4],1
            00
  0040203E: 0F 8C B9 00 00 00  jl          004020FD
  00402044: 6A F0              push        0FFFFFFF0h
  00402046: E8 F6 0B 00 00     call        00402C41
  0040204B: 6A 01              push        1
  0040204D: 8B F0              mov         esi,eax
  0040204F: E8 ED 0B 00 00     call        00402C41
  00402054: 39 5D E8           cmp         dword ptr [ebp-18h],ebx
  00402057: 89 45 C4           mov         dword ptr [ebp-3Ch],eax
  0040205A: 74 0E              je          0040206A
  0040205C: 56                 push        esi
  0040205D: FF 15 70 81 40 00  call        dword ptr ds:[00408170h]
  00402063: 3B C3              cmp         eax,ebx
  00402065: 89 45 08           mov         dword ptr [ebp+8],eax
  00402068: 75 11              jne         0040207B
  0040206A: 6A 08              push        8
  0040206C: 53                 push        ebx
  0040206D: 56                 push        esi
  0040206E: FF 15 6C 81 40 00  call        dword ptr ds:[0040816Ch]
  00402074: 3B C3              cmp         eax,ebx
  00402076: 89 45 08           mov         dword ptr [ebp+8],eax
  00402079: 74 7B              je          004020F6
  0040207B: FF 75 C4           push        dword ptr [ebp-3Ch]
  0040207E: FF 75 08           push        dword ptr [ebp+8]
  00402081: E8 7D 46 00 00     call        00406703
  00402086: 8B F0              mov         esi,eax
  00402088: 3B F3              cmp         esi,ebx
  0040208A: 74 39              je          004020C5
  0040208C: 39 5D E0           cmp         dword ptr [ebp-20h],ebx
  0040208F: 89 5D FC           mov         dword ptr [ebp-4],ebx
  00402092: 74 17              je          004020AB
  00402094: FF 75 E0           push        dword ptr [ebp-20h]
  00402097: E8 87 F3 FF FF     call        00401423
  0040209C: FF D6              call        esi
  0040209E: 85 C0              test        eax,eax
  004020A0: 74 2D              je          004020CF
  004020A2: C7 45 FC 01 00 00  mov         dword ptr [ebp-4],1
            00
  004020A9: EB 24              jmp         004020CF
  004020AB: 68 00 A0 40 00     push        40A000h
  004020B0: 68 30 CE 40 00     push        40CE30h
  004020B5: 57                 push        edi
  004020B6: 68 00 04 00 00     push        400h
  004020BB: FF 75 F8           push        dword ptr [ebp-8]
  004020BE: FF D6              call        esi
  004020C0: 83 C4 14           add         esp,14h
  004020C3: EB 0A              jmp         004020CF
  004020C5: FF 75 C4           push        dword ptr [ebp-3Ch]
  004020C8: 6A F7              push        0FFFFFFF7h
  004020CA: E8 53 32 00 00     call        00405322
  004020CF: 39 5D E4           cmp         dword ptr [ebp-1Ch],ebx
  004020D2: 0F 85 ED 09 00 00  jne         00402AC5
  004020D8: FF 75 08           push        dword ptr [ebp+8]
  004020DB: E8 6A 18 00 00     call        0040394A
  004020E0: 85 C0              test        eax,eax
  004020E2: 0F 84 DD 09 00 00  je          00402AC5
  004020E8: FF 75 08           push        dword ptr [ebp+8]
  004020EB: FF 15 68 81 40 00  call        dword ptr ds:[00408168h]
  004020F1: E9 CF 09 00 00     jmp         00402AC5
  004020F6: 6A F6              push        0FFFFFFF6h
  004020F8: E9 4E 01 00 00     jmp         0040224B
  004020FD: 6A E7              push        0FFFFFFE7h
  004020FF: E9 47 01 00 00     jmp         0040224B
  00402104: 6A F0              push        0FFFFFFF0h
  00402106: E8 36 0B 00 00     call        00402C41
  0040210B: 6A DF              push        0FFFFFFDFh
  0040210D: 89 45 B4           mov         dword ptr [ebp-4Ch],eax
  00402110: E8 2C 0B 00 00     call        00402C41
  00402115: 6A 02              push        2
  00402117: 89 45 C4           mov         dword ptr [ebp-3Ch],eax
  0040211A: E8 22 0B 00 00     call        00402C41
  0040211F: 6A CD              push        0FFFFFFCDh
  00402121: 89 45 F8           mov         dword ptr [ebp-8],eax
  00402124: E8 18 0B 00 00     call        00402C41
  00402129: 6A 45              push        45h
  0040212B: 89 45 B8           mov         dword ptr [ebp-48h],eax
  0040212E: E8 0E 0B 00 00     call        00402C41
  00402133: FF 75 C4           push        dword ptr [ebp-3Ch]
  00402136: 89 45 F4           mov         dword ptr [ebp-0Ch],eax
  00402139: 8B 45 E8           mov         eax,dword ptr [ebp-18h]
  0040213C: 8B C8              mov         ecx,eax
  0040213E: 8B F8              mov         edi,eax
  00402140: 8B F0              mov         esi,eax
  00402142: 81 E1 FF 0F 00 00  and         ecx,0FFFh
  00402148: C1 F8 10           sar         eax,10h
  0040214B: C1 FE 0C           sar         esi,0Ch
  0040214E: 25 FF FF 00 00     and         eax,0FFFFh
  00402153: 89 4D BC           mov         dword ptr [ebp-44h],ecx
  00402156: 81 E7 00 80 00 00  and         edi,8000h
  0040215C: 83 E6 07           and         esi,7
  0040215F: 89 45 C8           mov         dword ptr [ebp-38h],eax
  00402162: E8 9F 3A 00 00     call        00405C06
  00402167: 85 C0              test        eax,eax
  00402169: 75 07              jne         00402172
  0040216B: 6A 21              push        21h
  0040216D: E8 CF 0A 00 00     call        00402C41
  00402172: 8D 45 08           lea         eax,[ebp+8]
  00402175: 50                 push        eax
  00402176: 68 E0 85 40 00     push        4085E0h
  0040217B: 6A 01              push        1
  0040217D: 53                 push        ebx
  0040217E: 68 F0 85 40 00     push        4085F0h
  00402183: FF 15 A8 82 40 00  call        dword ptr ds:[004082A8h]
  00402189: 3B C3              cmp         eax,ebx
  0040218B: 0F 8C B1 00 00 00  jl          00402242
  00402191: 8B 45 08           mov         eax,dword ptr [ebp+8]
  00402194: 8D 55 D0           lea         edx,[ebp-30h]
  00402197: 52                 push        edx
  00402198: 68 00 86 40 00     push        408600h
  0040219D: 8B 08              mov         ecx,dword ptr [eax]
  0040219F: 50                 push        eax
  004021A0: FF 11              call        dword ptr [ecx]
  004021A2: 3B C3              cmp         eax,ebx
  004021A4: 89 45 F0           mov         dword ptr [ebp-10h],eax
  004021A7: 0F 8C 87 00 00 00  jl          00402234
  004021AD: 8B 45 08           mov         eax,dword ptr [ebp+8]
  004021B0: FF 75 C4           push        dword ptr [ebp-3Ch]
  004021B3: 8B 08              mov         ecx,dword ptr [eax]
  004021B5: 50                 push        eax
  004021B6: FF 51 50           call        dword ptr [ecx+50h]
  004021B9: 3B FB              cmp         edi,ebx
  004021BB: 89 45 F0           mov         dword ptr [ebp-10h],eax
  004021BE: 75 0E              jne         004021CE
  004021C0: 8B 45 08           mov         eax,dword ptr [ebp+8]
  004021C3: 68 00 00 44 00     push        440000h
  004021C8: 50                 push        eax
  004021C9: 8B 08              mov         ecx,dword ptr [eax]
  004021CB: FF 51 24           call        dword ptr [ecx+24h]
  004021CE: 3B F3              cmp         esi,ebx
  004021D0: 74 0A              je          004021DC
  004021D2: 8B 45 08           mov         eax,dword ptr [ebp+8]
  004021D5: 56                 push        esi
  004021D6: 50                 push        eax
  004021D7: 8B 08              mov         ecx,dword ptr [eax]
  004021D9: FF 51 3C           call        dword ptr [ecx+3Ch]
  004021DC: 8B 45 08           mov         eax,dword ptr [ebp+8]
  004021DF: FF 75 C8           push        dword ptr [ebp-38h]
  004021E2: 8B 08              mov         ecx,dword ptr [eax]
  004021E4: 50                 push        eax
  004021E5: FF 51 34           call        dword ptr [ecx+34h]
  004021E8: 8B 4D B8           mov         ecx,dword ptr [ebp-48h]
  004021EB: 66 39 19           cmp         word ptr [ecx],bx
  004021EE: 74 0D              je          004021FD
  004021F0: 8B 45 08           mov         eax,dword ptr [ebp+8]
  004021F3: FF 75 BC           push        dword ptr [ebp-44h]
  004021F6: 8B 10              mov         edx,dword ptr [eax]
  004021F8: 51                 push        ecx
  004021F9: 50                 push        eax
  004021FA: FF 52 44           call        dword ptr [edx+44h]
  004021FD: 8B 45 08           mov         eax,dword ptr [ebp+8]
  00402200: FF 75 F8           push        dword ptr [ebp-8]
  00402203: 8B 08              mov         ecx,dword ptr [eax]
  00402205: 50                 push        eax
  00402206: FF 51 2C           call        dword ptr [ecx+2Ch]
  00402209: 8B 45 08           mov         eax,dword ptr [ebp+8]
  0040220C: FF 75 F4           push        dword ptr [ebp-0Ch]
  0040220F: 8B 08              mov         ecx,dword ptr [eax]
  00402211: 50                 push        eax
  00402212: FF 51 1C           call        dword ptr [ecx+1Ch]
  00402215: 39 5D F0           cmp         dword ptr [ebp-10h],ebx
  00402218: 7C 11              jl          0040222B
  0040221A: 8B 45 D0           mov         eax,dword ptr [ebp-30h]
  0040221D: 6A 01              push        1
  0040221F: FF 75 B4           push        dword ptr [ebp-4Ch]
  00402222: 8B 08              mov         ecx,dword ptr [eax]
  00402224: 50                 push        eax
  00402225: FF 51 18           call        dword ptr [ecx+18h]
  00402228: 89 45 F0           mov         dword ptr [ebp-10h],eax
  0040222B: 8B 45 D0           mov         eax,dword ptr [ebp-30h]
  0040222E: 50                 push        eax
  0040222F: 8B 08              mov         ecx,dword ptr [eax]
  00402231: FF 51 08           call        dword ptr [ecx+8]
  00402234: 8B 45 08           mov         eax,dword ptr [ebp+8]
  00402237: 50                 push        eax
  00402238: 8B 08              mov         ecx,dword ptr [eax]
  0040223A: FF 51 08           call        dword ptr [ecx+8]
  0040223D: 39 5D F0           cmp         dword ptr [ebp-10h],ebx
  00402240: 7D 13              jge         00402255
  00402242: C7 45 FC 01 00 00  mov         dword ptr [ebp-4],1
            00
  00402249: 6A F0              push        0FFFFFFF0h
  0040224B: E8 D3 F1 FF FF     call        00401423
  00402250: E9 70 08 00 00     jmp         00402AC5
  00402255: 6A F4              push        0FFFFFFF4h
  00402257: EB F2              jmp         0040224B
  00402259: 53                 push        ebx
  0040225A: E8 E2 09 00 00     call        00402C41
  0040225F: 6A 11              push        11h
  00402261: 8B F0              mov         esi,eax
  00402263: E8 D9 09 00 00     call        00402C41
  00402268: 6A 23              push        23h
  0040226A: 8B F8              mov         edi,eax
  0040226C: E8 D0 09 00 00     call        00402C41
  00402271: 56                 push        esi
  00402272: 89 45 08           mov         dword ptr [ebp+8],eax
  00402275: E8 83 43 00 00     call        004065FD
  0040227A: 85 C0              test        eax,eax
  0040227C: 75 0D              jne         0040228B
  0040227E: 53                 push        ebx
  0040227F: 6A F9              push        0FFFFFFF9h
  00402281: E8 9C 30 00 00     call        00405322
  00402286: E9 00 06 00 00     jmp         0040288B
  0040228B: 8B 45 F8           mov         eax,dword ptr [ebp-8]
  0040228E: 56                 push        esi
  0040228F: 89 45 98           mov         dword ptr [ebp-68h],eax
  00402292: C7 45 9C 02 00 00  mov         dword ptr [ebp-64h],2
            00
  00402299: E8 32 40 00 00     call        004062D0
  0040229E: 57                 push        edi
  0040229F: 66 89 5C 46 02     mov         word ptr [esi+eax*2+2],bx
  004022A4: E8 27 40 00 00     call        004062D0
  004022A9: 66 89 5C 47 02     mov         word ptr [edi+eax*2+2],bx
  004022AE: 8B 45 08           mov         eax,dword ptr [ebp+8]
  004022B1: 66 8B 4D E0        mov         cx,word ptr [ebp-20h]
  004022B5: 50                 push        eax
  004022B6: 53                 push        ebx
  004022B7: 89 75 A0           mov         dword ptr [ebp-60h],esi
  004022BA: 89 7D A4           mov         dword ptr [ebp-5Ch],edi
  004022BD: 89 45 B2           mov         dword ptr [ebp-4Eh],eax
  004022C0: 66 89 4D A8        mov         word ptr [ebp-58h],cx
  004022C4: E8 59 30 00 00     call        00405322
  004022C9: 8D 45 98           lea         eax,[ebp-68h]
  004022CC: 50                 push        eax
  004022CD: FF 15 8C 81 40 00  call        dword ptr ds:[0040818Ch]
  004022D3: 85 C0              test        eax,eax
  004022D5: 0F 84 EA 07 00 00  je          00402AC5
  004022DB: EB A1              jmp         0040227E
  004022DD: 3D 0D F0 AD 0B     cmp         eax,0BADF00Dh
  004022E2: 74 1D              je          00402301
  004022E4: 68 10 00 20 00     push        200010h
  004022E9: 6A E8              push        0FFFFFFE8h
  004022EB: 53                 push        ebx
  004022EC: E8 EB 3F 00 00     call        004062DC
  004022F1: 50                 push        eax
  004022F2: E8 29 36 00 00     call        00405920
  004022F7: B8 FF FF FF 7F     mov         eax,7FFFFFFFh
  004022FC: E9 CF 07 00 00     jmp         00402AD0
  00402301: FF 05 94 4F 43 00  inc         dword ptr ds:[00434F94h]
  00402307: E9 B9 07 00 00     jmp         00402AC5
  0040230C: 33 F6              xor         esi,esi
  0040230E: 33 FF              xor         edi,edi
  00402310: 3B C3              cmp         eax,ebx
  00402312: 74 08              je          0040231C
  00402314: 53                 push        ebx
  00402315: E8 27 09 00 00     call        00402C41
  0040231A: 8B F0              mov         esi,eax
  0040231C: 39 5D DC           cmp         dword ptr [ebp-24h],ebx
  0040231F: 74 09              je          0040232A
  00402321: 6A 11              push        11h
  00402323: E8 19 09 00 00     call        00402C41
  00402328: 8B F8              mov         edi,eax
  0040232A: 39 5D E8           cmp         dword ptr [ebp-18h],ebx
  0040232D: 74 09              je          00402338
  0040232F: 6A 22              push        22h
  00402331: E8 0B 09 00 00     call        00402C41
  00402336: 8B D8              mov         ebx,eax
  00402338: 6A CD              push        0FFFFFFCDh
  0040233A: E8 02 09 00 00     call        00402C41
  0040233F: 50                 push        eax
  00402340: 53                 push        ebx
  00402341: 57                 push        edi
  00402342: 56                 push        esi
  00402343: FF 15 64 81 40 00  call        dword ptr ds:[00408164h]
  00402349: E9 66 F2 FF FF     jmp         004015B4
  0040234E: A1 10 A0 40 00     mov         eax,dword ptr ds:[0040A010h]
  00402353: 6A 01              push        1
  00402355: 89 45 08           mov         dword ptr [ebp+8],eax
  00402358: E8 E4 08 00 00     call        00402C41
  0040235D: 6A 12              push        12h
  0040235F: 8B F8              mov         edi,eax
  00402361: E8 DB 08 00 00     call        00402C41
  00402366: 6A DD              push        0FFFFFFDDh
  00402368: 89 45 B4           mov         dword ptr [ebp-4Ch],eax
  0040236B: E8 D1 08 00 00     call        00402C41
  00402370: 50                 push        eax
  00402371: 68 FF 03 00 00     push        3FFh
  00402376: 8D 45 08           lea         eax,[ebp+8]
  00402379: 56                 push        esi
  0040237A: 50                 push        eax
  0040237B: FF 75 B4           push        dword ptr [ebp-4Ch]
  0040237E: 57                 push        edi
  0040237F: FF 15 60 81 40 00  call        dword ptr ds:[00408160h]
  00402385: 66 83 3E 0A        cmp         word ptr [esi],0Ah
  00402389: E9 C3 F3 FF FF     jmp         00401751
  0040238E: 39 5D E8           cmp         dword ptr [ebp-18h],ebx
  00402391: 8B 75 DC           mov         esi,dword ptr [ebp-24h]
  00402394: 75 2B              jne         004023C1
  00402396: 6A 02              push        2
  00402398: E8 E4 08 00 00     call        00402C81
  0040239D: 8B F0              mov         esi,eax
  0040239F: 3B F3              cmp         esi,ebx
  004023A1: 0F 84 E4 04 00 00  je          0040288B
  004023A7: 6A 33              push        33h
  004023A9: E8 93 08 00 00     call        00402C41
  004023AE: 50                 push        eax
  004023AF: 56                 push        esi
  004023B0: FF 15 20 80 40 00  call        dword ptr ds:[00408020h]
  004023B6: 56                 push        esi
  004023B7: 8B F8              mov         edi,eax
  004023B9: FF 15 24 80 40 00  call        dword ptr ds:[00408024h]
  004023BF: EB 16              jmp         004023D7
  004023C1: 6A 22              push        22h
  004023C3: E8 79 08 00 00     call        00402C41
  004023C8: 8B 4D E8           mov         ecx,dword ptr [ebp-18h]
  004023CB: D1 F9              sar         ecx,1
  004023CD: 51                 push        ecx
  004023CE: 50                 push        eax
  004023CF: 56                 push        esi
  004023D0: E8 2A 09 00 00     call        00402CFF
  004023D5: 8B F8              mov         edi,eax
  004023D7: 3B FB              cmp         edi,ebx
  004023D9: 0F 84 E6 06 00 00  je          00402AC5
  004023DF: E9 A7 04 00 00     jmp         0040288B
  004023E4: 8B 75 E8           mov         esi,dword ptr [ebp-18h]
  004023E7: 8B F8              mov         edi,eax
  004023E9: 8B 45 EC           mov         eax,dword ptr [ebp-14h]
  004023EC: 6A 02              push        2
  004023EE: 89 45 B4           mov         dword ptr [ebp-4Ch],eax
  004023F1: E8 4B 08 00 00     call        00402C41
  004023F6: 6A 11              push        11h
  004023F8: 89 45 C4           mov         dword ptr [ebp-3Ch],eax
  004023FB: E8 41 08 00 00     call        00402C41
  00402400: 6A 02              push        2
  00402402: 50                 push        eax
  00402403: 57                 push        edi
  00402404: C7 45 FC 01 00 00  mov         dword ptr [ebp-4],1
            00
  0040240B: E8 C1 08 00 00     call        00402CD1
  00402410: 3B C3              cmp         eax,ebx
  00402412: 89 45 08           mov         dword ptr [ebp+8],eax
  00402415: 0F 84 AA 06 00 00  je          00402AC5
  0040241B: 33 C0              xor         eax,eax
  0040241D: 83 FE 01           cmp         esi,1
  00402420: BF D0 B5 40 00     mov         edi,40B5D0h
  00402425: 75 11              jne         00402438
  00402427: 6A 23              push        23h
  00402429: E8 13 08 00 00     call        00402C41
  0040242E: 57                 push        edi
  0040242F: E8 9C 3E 00 00     call        004062D0
  00402434: 8D 44 00 02        lea         eax,[eax+eax+2]
  00402438: 83 FE 04           cmp         esi,4
  0040243B: 75 12              jne         0040244F
  0040243D: 6A 03              push        3
  0040243F: E8 DB 07 00 00     call        00402C1F
  00402444: 59                 pop         ecx
  00402445: A3 D0 B5 40 00     mov         dword ptr ds:[0040B5D0h],eax
  0040244A: 56                 push        esi
  0040244B: 89 55 D0           mov         dword ptr [ebp-30h],edx
  0040244E: 58                 pop         eax
  0040244F: 83 FE 03           cmp         esi,3
  00402452: 75 0F              jne         00402463
  00402454: 68 00 18 00 00     push        1800h
  00402459: 57                 push        edi
  0040245A: 53                 push        ebx
  0040245B: FF 75 E4           push        dword ptr [ebp-1Ch]
  0040245E: E8 B3 0C 00 00     call        00403116
  00402463: 50                 push        eax
  00402464: 57                 push        edi
  00402465: FF 75 B4           push        dword ptr [ebp-4Ch]
  00402468: 53                 push        ebx
  00402469: FF 75 C4           push        dword ptr [ebp-3Ch]
  0040246C: FF 75 08           push        dword ptr [ebp+8]
  0040246F: FF 15 28 80 40 00  call        dword ptr ds:[00408028h]
  00402475: 85 C0              test        eax,eax
  00402477: 75 03              jne         0040247C
  00402479: 89 5D FC           mov         dword ptr [ebp-4],ebx
  0040247C: FF 75 08           push        dword ptr [ebp+8]
  0040247F: E9 D3 00 00 00     jmp         00402557
  00402484: 68 19 00 02 00     push        20019h
  00402489: E8 F3 07 00 00     call        00402C81
  0040248E: 6A 33              push        33h
  00402490: 8B F8              mov         edi,eax
  00402492: E8 AA 07 00 00     call        00402C41
  00402497: 3B FB              cmp         edi,ebx
  00402499: 66 89 1E           mov         word ptr [esi],bx
  0040249C: 0F 84 E9 03 00 00  je          0040288B
  004024A2: 8D 4D B4           lea         ecx,[ebp-4Ch]
  004024A5: C7 45 B4 00 08 00  mov         dword ptr [ebp-4Ch],800h
            00
  004024AC: 51                 push        ecx
  004024AD: 8D 4D 08           lea         ecx,[ebp+8]
  004024B0: 56                 push        esi
  004024B1: 51                 push        ecx
  004024B2: 53                 push        ebx
  004024B3: 50                 push        eax
  004024B4: 57                 push        edi
  004024B5: FF 15 2C 80 40 00  call        dword ptr ds:[0040802Ch]
  004024BB: 33 C9              xor         ecx,ecx
  004024BD: 41                 inc         ecx
  004024BE: 85 C0              test        eax,eax
  004024C0: 75 2E              jne         004024F0
  004024C2: 83 7D 08 04        cmp         dword ptr [ebp+8],4
  004024C6: 74 13              je          004024DB
  004024C8: 39 4D 08           cmp         dword ptr [ebp+8],ecx
  004024CB: 74 06              je          004024D3
  004024CD: 83 7D 08 02        cmp         dword ptr [ebp+8],2
  004024D1: 75 1D              jne         004024F0
  004024D3: 8B 45 E8           mov         eax,dword ptr [ebp-18h]
  004024D6: 89 45 FC           mov         dword ptr [ebp-4],eax
  004024D9: EB 74              jmp         0040254F
  004024DB: FF 36              push        dword ptr [esi]
  004024DD: 33 C0              xor         eax,eax
  004024DF: 39 5D E8           cmp         dword ptr [ebp-18h],ebx
  004024E2: 56                 push        esi
  004024E3: 0F 94 C0           sete        al
  004024E6: 89 45 FC           mov         dword ptr [ebp-4],eax
  004024E9: E8 13 3D 00 00     call        00406201
  004024EE: EB 66              jmp         00402556
  004024F0: 66 89 1E           mov         word ptr [esi],bx
  004024F3: 89 4D FC           mov         dword ptr [ebp-4],ecx
  004024F6: EB 5E              jmp         00402556
  004024F8: 68 19 00 02 00     push        20019h
  004024FD: E8 7F 07 00 00     call        00402C81
  00402502: 6A 03              push        3
  00402504: 8B F8              mov         edi,eax
  00402506: E8 14 07 00 00     call        00402C1F
  0040250B: 3B FB              cmp         edi,ebx
  0040250D: 59                 pop         ecx
  0040250E: 89 55 B4           mov         dword ptr [ebp-4Ch],edx
  00402511: 66 89 1E           mov         word ptr [esi],bx
  00402514: 0F 84 71 03 00 00  je          0040288B
  0040251A: 39 5D E8           cmp         dword ptr [ebp-18h],ebx
  0040251D: B9 FF 03 00 00     mov         ecx,3FFh
  00402522: 89 4D 08           mov         dword ptr [ebp+8],ecx
  00402525: 74 0C              je          00402533
  00402527: 51                 push        ecx
  00402528: 56                 push        esi
  00402529: 50                 push        eax
  0040252A: 57                 push        edi
  0040252B: FF 15 30 80 40 00  call        dword ptr ds:[00408030h]
  00402531: EB 1C              jmp         0040254F
  00402533: 53                 push        ebx
  00402534: 53                 push        ebx
  00402535: 53                 push        ebx
  00402536: 8D 4D 08           lea         ecx,[ebp+8]
  00402539: 53                 push        ebx
  0040253A: 51                 push        ecx
  0040253B: 56                 push        esi
  0040253C: 50                 push        eax
  0040253D: 57                 push        edi
  0040253E: FF 15 18 80 40 00  call        dword ptr ds:[00408018h]
  00402544: 85 C0              test        eax,eax
  00402546: 74 07              je          0040254F
  00402548: C7 45 FC 01 00 00  mov         dword ptr [ebp-4],1
            00
  0040254F: 66 89 9E FE 07 00  mov         word ptr [esi+000007FEh],bx
            00
  00402556: 57                 push        edi
  00402557: FF 15 24 80 40 00  call        dword ptr ds:[00408024h]
  0040255D: E9 63 05 00 00     jmp         00402AC5
  00402562: 56                 push        esi
  00402563: E8 B2 3C 00 00     call        0040621A
  00402568: 3B C3              cmp         eax,ebx
  0040256A: 0F 84 55 05 00 00  je          00402AC5
  00402570: 50                 push        eax
  00402571: E9 D7 F9 FF FF     jmp         00401F4D
  00402576: 6A ED              push        0FFFFFFEDh
  00402578: E8 C4 06 00 00     call        00402C41
  0040257D: FF 75 E0           push        dword ptr [ebp-20h]
  00402580: FF 75 DC           push        dword ptr [ebp-24h]
  00402583: 50                 push        eax
  00402584: E8 27 38 00 00     call        00405DB0
  00402589: 83 F8 FF           cmp         eax,0FFFFFFFFh
  0040258C: 0F 84 F6 02 00 00  je          00402888
  00402592: 50                 push        eax
  00402593: E9 D5 EF FF FF     jmp         0040156D
  00402598: 8B 45 E0           mov         eax,dword ptr [ebp-20h]
  0040259B: 33 C9              xor         ecx,ecx
  0040259D: 83 FA 38           cmp         edx,38h
  004025A0: 89 45 B4           mov         dword ptr [ebp-4Ch],eax
  004025A3: 0F 94 C1           sete        cl
  004025A6: 3B C3              cmp         eax,ebx
  004025A8: 8B F9              mov         edi,ecx
  004025AA: 74 1B              je          004025C7
  004025AC: 6A 01              push        1
  004025AE: E8 6C 06 00 00     call        00402C1F
  004025B3: 66 A3 D0 AD 40 00  mov         word ptr ds:[0040ADD0h],ax
  004025B9: 33 C0              xor         eax,eax
  004025BB: 3B FB              cmp         edi,ebx
  004025BD: 59                 pop         ecx
  004025BE: 0F 94 C0           sete        al
  004025C1: 89 55 C4           mov         dword ptr [ebp-3Ch],edx
  004025C4: 40                 inc         eax
  004025C5: EB 43              jmp         0040260A
  004025C7: 83 FA 38           cmp         edx,38h
  004025CA: 75 2F              jne         004025FB
  004025CC: 6A 21              push        21h
  004025CE: E8 6E 06 00 00     call        00402C41
  004025D3: 53                 push        ebx
  004025D4: 53                 push        ebx
  004025D5: 68 00 04 00 00     push        400h
  004025DA: 68 D0 AD 40 00     push        40ADD0h
  004025DF: 6A FF              push        0FFFFFFFFh
  004025E1: 68 D0 B5 40 00     push        40B5D0h
  004025E6: 53                 push        ebx
  004025E7: 53                 push        ebx
  004025E8: FF 15 5C 81 40 00  call        dword ptr ds:[0040815Ch]
  004025EE: 68 D0 AD 40 00     push        40ADD0h
  004025F3: FF 15 50 81 40 00  call        dword ptr ds:[00408150h]
  004025F9: EB 0F              jmp         0040260A
  004025FB: 6A 11              push        11h
  004025FD: E8 3F 06 00 00     call        00402C41
  00402602: 50                 push        eax
  00402603: E8 C8 3C 00 00     call        004062D0
  00402608: 03 C0              add         eax,eax
  0040260A: 66 39 1E           cmp         word ptr [esi],bx
  0040260D: 89 45 08           mov         dword ptr [ebp+8],eax
  00402610: 0F 84 75 02 00 00  je          0040288B
  00402616: 56                 push        esi
  00402617: E8 FE 3B 00 00     call        0040621A
  0040261C: 0B 7D B4           or          edi,dword ptr [ebp-4Ch]
  0040261F: 8B F0              mov         esi,eax
  00402621: 75 14              jne         00402637
  00402623: 39 5D E4           cmp         dword ptr [ebp-1Ch],ebx
  00402626: 74 0F              je          00402637
  00402628: 56                 push        esi
  00402629: 56                 push        esi
  0040262A: E8 62 38 00 00     call        00405E91
  0040262F: 85 C0              test        eax,eax
  00402631: 0F 8C 54 02 00 00  jl          0040288B
  00402637: FF 75 08           push        dword ptr [ebp+8]
  0040263A: 68 D0 AD 40 00     push        40ADD0h
  0040263F: 56                 push        esi
  00402640: E8 1D 38 00 00     call        00405E62
  00402645: E9 6A EF FF FF     jmp         004015B4
  0040264A: 6A 02              push        2
  0040264C: 89 5D F8           mov         dword ptr [ebp-8],ebx
  0040264F: 58                 pop         eax
  00402650: 50                 push        eax
  00402651: 89 45 B8           mov         dword ptr [ebp-48h],eax
  00402654: E8 C6 05 00 00     call        00402C1F
  00402659: 83 F8 01           cmp         eax,1
  0040265C: 59                 pop         ecx
  0040265D: 89 55 B4           mov         dword ptr [ebp-4Ch],edx
  00402660: 89 45 C4           mov         dword ptr [ebp-3Ch],eax
  00402663: 0F 8C 5C 04 00 00  jl          00402AC5
  00402669: B9 FF 03 00 00     mov         ecx,3FFh
  0040266E: 3B C1              cmp         eax,ecx
  00402670: 7E 03              jle         00402675
  00402672: 89 4D C4           mov         dword ptr [ebp-3Ch],ecx
  00402675: 66 39 1E           cmp         word ptr [esi],bx
  00402678: 0F 84 5E 01 00 00  je          004027DC
  0040267E: 56                 push        esi
  0040267F: 89 5D D0           mov         dword ptr [ebp-30h],ebx
  00402682: E8 93 3B 00 00     call        0040621A
  00402687: 39 5D C4           cmp         dword ptr [ebp-3Ch],ebx
  0040268A: 89 45 F0           mov         dword ptr [ebp-10h],eax
  0040268D: 0F 8E 49 01 00 00  jle         004027DC
  00402693: 8B 3D 58 81 40 00  mov         edi,dword ptr ds:[00408158h]
  00402699: 83 7D D4 39        cmp         dword ptr [ebp-2Ch],39h
  0040269D: 0F 85 8F 00 00 00  jne         00402732
  004026A3: 8D 45 C8           lea         eax,[ebp-38h]
  004026A6: 53                 push        ebx
  004026A7: 50                 push        eax
  004026A8: 6A 02              push        2
  004026AA: 58                 pop         eax
  004026AB: 2B 45 E4           sub         eax,dword ptr [ebp-1Ch]
  004026AE: 50                 push        eax
  004026AF: 8D 45 0A           lea         eax,[ebp+0Ah]
  004026B2: 50                 push        eax
  004026B3: FF 75 F0           push        dword ptr [ebp-10h]
  004026B6: FF 15 48 81 40 00  call        dword ptr ds:[00408148h]
  004026BC: 85 C0              test        eax,eax
  004026BE: 0F 84 18 01 00 00  je          004027DC
  004026C4: 8B 4D C8           mov         ecx,dword ptr [ebp-38h]
  004026C7: 3B CB              cmp         ecx,ebx
  004026C9: 0F 84 0D 01 00 00  je          004027DC
  004026CF: 66 0F B6 45 0A     movzx       ax,byte ptr [ebp+0Ah]
  004026D4: 39 5D E4           cmp         dword ptr [ebp-1Ch],ebx
  004026D7: 89 4D B8           mov         dword ptr [ebp-48h],ecx
  004026DA: 89 45 BC           mov         dword ptr [ebp-44h],eax
  004026DD: 0F 85 B5 00 00 00  jne         00402798
  004026E3: 8D 45 BC           lea         eax,[ebp-44h]
  004026E6: 6A 01              push        1
  004026E8: 50                 push        eax
  004026E9: 8D 45 0A           lea         eax,[ebp+0Ah]
  004026EC: 51                 push        ecx
  004026ED: 50                 push        eax
  004026EE: 6A 08              push        8
  004026F0: 53                 push        ebx
  004026F1: FF D7              call        edi
  004026F3: 85 C0              test        eax,eax
  004026F5: 75 68              jne         0040275F
  004026F7: 8B 75 B8           mov         esi,dword ptr [ebp-48h]
  004026FA: F7 DE              neg         esi
  004026FC: FF 4D C8           dec         dword ptr [ebp-38h]
  004026FF: B8 FD FF 00 00     mov         eax,0FFFDh
  00402704: 89 45 BC           mov         dword ptr [ebp-44h],eax
  00402707: 74 59              je          00402762
  00402709: FF 4D B8           dec         dword ptr [ebp-48h]
  0040270C: 46                 inc         esi
  0040270D: 6A 01              push        1
  0040270F: 53                 push        ebx
  00402710: 56                 push        esi
  00402711: FF 75 F0           push        dword ptr [ebp-10h]
  00402714: FF 15 44 81 40 00  call        dword ptr ds:[00408144h]
  0040271A: 8D 45 BC           lea         eax,[ebp-44h]
  0040271D: 6A 01              push        1
  0040271F: 50                 push        eax
  00402720: 8D 45 0A           lea         eax,[ebp+0Ah]
  00402723: FF 75 C8           push        dword ptr [ebp-38h]
  00402726: 50                 push        eax
  00402727: 6A 08              push        8
  00402729: 53                 push        ebx
  0040272A: FF D7              call        edi
  0040272C: 85 C0              test        eax,eax
  0040272E: 74 CC              je          004026FC
  00402730: EB 2D              jmp         0040275F
  00402732: 39 5D E4           cmp         dword ptr [ebp-1Ch],ebx
  00402735: 75 16              jne         0040274D
  00402737: 39 5D F8           cmp         dword ptr [ebp-8],ebx
  0040273A: 75 11              jne         0040274D
  0040273C: 53                 push        ebx
  0040273D: FF 75 F0           push        dword ptr [ebp-10h]
  00402740: E8 4C 37 00 00     call        00405E91
  00402745: 85 C0              test        eax,eax
  00402747: 0F 8C 8F 00 00 00  jl          004027DC
  0040274D: 8D 45 BC           lea         eax,[ebp-44h]
  00402750: 6A 02              push        2
  00402752: 50                 push        eax
  00402753: FF 75 F0           push        dword ptr [ebp-10h]
  00402756: E8 D8 36 00 00     call        00405E33
  0040275B: 85 C0              test        eax,eax
  0040275D: 74 7D              je          004027DC
  0040275F: 8B 45 BC           mov         eax,dword ptr [ebp-44h]
  00402762: 39 5D E4           cmp         dword ptr [ebp-1Ch],ebx
  00402765: 75 31              jne         00402798
  00402767: 66 83 7D D0 0D     cmp         word ptr [ebp-30h],0Dh
  0040276C: 74 3B              je          004027A9
  0040276E: 66 83 7D D0 0A     cmp         word ptr [ebp-30h],0Ah
  00402773: 74 34              je          004027A9
  00402775: 8B 4D F4           mov         ecx,dword ptr [ebp-0Ch]
  00402778: 8B 55 F8           mov         edx,dword ptr [ebp-8]
  0040277B: FF 45 F8           inc         dword ptr [ebp-8]
  0040277E: 66 3B C3           cmp         ax,bx
  00402781: 66 89 04 51        mov         word ptr [ecx+edx*2],ax
  00402785: 89 45 D0           mov         dword ptr [ebp-30h],eax
  00402788: 74 52              je          004027DC
  0040278A: 8B 45 F8           mov         eax,dword ptr [ebp-8]
  0040278D: 3B 45 C4           cmp         eax,dword ptr [ebp-3Ch]
  00402790: 0F 8C 03 FF FF FF  jl          00402699
  00402796: EB 44              jmp         004027DC
  00402798: 0F B7 C0           movzx       eax,ax
  0040279B: 50                 push        eax
  0040279C: FF 75 F4           push        dword ptr [ebp-0Ch]
  0040279F: E8 5D 3A 00 00     call        00406201
  004027A4: E9 25 03 00 00     jmp         00402ACE
  004027A9: 66 39 45 D0        cmp         word ptr [ebp-30h],ax
  004027AD: 74 1B              je          004027CA
  004027AF: 66 3D 0D 00        cmp         ax,0Dh
  004027B3: 74 06              je          004027BB
  004027B5: 66 3D 0A 00        cmp         ax,0Ah
  004027B9: 75 0F              jne         004027CA
  004027BB: 8B 4D F4           mov         ecx,dword ptr [ebp-0Ch]
  004027BE: 8B 55 F8           mov         edx,dword ptr [ebp-8]
  004027C1: FF 45 F8           inc         dword ptr [ebp-8]
  004027C4: 66 89 04 51        mov         word ptr [ecx+edx*2],ax
  004027C8: EB 12              jmp         004027DC
  004027CA: 8B 45 B8           mov         eax,dword ptr [ebp-48h]
  004027CD: 6A 01              push        1
  004027CF: F7 D8              neg         eax
  004027D1: 53                 push        ebx
  004027D2: 50                 push        eax
  004027D3: FF 75 F0           push        dword ptr [ebp-10h]
  004027D6: FF 15 44 81 40 00  call        dword ptr ds:[00408144h]
  004027DC: 8B 4D F4           mov         ecx,dword ptr [ebp-0Ch]
  004027DF: 8B 45 F8           mov         eax,dword ptr [ebp-8]
  004027E2: 3B C3              cmp         eax,ebx
  004027E4: 66 89 1C 41        mov         word ptr [ecx+eax*2],bx
  004027E8: E9 C9 ED FF FF     jmp         004015B6
  004027ED: 66 39 1E           cmp         word ptr [esi],bx
  004027F0: 0F 84 CF 02 00 00  je          00402AC5
  004027F6: 6A 02              push        2
  004027F8: E8 22 04 00 00     call        00402C1F
  004027FD: 59                 pop         ecx
  004027FE: 89 55 B4           mov         dword ptr [ebp-4Ch],edx
  00402801: FF 75 E4           push        dword ptr [ebp-1Ch]
  00402804: 53                 push        ebx
  00402805: 50                 push        eax
  00402806: 56                 push        esi
  00402807: E8 0E 3A 00 00     call        0040621A
  0040280C: 50                 push        eax
  0040280D: FF 15 44 81 40 00  call        dword ptr ds:[00408144h]
  00402813: 39 5D DC           cmp         dword ptr [ebp-24h],ebx
  00402816: 0F 8C A9 02 00 00  jl          00402AC5
  0040281C: E9 46 02 00 00     jmp         00402A67
  00402821: 56                 push        esi
  00402822: E8 F3 39 00 00     call        0040621A
  00402827: 3B C3              cmp         eax,ebx
  00402829: 0F 84 96 02 00 00  je          00402AC5
  0040282F: 50                 push        eax
  00402830: FF 15 4C 81 40 00  call        dword ptr ds:[0040814Ch]
  00402836: E9 8A 02 00 00     jmp         00402AC5
  0040283B: FF 75 F4           push        dword ptr [ebp-0Ch]
  0040283E: E8 D7 39 00 00     call        0040621A
  00402843: 3B C3              cmp         eax,ebx
  00402845: 74 12              je          00402859
  00402847: 8D 8D 2C FD FF FF  lea         ecx,[ebp+FFFFFD2Ch]
  0040284D: 51                 push        ecx
  0040284E: 50                 push        eax
  0040284F: FF 15 3C 81 40 00  call        dword ptr ds:[0040813Ch]
  00402855: 85 C0              test        eax,eax
  00402857: 75 47              jne         004028A0
  00402859: C7 45 FC 01 00 00  mov         dword ptr [ebp-4],1
            00
  00402860: 66 89 1E           mov         word ptr [esi],bx
  00402863: E9 5D 02 00 00     jmp         00402AC5
  00402868: 6A 02              push        2
  0040286A: E8 D2 03 00 00     call        00402C41
  0040286F: 8D 8D 2C FD FF FF  lea         ecx,[ebp+FFFFFD2Ch]
  00402875: 51                 push        ecx
  00402876: 50                 push        eax
  00402877: FF 15 38 81 40 00  call        dword ptr ds:[00408138h]
  0040287D: 83 F8 FF           cmp         eax,0FFFFFFFFh
  00402880: 75 15              jne         00402897
  00402882: 8B 45 F4           mov         eax,dword ptr [ebp-0Ch]
  00402885: 66 89 18           mov         word ptr [eax],bx
  00402888: 66 89 1E           mov         word ptr [esi],bx
  0040288B: C7 45 FC 01 00 00  mov         dword ptr [ebp-4],1
            00
  00402892: E9 2E 02 00 00     jmp         00402AC5
  00402897: 50                 push        eax
  00402898: FF 75 F4           push        dword ptr [ebp-0Ch]
  0040289B: E8 61 39 00 00     call        00406201
  004028A0: 8D 85 58 FD FF FF  lea         eax,[ebp+FFFFFD58h]
  004028A6: 50                 push        eax
  004028A7: 56                 push        esi
  004028A8: E9 34 01 00 00     jmp         004029E1
  004028AD: 6A F0              push        0FFFFFFF0h
  004028AF: C7 45 D0 66 FD FF  mov         dword ptr [ebp-30h],0FFFFFD66h
            FF
  004028B6: E8 86 03 00 00     call        00402C41
  004028BB: 8B F0              mov         esi,eax
  004028BD: 56                 push        esi
  004028BE: 89 75 C8           mov         dword ptr [ebp-38h],esi
  004028C1: E8 40 33 00 00     call        00405C06
  004028C6: 85 C0              test        eax,eax
  004028C8: 75 07              jne         004028D1
  004028CA: 6A ED              push        0FFFFFFEDh
  004028CC: E8 70 03 00 00     call        00402C41
  004028D1: 56                 push        esi
  004028D2: E8 B4 34 00 00     call        00405D8B
  004028D7: 6A 02              push        2
  004028D9: 68 00 00 00 40     push        40000000h
  004028DE: 56                 push        esi
  004028DF: E8 CC 34 00 00     call        00405DB0
  004028E4: 83 F8 FF           cmp         eax,0FFFFFFFFh
  004028E7: 89 45 08           mov         dword ptr [ebp+8],eax
  004028EA: 0F 84 97 00 00 00  je          00402987
  004028F0: A1 F8 4E 43 00     mov         eax,dword ptr ds:[00434EF8h]
  004028F5: 8B 35 34 81 40 00  mov         esi,dword ptr ds:[00408134h]
  004028FB: 50                 push        eax
  004028FC: 6A 40              push        40h
  004028FE: 89 45 C4           mov         dword ptr [ebp-3Ch],eax
  00402901: FF D6              call        esi
  00402903: 8B F8              mov         edi,eax
  00402905: 3B FB              cmp         edi,ebx
  00402907: 74 75              je          0040297E
  00402909: 53                 push        ebx
  0040290A: E8 38 0A 00 00     call        00403347
  0040290F: FF 75 C4           push        dword ptr [ebp-3Ch]
  00402912: 57                 push        edi
  00402913: E8 19 0A 00 00     call        00403331
  00402918: FF 75 E0           push        dword ptr [ebp-20h]
  0040291B: 6A 40              push        40h
  0040291D: FF D6              call        esi
  0040291F: 8B F0              mov         esi,eax
  00402921: 3B F3              cmp         esi,ebx
  00402923: 89 75 B4           mov         dword ptr [ebp-4Ch],esi
  00402926: 74 34              je          0040295C
  00402928: FF 75 E0           push        dword ptr [ebp-20h]
  0040292B: 56                 push        esi
  0040292C: 53                 push        ebx
  0040292D: FF 75 DC           push        dword ptr [ebp-24h]
  00402930: E8 E1 07 00 00     call        00403116
  00402935: EB 18              jmp         0040294F
  00402937: 8B 0E              mov         ecx,dword ptr [esi]
  00402939: 8B 46 04           mov         eax,dword ptr [esi+4]
  0040293C: 83 C6 08           add         esi,8
  0040293F: 51                 push        ecx
  00402940: 03 C7              add         eax,edi
  00402942: 56                 push        esi
  00402943: 50                 push        eax
  00402944: 89 4D CC           mov         dword ptr [ebp-34h],ecx
  00402947: E8 1F 34 00 00     call        00405D6B
  0040294C: 03 75 CC           add         esi,dword ptr [ebp-34h]
  0040294F: 38 1E              cmp         byte ptr [esi],bl
  00402951: 75 E4              jne         00402937
  00402953: FF 75 B4           push        dword ptr [ebp-4Ch]
  00402956: FF 15 28 81 40 00  call        dword ptr ds:[00408128h]
  0040295C: FF 75 C4           push        dword ptr [ebp-3Ch]
  0040295F: 57                 push        edi
  00402960: FF 75 08           push        dword ptr [ebp+8]
  00402963: E8 FA 34 00 00     call        00405E62
  00402968: 57                 push        edi
  00402969: FF 15 28 81 40 00  call        dword ptr ds:[00408128h]
  0040296F: 53                 push        ebx
  00402970: 53                 push        ebx
  00402971: FF 75 08           push        dword ptr [ebp+8]
  00402974: 6A FF              push        0FFFFFFFFh
  00402976: E8 9B 07 00 00     call        00403116
  0040297B: 89 45 D0           mov         dword ptr [ebp-30h],eax
  0040297E: FF 75 08           push        dword ptr [ebp+8]
  00402981: FF 15 20 81 40 00  call        dword ptr ds:[00408120h]
  00402987: 39 5D D0           cmp         dword ptr [ebp-30h],ebx
  0040298A: 6A F3              push        0FFFFFFF3h
  0040298C: 5E                 pop         esi
  0040298D: 7D 13              jge         004029A2
  0040298F: 6A EF              push        0FFFFFFEFh
  00402991: 5E                 pop         esi
  00402992: FF 75 C8           push        dword ptr [ebp-38h]
  00402995: FF 15 40 81 40 00  call        dword ptr ds:[00408140h]
  0040299B: C7 45 FC 01 00 00  mov         dword ptr [ebp-4],1
            00
  004029A2: 56                 push        esi
  004029A3: E9 A3 F8 FF FF     jmp         0040224B
  004029A8: 53                 push        ebx
  004029A9: E8 71 02 00 00     call        00402C1F
  004029AE: 8B F8              mov         edi,eax
  004029B0: 59                 pop         ecx
  004029B1: 3B 3D 2C 4F 43 00  cmp         edi,dword ptr ds:[00434F2Ch]
  004029B7: 89 55 B4           mov         dword ptr [ebp-4Ch],edx
  004029BA: 0F 83 CB FE FF FF  jae         0040288B
  004029C0: 8B F7              mov         esi,edi
  004029C2: 8B 45 E0           mov         eax,dword ptr [ebp-20h]
  004029C5: 69 F6 18 08 00 00  imul        esi,esi,818h
  004029CB: 03 35 28 4F 43 00  add         esi,dword ptr ds:[00434F28h]
  004029D1: 3B C3              cmp         eax,ebx
  004029D3: 7C 19              jl          004029EE
  004029D5: 8B 0C 86           mov         ecx,dword ptr [esi+eax*4]
  004029D8: 75 11              jne         004029EB
  004029DA: 83 C6 18           add         esi,18h
  004029DD: 56                 push        esi
  004029DE: FF 75 F4           push        dword ptr [ebp-0Ch]
  004029E1: E8 D4 38 00 00     call        004062BA
  004029E6: E9 DA 00 00 00     jmp         00402AC5
  004029EB: 51                 push        ecx
  004029EC: EB 7A              jmp         00402A68
  004029EE: 83 C9 FF           or          ecx,0FFFFFFFFh
  004029F1: 2B C8              sub         ecx,eax
  004029F3: 89 4D E0           mov         dword ptr [ebp-20h],ecx
  004029F6: 74 10              je          00402A08
  004029F8: 6A 01              push        1
  004029FA: E8 20 02 00 00     call        00402C1F
  004029FF: 59                 pop         ecx
  00402A00: 89 55 B4           mov         dword ptr [ebp-4Ch],edx
  00402A03: 89 45 DC           mov         dword ptr [ebp-24h],eax
  00402A06: EB 10              jmp         00402A18
  00402A08: FF 75 E8           push        dword ptr [ebp-18h]
  00402A0B: 8D 46 18           lea         eax,[esi+18h]
  00402A0E: 50                 push        eax
  00402A0F: E8 C8 38 00 00     call        004062DC
  00402A14: 80 4E 09 01        or          byte ptr [esi+9],1
  00402A18: 8B 45 E0           mov         eax,dword ptr [ebp-20h]
  00402A1B: 8B 4D DC           mov         ecx,dword ptr [ebp-24h]
  00402A1E: 89 0C 86           mov         dword ptr [esi+eax*4],ecx
  00402A21: 39 5D E4           cmp         dword ptr [ebp-1Ch],ebx
  00402A24: 0F 84 9B 00 00 00  je          00402AC5
  00402A2A: 57                 push        edi
  00402A2B: E8 4D E7 FF FF     call        0040117D
  00402A30: E9 90 00 00 00     jmp         00402AC5
  00402A35: 53                 push        ebx
  00402A36: E8 E4 01 00 00     call        00402C1F
  00402A3B: 83 F8 20           cmp         eax,20h
  00402A3E: 59                 pop         ecx
  00402A3F: 89 55 B4           mov         dword ptr [ebp-4Ch],edx
  00402A42: 0F 83 43 FE FF FF  jae         0040288B
  00402A48: 39 5D E4           cmp         dword ptr [ebp-1Ch],ebx
  00402A4B: 74 25              je          00402A72
  00402A4D: 39 5D E0           cmp         dword ptr [ebp-20h],ebx
  00402A50: 74 0F              je          00402A61
  00402A52: 50                 push        eax
  00402A53: E8 41 E8 FF FF     call        00401299
  00402A58: 53                 push        ebx
  00402A59: 53                 push        ebx
  00402A5A: E8 90 E7 FF FF     call        004011EF
  00402A5F: EB 64              jmp         00402AC5
  00402A61: 53                 push        ebx
  00402A62: E8 7B E8 FF FF     call        004012E2
  00402A67: 50                 push        eax
  00402A68: FF 75 F4           push        dword ptr [ebp-0Ch]
  00402A6B: E8 91 37 00 00     call        00406201
  00402A70: EB 53              jmp         00402AC5
  00402A72: 39 5D E0           cmp         dword ptr [ebp-20h],ebx
  00402A75: 74 12              je          00402A89
  00402A77: 8B 15 F4 4E 43 00  mov         edx,dword ptr ds:[00434EF4h]
  00402A7D: 8B 4D DC           mov         ecx,dword ptr [ebp-24h]
  00402A80: 89 8C 82 94 00 00  mov         dword ptr [edx+eax*4+00000094h],ecx
            00
  00402A87: EB 3C              jmp         00402AC5
  00402A89: 8B 0D F4 4E 43 00  mov         ecx,dword ptr ds:[00434EF4h]
  00402A8F: FF B4 81 94 00 00  push        dword ptr [ecx+eax*4+00000094h]
            00
  00402A96: FF 75 F4           push        dword ptr [ebp-0Ch]
  00402A99: E8 3E 38 00 00     call        004062DC
  00402A9E: EB 25              jmp         00402AC5
  00402AA0: 8B 0D 48 F2 42 00  mov         ecx,dword ptr ds:[0042F248h]
  00402AA6: 53                 push        ebx
  00402AA7: 23 C8              and         ecx,eax
  00402AA9: 51                 push        ecx
  00402AAA: 6A 0B              push        0Bh
  00402AAC: FF 75 F8           push        dword ptr [ebp-8]
  00402AAF: FF 15 18 82 40 00  call        dword ptr ds:[00408218h]
  00402AB5: 39 5D D8           cmp         dword ptr [ebp-28h],ebx
  00402AB8: 74 0B              je          00402AC5
  00402ABA: 53                 push        ebx
  00402ABB: 53                 push        ebx
  00402ABC: FF 75 F8           push        dword ptr [ebp-8]
  00402ABF: FF 15 14 82 40 00  call        dword ptr ds:[00408214h]
  00402AC5: 8B 45 FC           mov         eax,dword ptr [ebp-4]
  00402AC8: 01 05 88 4F 43 00  add         dword ptr ds:[00434F88h],eax
  00402ACE: 33 C0              xor         eax,eax
  00402AD0: 5F                 pop         edi
  00402AD1: 5E                 pop         esi
  00402AD2: 5B                 pop         ebx
  00402AD3: C9                 leave
  00402AD4: C2 04 00           ret         4
  00402AD7: D0 2A              shr         byte ptr [edx],1
  00402AD9: 40                 inc         eax
  00402ADA: 00 91 14 40 00 9D  add         byte ptr [ecx+9D004014h],dl
  00402AE0: 14 40              adc         al,40h
  00402AE2: 00 B8 14 40 00 CB  add         byte ptr [eax+CB004014h],bh
  00402AE8: 14 40              adc         al,40h
  00402AEA: 00 D7              add         bh,dl
  00402AEC: 14 40              adc         al,40h
  00402AEE: 00 F5              add         ch,dh
  00402AF0: 14 40              adc         al,40h
  00402AF2: 00 73 15           add         byte ptr [ebx+15h],dh
  00402AF5: 40                 inc         eax
  00402AF6: 00 A3 15 40 00 C1  add         byte ptr [ebx+C1004015h],ah
  00402AFC: 15 40 00 6A 16     adc         eax,166A0040h
  00402B01: 40                 inc         eax
  00402B02: 00 03              add         byte ptr [ebx],al
  00402B04: 15 40 00 42 15     adc         eax,15420040h
  00402B09: 40                 inc         eax
  00402B0A: 00 63 15           add         byte ptr [ebx+15h],ah
  00402B0D: 40                 inc         eax
  00402B0E: 00 7B 16           add         byte ptr [ebx+16h],bh
  00402B11: 40                 inc         eax
  00402B12: 00 CC              add         ah,cl
  00402B14: 16                 push        ss
  00402B15: 40                 inc         eax
  00402B16: 00 35 17 40 00 5C  add         byte ptr ds:[5C004017h],dh
  00402B1C: 17                 pop         ss
  00402B1D: 40                 inc         eax
  00402B1E: 00 6F 17           add         byte ptr [edi+17h],ch
  00402B21: 40                 inc         eax
  00402B22: 00 0C 19           add         byte ptr [ecx+ebx],cl
  00402B25: 40                 inc         eax
  00402B26: 00 0F              add         byte ptr [edi],cl
  00402B28: 19 40 00           sbb         dword ptr [eax],eax
  00402B2B: 41                 inc         ecx
  00402B2C: 19 40 00           sbb         dword ptr [eax],eax
  00402B2F: 56                 push        esi
  00402B30: 19 40 00           sbb         dword ptr [eax],eax
  00402B33: 68 19 40 00 FF     push        0FF004019h
  00402B38: 19 40 00           sbb         dword ptr [eax],eax
  00402B3B: 30 1A              xor         byte ptr [edx],bl
  00402B3D: 40                 inc         eax
  00402B3E: 00 72 1A           add         byte ptr [edx+1Ah],dh
  00402B41: 40                 inc         eax
  00402B42: 00 B2 1A 40 00 53  add         byte ptr [edx+5300401Ah],dh
  00402B48: 1B 40 00           sbb         eax,dword ptr [eax]
  00402B4B: 77 1B              ja          00402B68
  00402B4D: 40                 inc         eax
  00402B4E: 00 1F              add         byte ptr [edi],bl
  00402B50: 1C 40              sbb         al,40h
  00402B52: 00 1F              add         byte ptr [edi],bl
  00402B54: 1C 40              sbb         al,40h
  00402B56: 00 F3              add         bl,dh
  00402B58: 1C 40              sbb         al,40h
  00402B5A: 00 14 1D 40 00 39  add         byte ptr [ebx+1D390040h],dl
            1D
  00402B61: 40                 inc         eax
  00402B62: 00 5D 1D           add         byte ptr [ebp+1Dh],bl
  00402B65: 40                 inc         eax
  00402B66: 00 B9 1D 40 00 49  add         byte ptr [ecx+4900401Dh],bh
  00402B6C: 1E                 push        ds
  00402B6D: 40                 inc         eax
  00402B6E: 00 7D 1E           add         byte ptr [ebp+1Eh],bh
  00402B71: 40                 inc         eax
  00402B72: 00 06              add         byte ptr [esi],al
  00402B74: 1F                 pop         ds
  00402B75: 40                 inc         eax
  00402B76: 00 58 1F           add         byte ptr [eax+1Fh],bl
  00402B79: 40                 inc         eax
  00402B7A: 00 8C 1F 40 00 31  add         byte ptr [edi+ebx+20310040h],cl
            20
  00402B81: 40                 inc         eax
  00402B82: 00 04 21           add         byte ptr [ecx],al
  00402B85: 40                 inc         eax
  00402B86: 00 59 22           add         byte ptr [ecx+22h],bl
  00402B89: 40                 inc         eax
  00402B8A: 00 DD              add         ch,bl
  00402B8C: 22 40 00           and         al,byte ptr [eax]
  00402B8F: 0C 23              or          al,23h
  00402B91: 40                 inc         eax
  00402B92: 00 4E 23           add         byte ptr [esi+23h],cl
  00402B95: 40                 inc         eax
  00402B96: 00 8E 23 40 00 E4  add         byte ptr [esi+E4004023h],cl
  00402B9C: 23 40 00           and         eax,dword ptr [eax]
  00402B9F: 84 24 40           test        byte ptr [eax+eax*2],ah
  00402BA2: 00 F8              add         al,bh
  00402BA4: 24 40              and         al,40h
  00402BA6: 00 62 25           add         byte ptr [edx+25h],ah
  00402BA9: 40                 inc         eax
  00402BAA: 00 76 25           add         byte ptr [esi+25h],dh
  00402BAD: 40                 inc         eax
  00402BAE: 00 98 25 40 00 4A  add         byte ptr [eax+4A004025h],bl
  00402BB4: 26 40              inc         eax
  00402BB6: 00 ED              add         ch,ch
  00402BB8: 27                 daa
  00402BB9: 40                 inc         eax
  00402BBA: 00 21              add         byte ptr [ecx],ah
  00402BBC: 28 40 00           sub         byte ptr [eax],al
  00402BBF: 3B 28              cmp         ebp,dword ptr [eax]
  00402BC1: 40                 inc         eax
  00402BC2: 00 68 28           add         byte ptr [eax+28h],ch
  00402BC5: 40                 inc         eax
  00402BC6: 00 AD 28 40 00 A8  add         byte ptr [ebp+A8004028h],ch
  00402BCC: 29 40 00           sub         dword ptr [eax],eax
  00402BCF: 35 2A 40 00 C5     xor         eax,0C500402Ah
  00402BD4: 2A 40 00           sub         al,byte ptr [eax]
  00402BD7: C5 2A              lds         ebp,fword ptr [edx]
  00402BD9: 40                 inc         eax
  00402BDA: 00 A0 2A 40 00 98  add         byte ptr [eax+9800402Ah],ah
  00402BE0: 25 40 00 4A 26     and         eax,264A0040h
  00402BE5: 40                 inc         eax
  00402BE6: 00 DE              add         dh,bl
  00402BE8: 1A 40 00           sbb         al,byte ptr [eax]
  00402BEB: E2 1A              loop        00402C07
  00402BED: 40                 inc         eax
  00402BEE: 00 E6              add         dh,ah
  00402BF0: 1A 40 00           sbb         al,byte ptr [eax]
  00402BF3: EB 1A              jmp         00402C0F
  00402BF5: 40                 inc         eax
  00402BF6: 00 F8              add         al,bh
  00402BF8: 1A 40 00           sbb         al,byte ptr [eax]
  00402BFB: FC                 cld
  00402BFC: 1A 40 00           sbb         al,byte ptr [eax]
  00402BFF: 00 1B              add         byte ptr [ebx],bl
  00402C01: 40                 inc         eax
  00402C02: 00 06              add         byte ptr [esi],al
  00402C04: 1B 40 00           sbb         eax,dword ptr [eax]
  00402C07: 0F 1B 40 00        bndstx      dword ptr [eax],bnd0
  00402C0B: 19 1B              sbb         dword ptr [ebx],ebx
  00402C0D: 40                 inc         eax
  00402C0E: 00 26              add         byte ptr [esi],ah
  00402C10: 1B 40 00           sbb         eax,dword ptr [eax]
  00402C13: 3E 1B 40 00        sbb         eax,dword ptr ds:[eax]
  00402C17: 42                 inc         edx
  00402C18: 1B 40 00           sbb         eax,dword ptr [eax]
  00402C1B: 46                 inc         esi
  00402C1C: 1B 40 00           sbb         eax,dword ptr [eax]
  00402C1F: 8B 44 24 04        mov         eax,dword ptr [esp+4]
  00402C23: 8B 0D 2C CE 40 00  mov         ecx,dword ptr ds:[0040CE2Ch]
  00402C29: 56                 push        esi
  00402C2A: FF 34 81           push        dword ptr [ecx+eax*4]
  00402C2D: 6A 00              push        0
  00402C2F: E8 A8 36 00 00     call        004062DC
  00402C34: 8B F0              mov         esi,eax
  00402C36: 56                 push        esi
  00402C37: E8 DE 35 00 00     call        0040621A
  00402C3C: 0F B7 16           movzx       edx,word ptr [esi]
  00402C3F: 5E                 pop         esi
  00402C40: C3                 ret
  00402C41: 56                 push        esi
  00402C42: 8B 74 24 08        mov         esi,dword ptr [esp+8]
  00402C46: 85 F6              test        esi,esi
  00402C48: 57                 push        edi
  00402C49: 8B C6              mov         eax,esi
  00402C4B: 7D 02              jge         00402C4F
  00402C4D: F7 D8              neg         eax
  00402C4F: 8B 15 2C CE 40 00  mov         edx,dword ptr ds:[0040CE2Ch]
  00402C55: 8B C8              mov         ecx,eax
  00402C57: 83 E1 0F           and         ecx,0Fh
  00402C5A: C1 F8 04           sar         eax,4
  00402C5D: FF 34 8A           push        dword ptr [edx+ecx*4]
  00402C60: C1 E0 0B           shl         eax,0Bh
  00402C63: 05 D0 A5 40 00     add         eax,40A5D0h
  00402C68: 50                 push        eax
  00402C69: E8 6E 36 00 00     call        004062DC
  00402C6E: 85 F6              test        esi,esi
  00402C70: 8B F8              mov         edi,eax
  00402C72: 7D 06              jge         00402C7A
  00402C74: 57                 push        edi
  00402C75: E8 D4 38 00 00     call        0040654E
  00402C7A: 8B C7              mov         eax,edi
  00402C7C: 5F                 pop         edi
  00402C7D: 5E                 pop         esi
  00402C7E: C2 04 00           ret         4
  00402C81: 55                 push        ebp
  00402C82: 8B EC              mov         ebp,esp
  00402C84: 8D 45 08           lea         eax,[ebp+8]
  00402C87: 50                 push        eax
  00402C88: 8B 45 08           mov         eax,dword ptr [ebp+8]
  00402C8B: 0D 20 00 10 00     or          eax,100020h
  00402C90: 50                 push        eax
  00402C91: 6A 22              push        22h
  00402C93: E8 A9 FF FF FF     call        00402C41
  00402C98: 50                 push        eax
  00402C99: A1 2C CE 40 00     mov         eax,dword ptr ds:[0040CE2Ch]
  00402C9E: FF 70 04           push        dword ptr [eax+4]
  00402CA1: E8 13 00 00 00     call        00402CB9
  00402CA6: 50                 push        eax
  00402CA7: E8 7B 34 00 00     call        00406127
  00402CAC: F7 D8              neg         eax
  00402CAE: 1B C0              sbb         eax,eax
  00402CB0: F7 D0              not         eax
  00402CB2: 23 45 08           and         eax,dword ptr [ebp+8]
  00402CB5: 5D                 pop         ebp
  00402CB6: C2 04 00           ret         4
  00402CB9: 8B 44 24 04        mov         eax,dword ptr [esp+4]
  00402CBD: 85 C0              test        eax,eax
  00402CBF: 7C 0D              jl          00402CCE
  00402CC1: 8B 0D 84 4F 43 00  mov         ecx,dword ptr ds:[00434F84h]
  00402CC7: 8D 84 01 01 00 00  lea         eax,[ecx+eax+80000001h]
            80
  00402CCE: C2 04 00           ret         4
  00402CD1: 55                 push        ebp
  00402CD2: 8B EC              mov         ebp,esp
  00402CD4: 8D 45 10           lea         eax,[ebp+10h]
  00402CD7: 50                 push        eax
  00402CD8: 8B 45 10           mov         eax,dword ptr [ebp+10h]
  00402CDB: 0D 20 00 10 00     or          eax,100020h
  00402CE0: 50                 push        eax
  00402CE1: FF 75 0C           push        dword ptr [ebp+0Ch]
  00402CE4: FF 75 08           push        dword ptr [ebp+8]
  00402CE7: E8 CD FF FF FF     call        00402CB9
  00402CEC: 50                 push        eax
  00402CED: E8 63 34 00 00     call        00406155
  00402CF2: F7 D8              neg         eax
  00402CF4: 1B C0              sbb         eax,eax
  00402CF6: F7 D0              not         eax
  00402CF8: 23 45 10           and         eax,dword ptr [ebp+10h]
  00402CFB: 5D                 pop         ebp
  00402CFC: C2 0C 00           ret         0Ch
  00402CFF: 55                 push        ebp
  00402D00: 8B EC              mov         ebp,esp
  00402D02: 56                 push        esi
  00402D03: 8B 75 0C           mov         esi,dword ptr [ebp+0Ch]
  00402D06: 66 83 3E 00        cmp         word ptr [esi],0
  00402D0A: 75 07              jne         00402D13
  00402D0C: B8 EB 03 00 00     mov         eax,3EBh
  00402D11: EB 2C              jmp         00402D3F
  00402D13: 81 4D 10 20 00 10  or          dword ptr [ebp+10h],100020h
            00
  00402D1A: 8D 45 10           lea         eax,[ebp+10h]
  00402D1D: 50                 push        eax
  00402D1E: FF 75 08           push        dword ptr [ebp+8]
  00402D21: E8 93 FF FF FF     call        00402CB9
  00402D26: 50                 push        eax
  00402D27: E8 80 33 00 00     call        004060AC
  00402D2C: 85 C0              test        eax,eax
  00402D2E: 74 0C              je          00402D3C
  00402D30: FF 75 10           push        dword ptr [ebp+10h]
  00402D33: 56                 push        esi
  00402D34: 50                 push        eax
  00402D35: E8 0A 00 00 00     call        00402D44
  00402D3A: EB 03              jmp         00402D3F
  00402D3C: 6A 06              push        6
  00402D3E: 58                 pop         eax
  00402D3F: 5E                 pop         esi
  00402D40: 5D                 pop         ebp
  00402D41: C2 0C 00           ret         0Ch
  00402D44: 55                 push        ebp
  00402D45: 8B EC              mov         ebp,esp
  00402D47: 81 EC 10 02 00 00  sub         esp,210h
  00402D4D: 53                 push        ebx
  00402D4E: 56                 push        esi
  00402D4F: 8B 75 10           mov         esi,dword ptr [ebp+10h]
  00402D52: 57                 push        edi
  00402D53: 8B FE              mov         edi,esi
  00402D55: 8D 45 FC           lea         eax,[ebp-4]
  00402D58: 81 E6 00 03 00 00  and         esi,300h
  00402D5E: 50                 push        eax
  00402D5F: 8B C6              mov         eax,esi
  00402D61: 83 E7 01           and         edi,1
  00402D64: 0C 08              or          al,8
  00402D66: 50                 push        eax
  00402D67: FF 75 0C           push        dword ptr [ebp+0Ch]
  00402D6A: FF 75 08           push        dword ptr [ebp+8]
  00402D6D: E8 B5 33 00 00     call        00406127
  00402D72: 85 C0              test        eax,eax
  00402D74: 75 76              jne         00402DEC
  00402D76: 8B 1D 30 80 40 00  mov         ebx,dword ptr ds:[00408030h]
  00402D7C: EB 1A              jmp         00402D98
  00402D7E: 85 FF              test        edi,edi
  00402D80: 75 4E              jne         00402DD0
  00402D82: FF 75 10           push        dword ptr [ebp+10h]
  00402D85: 8D 85 F0 FD FF FF  lea         eax,[ebp+FFFFFDF0h]
  00402D8B: 50                 push        eax
  00402D8C: FF 75 FC           push        dword ptr [ebp-4]
  00402D8F: E8 B0 FF FF FF     call        00402D44
  00402D94: 85 C0              test        eax,eax
  00402D96: 75 17              jne         00402DAF
  00402D98: 8D 85 F0 FD FF FF  lea         eax,[ebp+FFFFFDF0h]
  00402D9E: 68 05 01 00 00     push        105h
  00402DA3: 50                 push        eax
  00402DA4: 6A 00              push        0
  00402DA6: FF 75 FC           push        dword ptr [ebp-4]
  00402DA9: FF D3              call        ebx
  00402DAB: 85 C0              test        eax,eax
  00402DAD: 74 CF              je          00402D7E
  00402DAF: FF 75 FC           push        dword ptr [ebp-4]
  00402DB2: FF 15 24 80 40 00  call        dword ptr ds:[00408024h]
  00402DB8: 6A 03              push        3
  00402DBA: E8 D5 38 00 00     call        00406694
  00402DBF: 85 C0              test        eax,eax
  00402DC1: 74 1D              je          00402DE0
  00402DC3: 6A 00              push        0
  00402DC5: 56                 push        esi
  00402DC6: FF 75 0C           push        dword ptr [ebp+0Ch]
  00402DC9: FF 75 08           push        dword ptr [ebp+8]
  00402DCC: FF D0              call        eax
  00402DCE: EB 1C              jmp         00402DEC
  00402DD0: FF 75 FC           push        dword ptr [ebp-4]
  00402DD3: FF 15 24 80 40 00  call        dword ptr ds:[00408024h]
  00402DD9: B8 EB 03 00 00     mov         eax,3EBh
  00402DDE: EB 0C              jmp         00402DEC
  00402DE0: FF 75 0C           push        dword ptr [ebp+0Ch]
  00402DE3: FF 75 08           push        dword ptr [ebp+8]
  00402DE6: FF 15 1C 80 40 00  call        dword ptr ds:[0040801Ch]
  00402DEC: 5F                 pop         edi
  00402DED: 5E                 pop         esi
  00402DEE: 5B                 pop         ebx
  00402DEF: C9                 leave
  00402DF0: C2 0C 00           ret         0Ch
  00402DF3: 55                 push        ebp
  00402DF4: 8B EC              mov         ebp,esp
  00402DF6: 81 EC 80 00 00 00  sub         esp,80h
  00402DFC: 81 7D 0C 10 01 00  cmp         dword ptr [ebp+0Ch],110h
            00
  00402E03: 75 19              jne         00402E1E
  00402E05: 6A 00              push        0
  00402E07: 68 FA 00 00 00     push        0FAh
  00402E0C: 6A 01              push        1
  00402E0E: FF 75 08           push        dword ptr [ebp+8]
  00402E11: FF 15 58 82 40 00  call        dword ptr ds:[00408258h]
  00402E17: C7 45 0C 13 01 00  mov         dword ptr [ebp+0Ch],113h
            00
  00402E1E: 81 7D 0C 13 01 00  cmp         dword ptr [ebp+0Ch],113h
            00
  00402E25: 75 4C              jne         00402E73
  00402E27: 8B 0D F8 69 41 00  mov         ecx,dword ptr ds:[004169F8h]
  00402E2D: A1 04 2A 42 00     mov         eax,dword ptr ds:[00422A04h]
  00402E32: 3B C8              cmp         ecx,eax
  00402E34: 7C 02              jl          00402E38
  00402E36: 8B C8              mov         ecx,eax
  00402E38: 50                 push        eax
  00402E39: 6A 64              push        64h
  00402E3B: 51                 push        ecx
  00402E3C: FF 15 54 81 40 00  call        dword ptr ds:[00408154h]
  00402E42: 50                 push        eax
  00402E43: 8D 45 80           lea         eax,[ebp-80h]
  00402E46: 68 1C A0 40 00     push        40A01Ch
  00402E4B: 50                 push        eax
  00402E4C: FF 15 90 82 40 00  call        dword ptr ds:[00408290h]
  00402E52: 83 C4 0C           add         esp,0Ch
  00402E55: 8D 45 80           lea         eax,[ebp-80h]
  00402E58: 50                 push        eax
  00402E59: FF 75 08           push        dword ptr [ebp+8]
  00402E5C: FF 15 5C 82 40 00  call        dword ptr ds:[0040825Ch]
  00402E62: 8D 45 80           lea         eax,[ebp-80h]
  00402E65: 50                 push        eax
  00402E66: 68 06 04 00 00     push        406h
  00402E6B: FF 75 08           push        dword ptr [ebp+8]
  00402E6E: E8 8B 2A 00 00     call        004058FE
  00402E73: 33 C0              xor         eax,eax
  00402E75: C9                 leave
  00402E76: C2 10 00           ret         10h
  00402E79: 56                 push        esi
  00402E7A: 33 F6              xor         esi,esi
  00402E7C: 39 74 24 08        cmp         dword ptr [esp+8],esi
  00402E80: 74 18              je          00402E9A
  00402E82: A1 00 2A 42 00     mov         eax,dword ptr ds:[00422A00h]
  00402E87: 3B C6              cmp         eax,esi
  00402E89: 74 07              je          00402E92
  00402E8B: 50                 push        eax
  00402E8C: FF 15 50 82 40 00  call        dword ptr ds:[00408250h]
  00402E92: 89 35 00 2A 42 00  mov         dword ptr ds:[00422A00h],esi
  00402E98: 5E                 pop         esi
  00402E99: C3                 ret
  00402E9A: 39 35 00 2A 42 00  cmp         dword ptr ds:[00422A00h],esi
  00402EA0: 74 08              je          00402EAA
  00402EA2: 56                 push        esi
  00402EA3: E8 28 38 00 00     call        004066D0
  00402EA8: 5E                 pop         esi
  00402EA9: C3                 ret
  00402EAA: FF 15 7C 80 40 00  call        dword ptr ds:[0040807Ch]
  00402EB0: 3B 05 F0 4E 43 00  cmp         eax,dword ptr ds:[00434EF0h]
  00402EB6: 76 23              jbe         00402EDB
  00402EB8: 56                 push        esi
  00402EB9: 68 F3 2D 40 00     push        402DF3h
  00402EBE: 56                 push        esi
  00402EBF: 6A 6F              push        6Fh
  00402EC1: FF 35 E0 4E 43 00  push        dword ptr ds:[00434EE0h]
  00402EC7: FF 15 88 82 40 00  call        dword ptr ds:[00408288h]
  00402ECD: 6A 05              push        5
  00402ECF: 50                 push        eax
  00402ED0: A3 00 2A 42 00     mov         dword ptr ds:[00422A00h],eax
  00402ED5: FF 15 68 82 40 00  call        dword ptr ds:[00408268h]
  00402EDB: 5E                 pop         esi
  00402EDC: C3                 ret
  00402EDD: 55                 push        ebp
  00402EDE: 8B EC              mov         ebp,esp
  00402EE0: 83 EC 28           sub         esp,28h
  00402EE3: 53                 push        ebx
  00402EE4: 56                 push        esi
  00402EE5: 33 DB              xor         ebx,ebx
  00402EE7: 57                 push        edi
  00402EE8: 89 5D F8           mov         dword ptr [ebp-8],ebx
  00402EEB: 89 5D FC           mov         dword ptr [ebp-4],ebx
  00402EEE: FF 15 7C 80 40 00  call        dword ptr ds:[0040807Ch]
  00402EF4: BE 00 28 44 00     mov         esi,442800h
  00402EF9: 68 00 04 00 00     push        400h
  00402EFE: 05 E8 03 00 00     add         eax,3E8h
  00402F03: 56                 push        esi
  00402F04: 53                 push        ebx
  00402F05: A3 F0 4E 43 00     mov         dword ptr ds:[00434EF0h],eax
  00402F0A: FF 15 84 80 40 00  call        dword ptr ds:[00408084h]
  00402F10: 6A 03              push        3
  00402F12: 68 00 00 00 80     push        80000000h
  00402F17: 56                 push        esi
  00402F18: E8 93 2E 00 00     call        00405DB0
  00402F1D: 8B F8              mov         edi,eax
  00402F1F: 83 FF FF           cmp         edi,0FFFFFFFFh
  00402F22: 89 7D F4           mov         dword ptr [ebp-0Ch],edi
  00402F25: 89 3D 18 A0 40 00  mov         dword ptr ds:[0040A018h],edi
  00402F2B: 75 0A              jne         00402F37
  00402F2D: B8 E8 A1 40 00     mov         eax,40A1E8h
  00402F32: E9 D8 01 00 00     jmp         0040310F
  00402F37: 56                 push        esi
  00402F38: BE 00 08 44 00     mov         esi,440800h
  00402F3D: 56                 push        esi
  00402F3E: E8 77 33 00 00     call        004062BA
  00402F43: 56                 push        esi
  00402F44: E8 92 2C 00 00     call        00405BDB
  00402F49: 50                 push        eax
  00402F4A: 68 00 30 44 00     push        443000h
  00402F4F: E8 66 33 00 00     call        004062BA
  00402F54: 53                 push        ebx
  00402F55: 57                 push        edi
  00402F56: FF 15 80 80 40 00  call        dword ptr ds:[00408080h]
  00402F5C: 3B C3              cmp         eax,ebx
  00402F5E: A3 04 2A 42 00     mov         dword ptr ds:[00422A04h],eax
  00402F63: 8B F0              mov         esi,eax
  00402F65: 0F 8E E7 00 00 00  jle         00403052
  00402F6B: BB 08 2A 42 00     mov         ebx,422A08h
  00402F70: A1 F8 4E 43 00     mov         eax,dword ptr ds:[00434EF8h]
  00402F75: 8B FE              mov         edi,esi
  00402F77: F7 D8              neg         eax
  00402F79: 1B C0              sbb         eax,eax
  00402F7B: 25 00 7E 00 00     and         eax,7E00h
  00402F80: 05 00 02 00 00     add         eax,200h
  00402F85: 3B F0              cmp         esi,eax
  00402F87: 7C 02              jl          00402F8B
  00402F89: 8B F8              mov         edi,eax
  00402F8B: 57                 push        edi
  00402F8C: 53                 push        ebx
  00402F8D: E8 9F 03 00 00     call        00403331
  00402F92: 85 C0              test        eax,eax
  00402F94: 0F 84 22 01 00 00  je          004030BC
  00402F9A: 83 3D F8 4E 43 00  cmp         dword ptr ds:[00434EF8h],0
            00
  00402FA1: 75 7A              jne         0040301D
  00402FA3: 6A 1C              push        1Ch
  00402FA5: 8D 45 D8           lea         eax,[ebp-28h]
  00402FA8: 53                 push        ebx
  00402FA9: 50                 push        eax
  00402FAA: E8 BC 2D 00 00     call        00405D6B
  00402FAF: 8B 45 D8           mov         eax,dword ptr [ebp-28h]
  00402FB2: A9 F0 FF FF FF     test        eax,0FFFFFFF0h
  00402FB7: 75 72              jne         0040302B
  00402FB9: 81 7D DC EF BE AD  cmp         dword ptr [ebp-24h],0DEADBEEFh
            DE
  00402FC0: 75 69              jne         0040302B
  00402FC2: 81 7D E8 49 6E 73  cmp         dword ptr [ebp-18h],74736E49h
            74
  00402FC9: 75 60              jne         0040302B
  00402FCB: 81 7D E4 73 6F 66  cmp         dword ptr [ebp-1Ch],74666F73h
            74
  00402FD2: 75 57              jne         0040302B
  00402FD4: 81 7D E0 4E 75 6C  cmp         dword ptr [ebp-20h],6C6C754Eh
            6C
  00402FDB: 75 4E              jne         0040302B
  00402FDD: 09 45 08           or          dword ptr [ebp+8],eax
  00402FE0: 8B 45 08           mov         eax,dword ptr [ebp+8]
  00402FE3: 8B 0D F8 69 41 00  mov         ecx,dword ptr ds:[004169F8h]
  00402FE9: 83 E0 02           and         eax,2
  00402FEC: 09 05 A0 4F 43 00  or          dword ptr ds:[00434FA0h],eax
  00402FF2: 8B 45 F0           mov         eax,dword ptr [ebp-10h]
  00402FF5: 3B C6              cmp         eax,esi
  00402FF7: 89 0D F8 4E 43 00  mov         dword ptr ds:[00434EF8h],ecx
  00402FFD: 0F 8F B2 00 00 00  jg          004030B5
  00403003: F6 45 08 08        test        byte ptr [ebp+8],8
  00403007: 75 06              jne         0040300F
  00403009: F6 45 08 04        test        byte ptr [ebp+8],4
  0040300D: 75 41              jne         00403050
  0040300F: FF 45 FC           inc         dword ptr [ebp-4]
  00403012: 8D 70 FC           lea         esi,[eax-4]
  00403015: 3B FE              cmp         edi,esi
  00403017: 76 12              jbe         0040302B
  00403019: 8B FE              mov         edi,esi
  0040301B: EB 0E              jmp         0040302B
  0040301D: F6 45 08 02        test        byte ptr [ebp+8],2
  00403021: 75 08              jne         0040302B
  00403023: 6A 00              push        0
  00403025: E8 4F FE FF FF     call        00402E79
  0040302A: 59                 pop         ecx
  0040302B: 3B 35 04 2A 42 00  cmp         esi,dword ptr ds:[00422A04h]
  00403031: 7D 0D              jge         00403040
  00403033: 57                 push        edi
  00403034: 53                 push        ebx
  00403035: FF 75 F8           push        dword ptr [ebp-8]
  00403038: E8 4A 37 00 00     call        00406787
  0040303D: 89 45 F8           mov         dword ptr [ebp-8],eax
  00403040: 01 3D F8 69 41 00  add         dword ptr ds:[004169F8h],edi
  00403046: 2B F7              sub         esi,edi
  00403048: 85 F6              test        esi,esi
  0040304A: 0F 8F 20 FF FF FF  jg          00402F70
  00403050: 33 DB              xor         ebx,ebx
  00403052: 6A 01              push        1
  00403054: E8 20 FE FF FF     call        00402E79
  00403059: 39 1D F8 4E 43 00  cmp         dword ptr ds:[00434EF8h],ebx
  0040305F: 59                 pop         ecx
  00403060: 74 53              je          004030B5
  00403062: 39 5D FC           cmp         dword ptr [ebp-4],ebx
  00403065: 74 22              je          00403089
  00403067: FF 35 F8 69 41 00  push        dword ptr ds:[004169F8h]
  0040306D: E8 D5 02 00 00     call        00403347
  00403072: 8D 45 08           lea         eax,[ebp+8]
  00403075: 6A 04              push        4
  00403077: 50                 push        eax
  00403078: E8 B4 02 00 00     call        00403331
  0040307D: 85 C0              test        eax,eax
  0040307F: 74 34              je          004030B5
  00403081: 8B 45 F8           mov         eax,dword ptr [ebp-8]
  00403084: 3B 45 08           cmp         eax,dword ptr [ebp+8]
  00403087: 75 2C              jne         004030B5
  00403089: FF 75 EC           push        dword ptr [ebp-14h]
  0040308C: 6A 40              push        40h
  0040308E: FF 15 34 81 40 00  call        dword ptr ds:[00408134h]
  00403094: 8B F0              mov         esi,eax
  00403096: A1 F8 4E 43 00     mov         eax,dword ptr ds:[00434EF8h]
  0040309B: 83 C0 1C           add         eax,1Ch
  0040309E: 50                 push        eax
  0040309F: E8 A3 02 00 00     call        00403347
  004030A4: FF 75 EC           push        dword ptr [ebp-14h]
  004030A7: 56                 push        esi
  004030A8: 53                 push        ebx
  004030A9: 6A FF              push        0FFFFFFFFh
  004030AB: E8 66 00 00 00     call        00403116
  004030B0: 3B 45 EC           cmp         eax,dword ptr [ebp-14h]
  004030B3: 74 11              je          004030C6
  004030B5: B8 50 A0 40 00     mov         eax,40A050h
  004030BA: EB 53              jmp         0040310F
  004030BC: 6A 01              push        1
  004030BE: E8 B6 FD FF FF     call        00402E79
  004030C3: 59                 pop         ecx
  004030C4: EB EF              jmp         004030B5
  004030C6: F6 45 D8 01        test        byte ptr [ebp-28h],1
  004030CA: 89 35 F4 4E 43 00  mov         dword ptr ds:[00434EF4h],esi
  004030D0: 8B 06              mov         eax,dword ptr [esi]
  004030D2: A3 FC 4E 43 00     mov         dword ptr ds:[00434EFCh],eax
  004030D7: 74 06              je          004030DF
  004030D9: FF 05 00 4F 43 00  inc         dword ptr ds:[00434F00h]
  004030DF: 6A 08              push        8
  004030E1: 8D 46 44           lea         eax,[esi+44h]
  004030E4: 59                 pop         ecx
  004030E5: 83 E8 08           sub         eax,8
  004030E8: 01 30              add         dword ptr [eax],esi
  004030EA: 49                 dec         ecx
  004030EB: 75 F8              jne         004030E5
  004030ED: 6A 01              push        1
  004030EF: 53                 push        ebx
  004030F0: 53                 push        ebx
  004030F1: FF 75 F4           push        dword ptr [ebp-0Ch]
  004030F4: FF 15 44 81 40 00  call        dword ptr ds:[00408144h]
  004030FA: 89 46 3C           mov         dword ptr [esi+3Ch],eax
  004030FD: 83 C6 04           add         esi,4
  00403100: 6A 40              push        40h
  00403102: 56                 push        esi
  00403103: 68 20 4F 43 00     push        434F20h
  00403108: E8 5E 2C 00 00     call        00405D6B
  0040310D: 33 C0              xor         eax,eax
  0040310F: 5F                 pop         edi
  00403110: 5E                 pop         esi
  00403111: 5B                 pop         ebx
  00403112: C9                 leave
  00403113: C2 04 00           ret         4
  00403116: 55                 push        ebp
  00403117: 8B EC              mov         ebp,esp
  00403119: 81 EC 94 00 00 00  sub         esp,94h
  0040311F: 53                 push        ebx
  00403120: 56                 push        esi
  00403121: 8B 75 14           mov         esi,dword ptr [ebp+14h]
  00403124: 57                 push        edi
  00403125: 8B 7D 10           mov         edi,dword ptr [ebp+10h]
  00403128: 89 75 F8           mov         dword ptr [ebp-8],esi
  0040312B: 85 FF              test        edi,edi
  0040312D: 75 07              jne         00403136
  0040312F: C7 45 F8 00 80 00  mov         dword ptr [ebp-8],8000h
            00
  00403136: 83 65 FC 00        and         dword ptr [ebp-4],0
  0040313A: 89 7D F4           mov         dword ptr [ebp-0Ch],edi
  0040313D: 85 FF              test        edi,edi
  0040313F: 75 07              jne         00403148
  00403141: C7 45 F4 00 AA 41  mov         dword ptr [ebp-0Ch],41AA00h
            00
  00403148: 8B 45 08           mov         eax,dword ptr [ebp+8]
  0040314B: 85 C0              test        eax,eax
  0040314D: 7C 0E              jl          0040315D
  0040314F: 8B 0D 58 4F 43 00  mov         ecx,dword ptr ds:[00434F58h]
  00403155: 03 C8              add         ecx,eax
  00403157: 51                 push        ecx
  00403158: E8 EA 01 00 00     call        00403347
  0040315D: 8D 45 14           lea         eax,[ebp+14h]
  00403160: 6A 04              push        4
  00403162: 50                 push        eax
  00403163: E8 C9 01 00 00     call        00403331
  00403168: 85 C0              test        eax,eax
  0040316A: 0F 84 AF 01 00 00  je          0040331F
  00403170: F6 45 17 80        test        byte ptr [ebp+17h],80h
  00403174: 0F 84 50 01 00 00  je          004032CA
  0040317A: 8B 1D 7C 80 40 00  mov         ebx,dword ptr ds:[0040807Ch]
  00403180: FF D3              call        ebx
  00403182: 83 25 64 D3 40 00  and         dword ptr ds:[0040D364h],0
            00
  00403189: 83 25 60 D3 40 00  and         dword ptr ds:[0040D360h],0
            00
  00403190: 81 65 14 FF FF FF  and         dword ptr [ebp+14h],7FFFFFFFh
            7F
  00403197: 89 45 F0           mov         dword ptr [ebp-10h],eax
  0040319A: B8 E8 E9 40 00     mov         eax,40E9E8h
  0040319F: C7 05 48 CE 40 00  mov         dword ptr ds:[0040CE48h],8
            08 00 00 00
  004031A9: A3 F0 69 41 00     mov         dword ptr ds:[004169F0h],eax
  004031AE: A3 EC 69 41 00     mov         dword ptr ds:[004169ECh],eax
  004031B3: 8B 45 14           mov         eax,dword ptr [ebp+14h]
  004031B6: C7 05 E8 69 41 00  mov         dword ptr ds:[004169E8h],4169E8h
            E8 69 41 00
  004031C0: 89 45 08           mov         dword ptr [ebp+8],eax
  004031C3: 0F 8E 5E 01 00 00  jle         00403327
  004031C9: BE 00 40 00 00     mov         esi,4000h
  004031CE: 39 75 14           cmp         dword ptr [ebp+14h],esi
  004031D1: 7D 03              jge         004031D6
  004031D3: 8B 75 14           mov         esi,dword ptr [ebp+14h]
  004031D6: BF 00 6A 41 00     mov         edi,416A00h
  004031DB: 56                 push        esi
  004031DC: 57                 push        edi
  004031DD: E8 4F 01 00 00     call        00403331
  004031E2: 85 C0              test        eax,eax
  004031E4: 0F 84 35 01 00 00  je          0040331F
  004031EA: 29 75 14           sub         dword ptr [ebp+14h],esi
  004031ED: 89 3D 38 CE 40 00  mov         dword ptr ds:[0040CE38h],edi
  004031F3: 89 35 3C CE 40 00  mov         dword ptr ds:[0040CE3Ch],esi
  004031F9: 8B 7D F4           mov         edi,dword ptr [ebp-0Ch]
  004031FC: 8B 45 F8           mov         eax,dword ptr [ebp-8]
  004031FF: 68 38 CE 40 00     push        40CE38h
  00403204: 89 3D 40 CE 40 00  mov         dword ptr ds:[0040CE40h],edi
  0040320A: A3 44 CE 40 00     mov         dword ptr ds:[0040CE44h],eax
  0040320F: E8 E1 35 00 00     call        004067F5
  00403214: 85 C0              test        eax,eax
  00403216: 89 45 EC           mov         dword ptr [ebp-14h],eax
  00403219: 0F 8C A3 00 00 00  jl          004032C2
  0040321F: 8B 35 40 CE 40 00  mov         esi,dword ptr ds:[0040CE40h]
  00403225: 2B F7              sub         esi,edi
  00403227: FF D3              call        ebx
  00403229: F6 05 B4 4F 43 00  test        byte ptr ds:[00434FB4h],1
            01
  00403230: 8B F8              mov         edi,eax
  00403232: 74 49              je          0040327D
  00403234: 2B 45 F0           sub         eax,dword ptr [ebp-10h]
  00403237: 3D C8 00 00 00     cmp         eax,0C8h
  0040323C: 77 06              ja          00403244
  0040323E: 83 7D 14 00        cmp         dword ptr [ebp+14h],0
  00403242: 75 39              jne         0040327D
  00403244: 8B 45 08           mov         eax,dword ptr [ebp+8]
  00403247: FF 75 08           push        dword ptr [ebp+8]
  0040324A: 2B 45 14           sub         eax,dword ptr [ebp+14h]
  0040324D: 6A 64              push        64h
  0040324F: 50                 push        eax
  00403250: FF 15 54 81 40 00  call        dword ptr ds:[00408154h]
  00403256: 50                 push        eax
  00403257: 8D 85 6C FF FF FF  lea         eax,[ebp+FFFFFF6Ch]
  0040325D: 68 1C A2 40 00     push        40A21Ch
  00403262: 50                 push        eax
  00403263: FF 15 90 82 40 00  call        dword ptr ds:[00408290h]
  00403269: 83 C4 0C           add         esp,0Ch
  0040326C: 8D 85 6C FF FF FF  lea         eax,[ebp+FFFFFF6Ch]
  00403272: 50                 push        eax
  00403273: 6A 00              push        0
  00403275: E8 A8 20 00 00     call        00405322
  0040327A: 89 7D F0           mov         dword ptr [ebp-10h],edi
  0040327D: 85 F6              test        esi,esi
  0040327F: 74 35              je          004032B6
  00403281: 83 7D 10 00        cmp         dword ptr [ebp+10h],0
  00403285: 75 15              jne         0040329C
  00403287: 56                 push        esi
  00403288: FF 75 F4           push        dword ptr [ebp-0Ch]
  0040328B: FF 75 0C           push        dword ptr [ebp+0Ch]
  0040328E: E8 CF 2B 00 00     call        00405E62
  00403293: 85 C0              test        eax,eax
  00403295: 74 2F              je          004032C6
  00403297: 01 75 FC           add         dword ptr [ebp-4],esi
  0040329A: EB 0E              jmp         004032AA
  0040329C: A1 40 CE 40 00     mov         eax,dword ptr ds:[0040CE40h]
  004032A1: 01 75 FC           add         dword ptr [ebp-4],esi
  004032A4: 29 75 F8           sub         dword ptr [ebp-8],esi
  004032A7: 89 45 F4           mov         dword ptr [ebp-0Ch],eax
  004032AA: 83 7D EC 01        cmp         dword ptr [ebp-14h],1
  004032AE: 0F 85 45 FF FF FF  jne         004031F9
  004032B4: EB 71              jmp         00403327
  004032B6: 83 7D 14 00        cmp         dword ptr [ebp+14h],0
  004032BA: 0F 8F 09 FF FF FF  jg          004031C9
  004032C0: EB 65              jmp         00403327
  004032C2: 6A FC              push        0FFFFFFFCh
  004032C4: EB 5B              jmp         00403321
  004032C6: 6A FE              push        0FFFFFFFEh
  004032C8: EB 57              jmp         00403321
  004032CA: 85 FF              test        edi,edi
  004032CC: 75 3E              jne         0040330C
  004032CE: 39 7D 14           cmp         dword ptr [ebp+14h],edi
  004032D1: 7E 54              jle         00403327
  004032D3: 8B 5D F8           mov         ebx,dword ptr [ebp-8]
  004032D6: 39 5D 14           cmp         dword ptr [ebp+14h],ebx
  004032D9: 8B 75 14           mov         esi,dword ptr [ebp+14h]
  004032DC: 7C 02              jl          004032E0
  004032DE: 8B F3              mov         esi,ebx
  004032E0: BF 00 6A 41 00     mov         edi,416A00h
  004032E5: 56                 push        esi
  004032E6: 57                 push        edi
  004032E7: E8 45 00 00 00     call        00403331
  004032EC: 85 C0              test        eax,eax
  004032EE: 74 2F              je          0040331F
  004032F0: 56                 push        esi
  004032F1: 57                 push        edi
  004032F2: FF 75 0C           push        dword ptr [ebp+0Ch]
  004032F5: E8 68 2B 00 00     call        00405E62
  004032FA: 85 C0              test        eax,eax
  004032FC: 74 C8              je          004032C6
  004032FE: 01 75 FC           add         dword ptr [ebp-4],esi
  00403301: 29 75 14           sub         dword ptr [ebp+14h],esi
  00403304: 83 7D 14 00        cmp         dword ptr [ebp+14h],0
  00403308: 7F CC              jg          004032D6
  0040330A: EB 1B              jmp         00403327
  0040330C: 39 75 14           cmp         dword ptr [ebp+14h],esi
  0040330F: 7D 03              jge         00403314
  00403311: 8B 75 14           mov         esi,dword ptr [ebp+14h]
  00403314: 56                 push        esi
  00403315: 57                 push        edi
  00403316: E8 16 00 00 00     call        00403331
  0040331B: 85 C0              test        eax,eax
  0040331D: 75 05              jne         00403324
  0040331F: 6A FD              push        0FFFFFFFDh
  00403321: 58                 pop         eax
  00403322: EB 06              jmp         0040332A
  00403324: 89 75 FC           mov         dword ptr [ebp-4],esi
  00403327: 8B 45 FC           mov         eax,dword ptr [ebp-4]
  0040332A: 5F                 pop         edi
  0040332B: 5E                 pop         esi
  0040332C: 5B                 pop         ebx
  0040332D: C9                 leave
  0040332E: C2 10 00           ret         10h
  00403331: FF 74 24 08        push        dword ptr [esp+8]
  00403335: FF 74 24 08        push        dword ptr [esp+8]
  00403339: FF 35 18 A0 40 00  push        dword ptr ds:[0040A018h]
  0040333F: E8 EF 2A 00 00     call        00405E33
  00403344: C2 08 00           ret         8
  00403347: 6A 00              push        0
  00403349: 6A 00              push        0
  0040334B: FF 74 24 0C        push        dword ptr [esp+0Ch]
  0040334F: FF 35 18 A0 40 00  push        dword ptr ds:[0040A018h]
  00403355: FF 15 44 81 40 00  call        dword ptr ds:[00408144h]
  0040335B: C2 04 00           ret         4
  0040335E: 56                 push        esi
  0040335F: BE 00 18 44 00     mov         esi,441800h
  00403364: 56                 push        esi
  00403365: E8 E4 31 00 00     call        0040654E
  0040336A: 56                 push        esi
  0040336B: E8 96 28 00 00     call        00405C06
  00403370: 85 C0              test        eax,eax
  00403372: 75 02              jne         00403376
  00403374: 5E                 pop         esi
  00403375: C3                 ret
  00403376: 56                 push        esi
  00403377: E8 13 28 00 00     call        00405B8F
  0040337C: 56                 push        esi
  0040337D: E8 EC 24 00 00     call        0040586E
  00403382: 56                 push        esi
  00403383: 68 00 10 44 00     push        441000h
  00403388: E8 52 2A 00 00     call        00405DDF
  0040338D: 5E                 pop         esi
  0040338E: C3                 ret
  0040338F: 81 EC D4 02 00 00  sub         esp,2D4h
  00403395: 53                 push        ebx
  00403396: 56                 push        esi
  00403397: 57                 push        edi
  00403398: 6A 20              push        20h
  0040339A: 5F                 pop         edi
  0040339B: 33 DB              xor         ebx,ebx
  0040339D: 68 01 80 00 00     push        8001h
  004033A2: 89 5C 24 14        mov         dword ptr [esp+14h],ebx
  004033A6: C7 44 24 10 E0 A2  mov         dword ptr [esp+10h],40A2E0h
            40 00
  004033AE: 89 5C 24 1C        mov         dword ptr [esp+1Ch],ebx
  004033B2: FF 15 A8 80 40 00  call        dword ptr ds:[004080A8h]
  004033B8: FF 15 A4 80 40 00  call        dword ptr ds:[004080A4h]
  004033BE: 25 FF FF FF BF     and         eax,0BFFFFFFFh
  004033C3: 66 3D 06 00        cmp         ax,6
  004033C7: A3 EC 4E 43 00     mov         dword ptr ds:[00434EECh],eax
  004033CC: 74 11              je          004033DF
  004033CE: 53                 push        ebx
  004033CF: E8 C0 32 00 00     call        00406694
  004033D4: 3B C3              cmp         eax,ebx
  004033D6: 74 07              je          004033DF
  004033D8: 68 00 0C 00 00     push        0C00h
  004033DD: FF D0              call        eax
  004033DF: BE B0 82 40 00     mov         esi,4082B0h
  004033E4: 56                 push        esi
  004033E5: E8 3A 32 00 00     call        00406624
  004033EA: 56                 push        esi
  004033EB: FF 15 50 81 40 00  call        dword ptr ds:[00408150h]
  004033F1: 8D 74 06 01        lea         esi,[esi+eax+1]
  004033F5: 80 3E 00           cmp         byte ptr [esi],0
  004033F8: 75 EA              jne         004033E4
  004033FA: 6A 0A              push        0Ah
  004033FC: E8 93 32 00 00     call        00406694
  00403401: 6A 08              push        8
  00403403: E8 8C 32 00 00     call        00406694
  00403408: 6A 06              push        6
  0040340A: A3 E4 4E 43 00     mov         dword ptr ds:[00434EE4h],eax
  0040340F: E8 80 32 00 00     call        00406694
  00403414: 3B C3              cmp         eax,ebx
  00403416: 74 0F              je          00403427
  00403418: 6A 1E              push        1Eh
  0040341A: FF D0              call        eax
  0040341C: 85 C0              test        eax,eax
  0040341E: 74 07              je          00403427
  00403420: 80 0D EF 4E 43 00  or          byte ptr ds:[00434EEFh],40h
            40
  00403427: 55                 push        ebp
  00403428: FF 15 44 80 40 00  call        dword ptr ds:[00408044h]
  0040342E: 53                 push        ebx
  0040342F: FF 15 A0 82 40 00  call        dword ptr ds:[004082A0h]
  00403435: A3 B8 4F 43 00     mov         dword ptr ds:[00434FB8h],eax
  0040343A: 53                 push        ebx
  0040343B: 8D 44 24 34        lea         eax,[esp+34h]
  0040343F: 68 B4 02 00 00     push        2B4h
  00403444: 50                 push        eax
  00403445: 53                 push        ebx
  00403446: 68 08 B2 42 00     push        42B208h
  0040344B: FF 15 88 81 40 00  call        dword ptr ds:[00408188h]
  00403451: 68 C8 A2 40 00     push        40A2C8h
  00403456: 68 E0 3E 43 00     push        433EE0h
  0040345B: E8 5A 2E 00 00     call        004062BA
  00403460: FF 15 A0 80 40 00  call        dword ptr ds:[004080A0h]
  00403466: BD 00 F0 43 00     mov         ebp,43F000h
  0040346B: 50                 push        eax
  0040346C: 55                 push        ebp
  0040346D: E8 48 2E 00 00     call        004062BA
  00403472: 66 83 3D 00 F0 43  cmp         word ptr ds:[0043F000h],22h
            00 22
  0040347A: C7 05 E0 4E 43 00  mov         dword ptr ds:[00434EE0h],400000h
            00 00 40 00
  00403484: 8B C5              mov         eax,ebp
  00403486: 75 08              jne         00403490
  00403488: 6A 22              push        22h
  0040348A: B8 02 F0 43 00     mov         eax,43F002h
  0040348F: 5F                 pop         edi
  00403490: 57                 push        edi
  00403491: 50                 push        eax
  00403492: E8 25 27 00 00     call        00405BBC
  00403497: 50                 push        eax
  00403498: FF 15 48 82 40 00  call        dword ptr ds:[00408248h]
  0040349E: 8B C8              mov         ecx,eax
  004034A0: 89 4C 24 18        mov         dword ptr [esp+18h],ecx
  004034A4: 66 8B 01           mov         ax,word ptr [ecx]
  004034A7: 66 3B C3           cmp         ax,bx
  004034AA: 0F 84 11 01 00 00  je          004035C1
  004034B0: 6A 20              push        20h
  004034B2: 5B                 pop         ebx
  004034B3: 66 3B C3           cmp         ax,bx
  004034B6: 75 07              jne         004034BF
  004034B8: 41                 inc         ecx
  004034B9: 41                 inc         ecx
  004034BA: 66 39 19           cmp         word ptr [ecx],bx
  004034BD: 74 F9              je          004034B8
  004034BF: 66 83 39 22        cmp         word ptr [ecx],22h
  004034C3: 75 05              jne         004034CA
  004034C5: 41                 inc         ecx
  004034C6: 6A 22              push        22h
  004034C8: 41                 inc         ecx
  004034C9: 5B                 pop         ebx
  004034CA: 66 83 39 2F        cmp         word ptr [ecx],2Fh
  004034CE: 0F 85 B9 00 00 00  jne         0040358D
  004034D4: 41                 inc         ecx
  004034D5: 41                 inc         ecx
  004034D6: 66 83 39 53        cmp         word ptr [ecx],53h
  004034DA: 75 19              jne         004034F5
  004034DC: 66 8B 41 02        mov         ax,word ptr [ecx+2]
  004034E0: 66 3D 20 00        cmp         ax,20h
  004034E4: 74 05              je          004034EB
  004034E6: 66 85 C0           test        ax,ax
  004034E9: 75 0A              jne         004034F5
  004034EB: C7 05 A0 4F 43 00  mov         dword ptr ds:[00434FA0h],1
            01 00 00 00
  004034F5: 0F B7 05 C2 A2 40  movzx       eax,word ptr ds:[0040A2C2h]
            00
  004034FC: 99                 cdq
  004034FD: 0F A4 C2 10        shld        edx,eax,10h
  00403501: C1 E0 10           shl         eax,10h
  00403504: 8B F8              mov         edi,eax
  00403506: 33 F6              xor         esi,esi
  00403508: 0F B7 05 C0 A2 40  movzx       eax,word ptr ds:[0040A2C0h]
            00
  0040350F: 99                 cdq
  00403510: 0F B7 15 BC A2 40  movzx       edx,word ptr ds:[0040A2BCh]
            00
  00403517: 0B F8              or          edi,eax
  00403519: 0F B7 05 BE A2 40  movzx       eax,word ptr ds:[0040A2BEh]
            00
  00403520: C1 E0 10           shl         eax,10h
  00403523: 0B C2              or          eax,edx
  00403525: 99                 cdq
  00403526: 0B F0              or          esi,eax
  00403528: 8B 01              mov         eax,dword ptr [ecx]
  0040352A: 0B FA              or          edi,edx
  0040352C: 3B C6              cmp         eax,esi
  0040352E: 75 1B              jne         0040354B
  00403530: 8B 41 04           mov         eax,dword ptr [ecx+4]
  00403533: 3B C7              cmp         eax,edi
  00403535: 75 14              jne         0040354B
  00403537: 66 8B 41 08        mov         ax,word ptr [ecx+8]
  0040353B: 66 3D 20 00        cmp         ax,20h
  0040353F: 74 05              je          00403546
  00403541: 66 85 C0           test        ax,ax
  00403544: 75 05              jne         0040354B
  00403546: 83 4C 24 1C 04     or          dword ptr [esp+1Ch],4
  0040354B: 0F B7 05 B6 A2 40  movzx       eax,word ptr ds:[0040A2B6h]
            00
  00403552: 99                 cdq
  00403553: 0F A4 C2 10        shld        edx,eax,10h
  00403557: C1 E0 10           shl         eax,10h
  0040355A: 8B F8              mov         edi,eax
  0040355C: 33 F6              xor         esi,esi
  0040355E: 0F B7 05 B4 A2 40  movzx       eax,word ptr ds:[0040A2B4h]
            00
  00403565: 99                 cdq
  00403566: 0F B7 15 B0 A2 40  movzx       edx,word ptr ds:[0040A2B0h]
            00
  0040356D: 0B F8              or          edi,eax
  0040356F: 0F B7 05 B2 A2 40  movzx       eax,word ptr ds:[0040A2B2h]
            00
  00403576: C1 E0 10           shl         eax,10h
  00403579: 0B C2              or          eax,edx
  0040357B: 99                 cdq
  0040357C: 0B F0              or          esi,eax
  0040357E: 8B 41 FC           mov         eax,dword ptr [ecx-4]
  00403581: 0B FA              or          edi,edx
  00403583: 3B C6              cmp         eax,esi
  00403585: 75 06              jne         0040358D
  00403587: 8B 01              mov         eax,dword ptr [ecx]
  00403589: 3B C7              cmp         eax,edi
  0040358B: 74 1F              je          004035AC
  0040358D: 53                 push        ebx
  0040358E: 51                 push        ecx
  0040358F: E8 28 26 00 00     call        00405BBC
  00403594: 8B C8              mov         ecx,eax
  00403596: 66 83 39 22        cmp         word ptr [ecx],22h
  0040359A: 75 02              jne         0040359E
  0040359C: 41                 inc         ecx
  0040359D: 41                 inc         ecx
  0040359E: 66 8B 01           mov         ax,word ptr [ecx]
  004035A1: 66 85 C0           test        ax,ax
  004035A4: 0F 85 06 FF FF FF  jne         004034B0
  004035AA: EB 13              jmp         004035BF
  004035AC: 66 83 61 FC 00     and         word ptr [ecx-4],0
  004035B1: 83 C1 04           add         ecx,4
  004035B4: 51                 push        ecx
  004035B5: 68 00 F8 43 00     push        43F800h
  004035BA: E8 FB 2C 00 00     call        004062BA
  004035BF: 33 DB              xor         ebx,ebx
  004035C1: 8B 35 9C 80 40 00  mov         esi,dword ptr ds:[0040809Ch]
  004035C7: BF 00 18 44 00     mov         edi,441800h
  004035CC: 57                 push        edi
  004035CD: 68 00 04 00 00     push        400h
  004035D2: FF D6              call        esi
  004035D4: E8 85 FD FF FF     call        0040335E
  004035D9: 85 C0              test        eax,eax
  004035DB: 75 56              jne         00403633
  004035DD: 68 FB 03 00 00     push        3FBh
  004035E2: 57                 push        edi
  004035E3: FF 15 98 80 40 00  call        dword ptr ds:[00408098h]
  004035E9: 68 A4 A2 40 00     push        40A2A4h
  004035EE: 57                 push        edi
  004035EF: E8 E2 2C 00 00     call        004062D6
  004035F4: E8 65 FD FF FF     call        0040335E
  004035F9: 85 C0              test        eax,eax
  004035FB: 75 36              jne         00403633
  004035FD: 57                 push        edi
  004035FE: 68 FC 03 00 00     push        3FCh
  00403603: FF D6              call        esi
  00403605: 68 9C A2 40 00     push        40A29Ch
  0040360A: 57                 push        edi
  0040360B: E8 C6 2C 00 00     call        004062D6
  00403610: 8B 35 70 80 40 00  mov         esi,dword ptr ds:[00408070h]
  00403616: 57                 push        edi
  00403617: 68 90 A2 40 00     push        40A290h
  0040361C: FF D6              call        esi
  0040361E: 57                 push        edi
  0040361F: 68 88 A2 40 00     push        40A288h
  00403624: FF D6              call        esi
  00403626: E8 33 FD FF FF     call        0040335E
  0040362B: 85 C0              test        eax,eax
  0040362D: 0F 84 CB 00 00 00  je          004036FE
  00403633: 68 00 10 44 00     push        441000h
  00403638: FF 15 40 81 40 00  call        dword ptr ds:[00408140h]
  0040363E: FF 74 24 1C        push        dword ptr [esp+1Ch]
  00403642: E8 96 F8 FF FF     call        00402EDD
  00403647: 3B C3              cmp         eax,ebx
  00403649: 89 44 24 10        mov         dword ptr [esp+10h],eax
  0040364D: 0F 85 AB 00 00 00  jne         004036FE
  00403653: 39 1D 00 4F 43 00  cmp         dword ptr ds:[00434F00h],ebx
  00403659: 0F 84 8F 00 00 00  je          004036EE
  0040365F: 53                 push        ebx
  00403660: 55                 push        ebp
  00403661: E8 56 25 00 00     call        00405BBC
  00403666: 8B F0              mov         esi,eax
  00403668: 3B F5              cmp         esi,ebp
  0040366A: 72 4C              jb          004036B8
  0040366C: 0F B7 05 82 A2 40  movzx       eax,word ptr ds:[0040A282h]
            00
  00403673: 99                 cdq
  00403674: 0F A4 C2 10        shld        edx,eax,10h
  00403678: C1 E0 10           shl         eax,10h
  0040367B: 8B D8              mov         ebx,eax
  0040367D: 0F B7 05 80 A2 40  movzx       eax,word ptr ds:[0040A280h]
            00
  00403684: 0F B7 0D 7C A2 40  movzx       ecx,word ptr ds:[0040A27Ch]
            00
  0040368B: 99                 cdq
  0040368C: 0B D8              or          ebx,eax
  0040368E: 0F B7 05 7E A2 40  movzx       eax,word ptr ds:[0040A27Eh]
            00
  00403695: C1 E0 10           shl         eax,10h
  00403698: 0B C1              or          eax,ecx
  0040369A: 33 C9              xor         ecx,ecx
  0040369C: 99                 cdq
  0040369D: 0B C8              or          ecx,eax
  0040369F: 8B C3              mov         eax,ebx
  004036A1: 0B C2              or          eax,edx
  004036A3: 8B 16              mov         edx,dword ptr [esi]
  004036A5: 3B D1              cmp         edx,ecx
  004036A7: 75 07              jne         004036B0
  004036A9: 8B 56 04           mov         edx,dword ptr [esi+4]
  004036AC: 3B D0              cmp         edx,eax
  004036AE: 74 06              je          004036B6
  004036B0: 4E                 dec         esi
  004036B1: 4E                 dec         esi
  004036B2: 3B F5              cmp         esi,ebp
  004036B4: 73 ED              jae         004036A3
  004036B6: 33 DB              xor         ebx,ebx
  004036B8: 3B F5              cmp         esi,ebp
  004036BA: C7 44 24 10 E8 A1  mov         dword ptr [esp+10h],40A1E8h
            40 00
  004036C2: 72 66              jb          0040372A
  004036C4: 66 89 1E           mov         word ptr [esi],bx
  004036C7: 83 C6 08           add         esi,8
  004036CA: 56                 push        esi
  004036CB: E8 C7 25 00 00     call        00405C97
  004036D0: 85 C0              test        eax,eax
  004036D2: 74 2A              je          004036FE
  004036D4: 56                 push        esi
  004036D5: 68 00 F8 43 00     push        43F800h
  004036DA: E8 DB 2B 00 00     call        004062BA
  004036DF: 56                 push        esi
  004036E0: 68 00 00 44 00     push        440000h
  004036E5: E8 D0 2B 00 00     call        004062BA
  004036EA: 89 5C 24 10        mov         dword ptr [esp+10h],ebx
  004036EE: 83 0D AC 4F 43 00  or          dword ptr ds:[00434FACh],0FFFFFFFFh
            FF
  004036F5: E8 B0 02 00 00     call        004039AA
  004036FA: 89 44 24 14        mov         dword ptr [esp+14h],eax
  004036FE: E8 CD 01 00 00     call        004038D0
  00403703: FF 15 9C 82 40 00  call        dword ptr ds:[0040829Ch]
  00403709: 39 5C 24 10        cmp         dword ptr [esp+10h],ebx
  0040370D: 5D                 pop         ebp
  0040370E: 0F 84 20 01 00 00  je          00403834
  00403714: 68 10 00 20 00     push        200010h
  00403719: FF 74 24 10        push        dword ptr [esp+10h]
  0040371D: E8 FE 21 00 00     call        00405920
  00403722: 6A 02              push        2
  00403724: FF 15 B8 80 40 00  call        dword ptr ds:[004080B8h]
  0040372A: E8 5C 21 00 00     call        0040588B
  0040372F: 68 70 A2 40 00     push        40A270h
  00403734: 57                 push        edi
  00403735: 8B F0              mov         esi,eax
  00403737: E8 9A 2B 00 00     call        004062D6
  0040373C: 3B F3              cmp         esi,ebx
  0040373E: 74 0B              je          0040374B
  00403740: 68 6C A2 40 00     push        40A26Ch
  00403745: 57                 push        edi
  00403746: E8 8B 2B 00 00     call        004062D6
  0040374B: 68 60 A2 40 00     push        40A260h
  00403750: 57                 push        edi
  00403751: E8 80 2B 00 00     call        004062D6
  00403756: BD 00 08 44 00     mov         ebp,440800h
  0040375B: 55                 push        ebp
  0040375C: 57                 push        edi
  0040375D: FF 15 04 81 40 00  call        dword ptr ds:[00408104h]
  00403763: 85 C0              test        eax,eax
  00403765: 74 97              je          004036FE
  00403767: 3B F3              cmp         esi,ebx
  00403769: 57                 push        edi
  0040376A: 74 07              je          00403773
  0040376C: E8 80 20 00 00     call        004057F1
  00403771: EB 05              jmp         00403778
  00403773: E8 F6 20 00 00     call        0040586E
  00403778: 57                 push        edi
  00403779: FF 15 90 80 40 00  call        dword ptr ds:[00408090h]
  0040377F: 66 39 1D 00 F8 43  cmp         word ptr ds:[0043F800h],bx
            00
  00403786: 75 0B              jne         00403793
  00403788: 55                 push        ebp
  00403789: 68 00 F8 43 00     push        43F800h
  0040378E: E8 27 2B 00 00     call        004062BA
  00403793: FF 74 24 18        push        dword ptr [esp+18h]
  00403797: 68 00 50 43 00     push        435000h
  0040379C: E8 19 2B 00 00     call        004062BA
  004037A1: 0F B7 05 5A A2 40  movzx       eax,word ptr ds:[0040A25Ah]
            00
  004037A8: 0F B7 0D 58 A2 40  movzx       ecx,word ptr ds:[0040A258h]
            00
  004037AF: C1 E0 10           shl         eax,10h
  004037B2: 0B C1              or          eax,ecx
  004037B4: 6A 1A              push        1Ah
  004037B6: A3 00 58 43 00     mov         dword ptr ds:[00435800h],eax
  004037BB: 5D                 pop         ebp
  004037BC: BE 08 AA 42 00     mov         esi,42AA08h
  004037C1: A1 F4 4E 43 00     mov         eax,dword ptr ds:[00434EF4h]
  004037C6: FF B0 20 01 00 00  push        dword ptr [eax+00000120h]
  004037CC: 56                 push        esi
  004037CD: E8 0A 2B 00 00     call        004062DC
  004037D2: 56                 push        esi
  004037D3: FF 15 40 81 40 00  call        dword ptr ds:[00408140h]
  004037D9: 39 5C 24 10        cmp         dword ptr [esp+10h],ebx
  004037DD: 74 3F              je          0040381E
  004037DF: 6A 01              push        1
  004037E1: 56                 push        esi
  004037E2: 68 00 28 44 00     push        442800h
  004037E7: FF 15 8C 80 40 00  call        dword ptr ds:[0040808Ch]
  004037ED: 85 C0              test        eax,eax
  004037EF: 74 2D              je          0040381E
  004037F1: 53                 push        ebx
  004037F2: 56                 push        esi
  004037F3: E8 88 28 00 00     call        00406080
  004037F8: A1 F4 4E 43 00     mov         eax,dword ptr ds:[00434EF4h]
  004037FD: FF B0 24 01 00 00  push        dword ptr [eax+00000124h]
  00403803: 56                 push        esi
  00403804: E8 D3 2A 00 00     call        004062DC
  00403809: 56                 push        esi
  0040380A: E8 94 20 00 00     call        004058A3
  0040380F: 3B C3              cmp         eax,ebx
  00403811: 74 0B              je          0040381E
  00403813: 50                 push        eax
  00403814: FF 15 20 81 40 00  call        dword ptr ds:[00408120h]
  0040381A: 89 5C 24 10        mov         dword ptr [esp+10h],ebx
  0040381E: 66 FF 05 00 58 43  inc         word ptr ds:[00435800h]
            00
  00403825: 4D                 dec         ebp
  00403826: 75 99              jne         004037C1
  00403828: 53                 push        ebx
  00403829: 57                 push        edi
  0040382A: E8 51 28 00 00     call        00406080
  0040382F: E9 CA FE FF FF     jmp         004036FE
  00403834: 39 1D 94 4F 43 00  cmp         dword ptr ds:[00434F94h],ebx
  0040383A: 74 7C              je          004038B8
  0040383C: 8D 44 24 14        lea         eax,[esp+14h]
  00403840: 50                 push        eax
  00403841: 6A 28              push        28h
  00403843: FF 15 88 80 40 00  call        dword ptr ds:[00408088h]
  00403849: 50                 push        eax
  0040384A: FF 15 10 80 40 00  call        dword ptr ds:[00408010h]
  00403850: 85 C0              test        eax,eax
  00403852: 74 34              je          00403888
  00403854: 8D 44 24 20        lea         eax,[esp+20h]
  00403858: 50                 push        eax
  00403859: 68 30 A2 40 00     push        40A230h
  0040385E: 53                 push        ebx
  0040385F: FF 15 14 80 40 00  call        dword ptr ds:[00408014h]
  00403865: 53                 push        ebx
  00403866: 53                 push        ebx
  00403867: 8D 44 24 24        lea         eax,[esp+24h]
  0040386B: 53                 push        ebx
  0040386C: 50                 push        eax
  0040386D: 53                 push        ebx
  0040386E: FF 74 24 28        push        dword ptr [esp+28h]
  00403872: C7 44 24 34 01 00  mov         dword ptr [esp+34h],1
            00 00
  0040387A: C7 44 24 40 02 00  mov         dword ptr [esp+40h],2
            00 00
  00403882: FF 15 00 80 40 00  call        dword ptr ds:[00408000h]
  00403888: 6A 04              push        4
  0040388A: E8 05 2E 00 00     call        00406694
  0040388F: 3B C3              cmp         eax,ebx
  00403891: BE 02 00 04 80     mov         esi,80040002h
  00403896: 74 0C              je          004038A4
  00403898: 56                 push        esi
  00403899: 6A 25              push        25h
  0040389B: 53                 push        ebx
  0040389C: 53                 push        ebx
  0040389D: 53                 push        ebx
  0040389E: FF D0              call        eax
  004038A0: 85 C0              test        eax,eax
  004038A2: 74 0D              je          004038B1
  004038A4: 56                 push        esi
  004038A5: 6A 02              push        2
  004038A7: FF 15 4C 82 40 00  call        dword ptr ds:[0040824Ch]
  004038AD: 85 C0              test        eax,eax
  004038AF: 75 07              jne         004038B8
  004038B1: 6A 09              push        9
  004038B3: E8 53 DB FF FF     call        0040140B
  004038B8: A1 AC 4F 43 00     mov         eax,dword ptr ds:[00434FACh]
  004038BD: 83 F8 FF           cmp         eax,0FFFFFFFFh
  004038C0: 74 04              je          004038C6
  004038C2: 89 44 24 10        mov         dword ptr [esp+10h],eax
  004038C6: FF 74 24 10        push        dword ptr [esp+10h]
  004038CA: FF 15 B8 80 40 00  call        dword ptr ds:[004080B8h]
  004038D0: A1 18 A0 40 00     mov         eax,dword ptr ds:[0040A018h]
  004038D5: 83 F8 FF           cmp         eax,0FFFFFFFFh
  004038D8: 74 0E              je          004038E8
  004038DA: 50                 push        eax
  004038DB: FF 15 20 81 40 00  call        dword ptr ds:[00408120h]
  004038E1: 83 0D 18 A0 40 00  or          dword ptr ds:[0040A018h],0FFFFFFFFh
            FF
  004038E8: E8 28 00 00 00     call        00403915
  004038ED: 6A 07              push        7
  004038EF: 68 00 20 44 00     push        442000h
  004038F4: E8 D3 20 00 00     call        004059CC
  004038F9: C3                 ret
  004038FA: 56                 push        esi
  004038FB: 8B 35 0C B2 42 00  mov         esi,dword ptr ds:[0042B20Ch]
  00403901: EB 0A              jmp         0040390D
  00403903: FF 74 24 08        push        dword ptr [esp+8]
  00403907: FF 56 04           call        dword ptr [esi+4]
  0040390A: 8B 36              mov         esi,dword ptr [esi]
  0040390C: 59                 pop         ecx
  0040390D: 85 F6              test        esi,esi
  0040390F: 75 F2              jne         00403903
  00403911: 5E                 pop         esi
  00403912: C2 04 00           ret         4
  00403915: 56                 push        esi
  00403916: 8B 35 0C B2 42 00  mov         esi,dword ptr ds:[0042B20Ch]
  0040391C: 6A 00              push        0
  0040391E: E8 D7 FF FF FF     call        004038FA
  00403923: 85 F6              test        esi,esi
  00403925: 74 1A              je          00403941
  00403927: 57                 push        edi
  00403928: 8B FE              mov         edi,esi
  0040392A: 8B 36              mov         esi,dword ptr [esi]
  0040392C: FF 77 08           push        dword ptr [edi+8]
  0040392F: FF 15 68 81 40 00  call        dword ptr ds:[00408168h]
  00403935: 57                 push        edi
  00403936: FF 15 28 81 40 00  call        dword ptr ds:[00408128h]
  0040393C: 85 F6              test        esi,esi
  0040393E: 75 E8              jne         00403928
  00403940: 5F                 pop         edi
  00403941: 83 25 0C B2 42 00  and         dword ptr ds:[0042B20Ch],0
            00
  00403948: 5E                 pop         esi
  00403949: C3                 ret
  0040394A: A1 0C B2 42 00     mov         eax,dword ptr ds:[0042B20Ch]
  0040394F: EB 0B              jmp         0040395C
  00403951: 8B 48 08           mov         ecx,dword ptr [eax+8]
  00403954: 3B 4C 24 04        cmp         ecx,dword ptr [esp+4]
  00403958: 74 0A              je          00403964
  0040395A: 8B 00              mov         eax,dword ptr [eax]
  0040395C: 85 C0              test        eax,eax
  0040395E: 75 F1              jne         00403951
  00403960: 40                 inc         eax
  00403961: C2 04 00           ret         4
  00403964: 33 C0              xor         eax,eax
  00403966: EB F9              jmp         00403961
  00403968: 56                 push        esi
  00403969: 8B 74 24 08        mov         esi,dword ptr [esp+8]
  0040396D: 56                 push        esi
  0040396E: E8 D7 FF FF FF     call        0040394A
  00403973: 85 C0              test        eax,eax
  00403975: 75 03              jne         0040397A
  00403977: 40                 inc         eax
  00403978: EB 2C              jmp         004039A6
  0040397A: 6A 0C              push        0Ch
  0040397C: 6A 40              push        40h
  0040397E: FF 15 34 81 40 00  call        dword ptr ds:[00408134h]
  00403984: 85 C0              test        eax,eax
  00403986: 74 1B              je          004039A3
  00403988: 8B 4C 24 0C        mov         ecx,dword ptr [esp+0Ch]
  0040398C: 89 70 08           mov         dword ptr [eax+8],esi
  0040398F: 89 48 04           mov         dword ptr [eax+4],ecx
  00403992: 8B 0D 0C B2 42 00  mov         ecx,dword ptr ds:[0042B20Ch]
  00403998: 89 08              mov         dword ptr [eax],ecx
  0040399A: A3 0C B2 42 00     mov         dword ptr ds:[0042B20Ch],eax
  0040399F: 33 C0              xor         eax,eax
  004039A1: EB 03              jmp         004039A6
  004039A3: 83 C8 FF           or          eax,0FFFFFFFFh
  004039A6: 5E                 pop         esi
  004039A7: C2 08 00           ret         8
  004039AA: 83 EC 10           sub         esp,10h
  004039AD: 53                 push        ebx
  004039AE: 55                 push        ebp
  004039AF: 56                 push        esi
  004039B0: 8B 35 F4 4E 43 00  mov         esi,dword ptr ds:[00434EF4h]
  004039B6: 57                 push        edi
  004039B7: 6A 02              push        2
  004039B9: E8 D6 2C 00 00     call        00406694
  004039BE: 33 FF              xor         edi,edi
  004039C0: 3B C7              cmp         eax,edi
  004039C2: 74 12              je          004039D6
  004039C4: FF D0              call        eax
  004039C6: 0F B7 C0           movzx       eax,ax
  004039C9: 50                 push        eax
  004039CA: 68 00 10 44 00     push        441000h
  004039CF: E8 2D 28 00 00     call        00406201
  004039D4: EB 5A              jmp         00403A30
  004039D6: BB 48 D2 42 00     mov         ebx,42D248h
  004039DB: 57                 push        edi
  004039DC: 53                 push        ebx
  004039DD: 57                 push        edi
  004039DE: 68 98 83 40 00     push        408398h
  004039E3: 68 01 00 00 80     push        80000001h
  004039E8: 66 C7 05 00 10 44  mov         word ptr ds:[00441000h],30h
            00 30 00
  004039F1: 66 C7 05 02 10 44  mov         word ptr ds:[00441002h],78h
            00 78 00
  004039FA: 66 89 3D 04 10 44  mov         word ptr ds:[00441004h],di
            00
  00403A01: E8 82 27 00 00     call        00406188
  00403A06: 66 39 3D 48 D2 42  cmp         word ptr ds:[0042D248h],di
            00
  00403A0D: 75 16              jne         00403A25
  00403A0F: 57                 push        edi
  00403A10: 53                 push        ebx
  00403A11: 68 D4 83 40 00     push        4083D4h
  00403A16: 68 48 83 40 00     push        408348h
  00403A1B: 68 03 00 00 80     push        80000003h
  00403A20: E8 63 27 00 00     call        00406188
  00403A25: 53                 push        ebx
  00403A26: 68 00 10 44 00     push        441000h
  00403A2B: E8 A6 28 00 00     call        004062D6
  00403A30: E8 4B 02 00 00     call        00403C80
  00403A35: A1 FC 4E 43 00     mov         eax,dword ptr ds:[00434EFCh]
  00403A3A: BD 00 F8 43 00     mov         ebp,43F800h
  00403A3F: 83 E0 20           and         eax,20h
  00403A42: 55                 push        ebp
  00403A43: A3 80 4F 43 00     mov         dword ptr ds:[00434F80h],eax
  00403A48: C7 05 9C 4F 43 00  mov         dword ptr ds:[00434F9Ch],10000h
            00 00 01 00
  00403A52: E8 40 22 00 00     call        00405C97
  00403A57: 85 C0              test        eax,eax
  00403A59: 0F 85 8C 00 00 00  jne         00403AEB
  00403A5F: 8B 4E 48           mov         ecx,dword ptr [esi+48h]
  00403A62: 3B CF              cmp         ecx,edi
  00403A64: 0F 84 81 00 00 00  je          00403AEB
  00403A6A: 8B 56 4C           mov         edx,dword ptr [esi+4Ch]
  00403A6D: A1 38 4F 43 00     mov         eax,dword ptr ds:[00434F38h]
  00403A72: BB 80 2E 43 00     mov         ebx,432E80h
  00403A77: 57                 push        edi
  00403A78: 8D 14 50           lea         edx,[eax+edx*2]
  00403A7B: 53                 push        ebx
  00403A7C: 8D 04 48           lea         eax,[eax+ecx*2]
  00403A7F: 52                 push        edx
  00403A80: 50                 push        eax
  00403A81: FF 76 44           push        dword ptr [esi+44h]
  00403A84: E8 FF 26 00 00     call        00406188
  00403A89: 66 A1 80 2E 43 00  mov         ax,word ptr ds:[00432E80h]
  00403A8F: 66 3B C7           cmp         ax,di
  00403A92: 74 57              je          00403AEB
  00403A94: 66 3D 22 00        cmp         ax,22h
  00403A98: 75 10              jne         00403AAA
  00403A9A: BB 82 2E 43 00     mov         ebx,432E82h
  00403A9F: 6A 22              push        22h
  00403AA1: 53                 push        ebx
  00403AA2: E8 15 21 00 00     call        00405BBC
  00403AA7: 66 89 38           mov         word ptr [eax],di
  00403AAA: 53                 push        ebx
  00403AAB: E8 20 28 00 00     call        004062D0
  00403AB0: 8D 44 43 F8        lea         eax,[ebx+eax*2-8]
  00403AB4: 3B C3              cmp         eax,ebx
  00403AB6: 76 26              jbe         00403ADE
  00403AB8: 68 88 A3 40 00     push        40A388h
  00403ABD: 50                 push        eax
  00403ABE: FF 15 04 81 40 00  call        dword ptr ds:[00408104h]
  00403AC4: 85 C0              test        eax,eax
  00403AC6: 75 16              jne         00403ADE
  00403AC8: 53                 push        ebx
  00403AC9: FF 15 94 80 40 00  call        dword ptr ds:[00408094h]
  00403ACF: 83 F8 FF           cmp         eax,0FFFFFFFFh
  00403AD2: 74 04              je          00403AD8
  00403AD4: A8 10              test        al,10h
  00403AD6: 75 06              jne         00403ADE
  00403AD8: 53                 push        ebx
  00403AD9: E8 FD 20 00 00     call        00405BDB
  00403ADE: 53                 push        ebx
  00403ADF: E8 AB 20 00 00     call        00405B8F
  00403AE4: 50                 push        eax
  00403AE5: 55                 push        ebp
  00403AE6: E8 CF 27 00 00     call        004062BA
  00403AEB: 55                 push        ebp
  00403AEC: E8 A6 21 00 00     call        00405C97
  00403AF1: 85 C0              test        eax,eax
  00403AF3: 75 0C              jne         00403B01
  00403AF5: FF B6 18 01 00 00  push        dword ptr [esi+00000118h]
  00403AFB: 55                 push        ebp
  00403AFC: E8 DB 27 00 00     call        004062DC
  00403B01: 68 40 80 00 00     push        8040h
  00403B06: 57                 push        edi
  00403B07: 57                 push        edi
  00403B08: 6A 01              push        1
  00403B0A: 6A 67              push        67h
  00403B0C: FF 35 E0 4E 43 00  push        dword ptr ds:[00434EE0h]
  00403B12: FF 15 60 82 40 00  call        dword ptr ds:[00408260h]
  00403B18: A3 C8 3E 43 00     mov         dword ptr ds:[00433EC8h],eax
  00403B1D: 83 7E 50 FF        cmp         dword ptr [esi+50h],0FFFFFFFFh
  00403B21: BB 80 3E 43 00     mov         ebx,433E80h
  00403B26: 74 7F              je          00403BA7
  00403B28: 8B 0D E0 4E 43 00  mov         ecx,dword ptr ds:[00434EE0h]
  00403B2E: BE 80 A3 40 00     mov         esi,40A380h
  00403B33: 53                 push        ebx
  00403B34: C7 05 84 3E 43 00  mov         dword ptr ds:[00433E84h],401000h
            00 10 40 00
  00403B3E: 89 0D 90 3E 43 00  mov         dword ptr ds:[00433E90h],ecx
  00403B44: A3 94 3E 43 00     mov         dword ptr ds:[00433E94h],eax
  00403B49: 89 35 A4 3E 43 00  mov         dword ptr ds:[00433EA4h],esi
  00403B4F: FF 15 34 82 40 00  call        dword ptr ds:[00408234h]
  00403B55: 66 85 C0           test        ax,ax
  00403B58: 0F 84 18 01 00 00  je          00403C76
  00403B5E: 8D 44 24 10        lea         eax,[esp+10h]
  00403B62: 57                 push        edi
  00403B63: 50                 push        eax
  00403B64: 57                 push        edi
  00403B65: 6A 30              push        30h
  00403B67: FF 15 38 82 40 00  call        dword ptr ds:[00408238h]
  00403B6D: 57                 push        edi
  00403B6E: FF 35 E0 4E 43 00  push        dword ptr ds:[00434EE0h]
  00403B74: 8B 44 24 24        mov         eax,dword ptr [esp+24h]
  00403B78: 2B 44 24 1C        sub         eax,dword ptr [esp+1Ch]
  00403B7C: 57                 push        edi
  00403B7D: 57                 push        edi
  00403B7E: 50                 push        eax
  00403B7F: 8B 44 24 2C        mov         eax,dword ptr [esp+2Ch]
  00403B83: 2B 44 24 24        sub         eax,dword ptr [esp+24h]
  00403B87: 50                 push        eax
  00403B88: FF 74 24 2C        push        dword ptr [esp+2Ch]
  00403B8C: FF 74 24 2C        push        dword ptr [esp+2Ch]
  00403B90: 68 00 00 00 80     push        80000000h
  00403B95: 57                 push        edi
  00403B96: 56                 push        esi
  00403B97: 68 80 00 00 00     push        80h
  00403B9C: FF 15 3C 82 40 00  call        dword ptr ds:[0040823Ch]
  00403BA2: A3 28 D2 42 00     mov         dword ptr ds:[0042D228h],eax
  00403BA7: 57                 push        edi
  00403BA8: E8 5E D8 FF FF     call        0040140B
  00403BAD: 85 C0              test        eax,eax
  00403BAF: 74 08              je          00403BB9
  00403BB1: 6A 02              push        2
  00403BB3: 58                 pop         eax
  00403BB4: E9 BF 00 00 00     jmp         00403C78
  00403BB9: E8 C2 00 00 00     call        00403C80
  00403BBE: 39 3D A0 4F 43 00  cmp         dword ptr ds:[00434FA0h],edi
  00403BC4: 0F 85 83 00 00 00  jne         00403C4D
  00403BCA: 6A 05              push        5
  00403BCC: FF 35 28 D2 42 00  push        dword ptr ds:[0042D228h]
  00403BD2: FF 15 68 82 40 00  call        dword ptr ds:[00408268h]
  00403BD8: 68 3C 83 40 00     push        40833Ch
  00403BDD: E8 42 2A 00 00     call        00406624
  00403BE2: 85 C0              test        eax,eax
  00403BE4: 75 0A              jne         00403BF0
  00403BE6: 68 30 83 40 00     push        408330h
  00403BEB: E8 34 2A 00 00     call        00406624
  00403BF0: 8B 35 40 82 40 00  mov         esi,dword ptr ds:[00408240h]
  00403BF6: BD 18 83 40 00     mov         ebp,408318h
  00403BFB: 53                 push        ebx
  00403BFC: 55                 push        ebp
  00403BFD: 57                 push        edi
  00403BFE: FF D6              call        esi
  00403C00: 85 C0              test        eax,eax
  00403C02: 75 16              jne         00403C1A
  00403C04: 53                 push        ebx
  00403C05: 68 04 83 40 00     push        408304h
  00403C0A: 57                 push        edi
  00403C0B: FF D6              call        esi
  00403C0D: 53                 push        ebx
  00403C0E: 89 2D A4 3E 43 00  mov         dword ptr ds:[00433EA4h],ebp
  00403C14: FF 15 34 82 40 00  call        dword ptr ds:[00408234h]
  00403C1A: A1 C0 3E 43 00     mov         eax,dword ptr ds:[00433EC0h]
  00403C1F: 57                 push        edi
  00403C20: 83 C0 69           add         eax,69h
  00403C23: 68 58 3D 40 00     push        403D58h
  00403C28: 0F B7 C0           movzx       eax,ax
  00403C2B: 57                 push        edi
  00403C2C: 50                 push        eax
  00403C2D: FF 35 E0 4E 43 00  push        dword ptr ds:[00434EE0h]
  00403C33: FF 15 44 82 40 00  call        dword ptr ds:[00408244h]
  00403C39: 6A 05              push        5
  00403C3B: 8B F0              mov         esi,eax
  00403C3D: E8 C9 D7 FF FF     call        0040140B
  00403C42: 6A 01              push        1
  00403C44: E8 B1 FC FF FF     call        004038FA
  00403C49: 8B C6              mov         eax,esi
  00403C4B: EB 2B              jmp         00403C78
  00403C4D: 57                 push        edi
  00403C4E: E8 A2 17 00 00     call        004053F5
  00403C53: 85 C0              test        eax,eax
  00403C55: 74 18              je          00403C6F
  00403C57: 39 3D AC 3E 43 00  cmp         dword ptr ds:[00433EACh],edi
  00403C5D: 0F 85 4E FF FF FF  jne         00403BB1
  00403C63: 6A 02              push        2
  00403C65: E8 A1 D7 FF FF     call        0040140B
  00403C6A: E9 42 FF FF FF     jmp         00403BB1
  00403C6F: 6A 01              push        1
  00403C71: E8 95 D7 FF FF     call        0040140B
  00403C76: 33 C0              xor         eax,eax
  00403C78: 5F                 pop         edi
  00403C79: 5E                 pop         esi
  00403C7A: 5D                 pop         ebp
  00403C7B: 5B                 pop         ebx
  00403C7C: 83 C4 10           add         esp,10h
  00403C7F: C3                 ret
  00403C80: 53                 push        ebx
  00403C81: 55                 push        ebp
  00403C82: 56                 push        esi
  00403C83: 57                 push        edi
  00403C84: BF 00 10 44 00     mov         edi,441000h
  00403C89: BB FF FF 00 00     mov         ebx,0FFFFh
  00403C8E: 57                 push        edi
  00403C8F: E8 86 25 00 00     call        0040621A
  00403C94: 8B 35 44 4F 43 00  mov         esi,dword ptr ds:[00434F44h]
  00403C9A: 85 F6              test        esi,esi
  00403C9C: 74 45              je          00403CE3
  00403C9E: 8B 0D F4 4E 43 00  mov         ecx,dword ptr ds:[00434EF4h]
  00403CA4: 8B 49 64           mov         ecx,dword ptr [ecx+64h]
  00403CA7: 8B D1              mov         edx,ecx
  00403CA9: 0F AF CE           imul        ecx,esi
  00403CAC: F7 DA              neg         edx
  00403CAE: 03 0D 40 4F 43 00  add         ecx,dword ptr ds:[00434F40h]
  00403CB4: 03 CA              add         ecx,edx
  00403CB6: 4E                 dec         esi
  00403CB7: 66 8B 29           mov         bp,word ptr [ecx]
  00403CBA: 66 33 E8           xor         bp,ax
  00403CBD: 23 EB              and         ebp,ebx
  00403CBF: 66 85 ED           test        bp,bp
  00403CC2: 74 06              je          00403CCA
  00403CC4: 85 F6              test        esi,esi
  00403CC6: 75 EC              jne         00403CB4
  00403CC8: EB 19              jmp         00403CE3
  00403CCA: 8B 51 02           mov         edx,dword ptr [ecx+2]
  00403CCD: 89 15 C0 3E 43 00  mov         dword ptr ds:[00433EC0h],edx
  00403CD3: 8B 51 06           mov         edx,dword ptr [ecx+6]
  00403CD6: 89 15 A8 4F 43 00  mov         dword ptr ds:[00434FA8h],edx
  00403CDC: 8D 51 0A           lea         edx,[ecx+0Ah]
  00403CDF: 85 D2              test        edx,edx
  00403CE1: 75 12              jne         00403CF5
  00403CE3: 66 81 FB FF FF     cmp         bx,0FFFFh
  00403CE8: 75 07              jne         00403CF1
  00403CEA: BB FF 03 00 00     mov         ebx,3FFh
  00403CEF: EB A3              jmp         00403C94
  00403CF1: 33 DB              xor         ebx,ebx
  00403CF3: EB 9F              jmp         00403C94
  00403CF5: 89 15 BC 3E 43 00  mov         dword ptr ds:[00433EBCh],edx
  00403CFB: 0F B7 01           movzx       eax,word ptr [ecx]
  00403CFE: 50                 push        eax
  00403CFF: 57                 push        edi
  00403D00: E8 FC 24 00 00     call        00406201
  00403D05: E8 2F 00 00 00     call        00403D39
  00403D0A: A1 2C 4F 43 00     mov         eax,dword ptr ds:[00434F2Ch]
  00403D0F: 8B 35 28 4F 43 00  mov         esi,dword ptr ds:[00434F28h]
  00403D15: 85 C0              test        eax,eax
  00403D17: 74 1B              je          00403D34
  00403D19: 8B F8              mov         edi,eax
  00403D1B: 8B 06              mov         eax,dword ptr [esi]
  00403D1D: 85 C0              test        eax,eax
  00403D1F: 74 0A              je          00403D2B
  00403D21: 50                 push        eax
  00403D22: 8D 46 18           lea         eax,[esi+18h]
  00403D25: 50                 push        eax
  00403D26: E8 B1 25 00 00     call        004062DC
  00403D2B: 81 C6 18 08 00 00  add         esi,818h
  00403D31: 4F                 dec         edi
  00403D32: 75 E7              jne         00403D1B
  00403D34: 5F                 pop         edi
  00403D35: 5E                 pop         esi
  00403D36: 5D                 pop         ebp
  00403D37: 5B                 pop         ebx
  00403D38: C3                 ret
  00403D39: 56                 push        esi
  00403D3A: BE E0 3E 43 00     mov         esi,433EE0h
  00403D3F: 6A FE              push        0FFFFFFFEh
  00403D41: 56                 push        esi
  00403D42: E8 95 25 00 00     call        004062DC
  00403D47: 56                 push        esi
  00403D48: FF 35 28 D2 42 00  push        dword ptr ds:[0042D228h]
  00403D4E: FF 15 5C 82 40 00  call        dword ptr ds:[0040825Ch]
  00403D54: 8B C6              mov         eax,esi
  00403D56: 5E                 pop         esi
  00403D57: C3                 ret
  00403D58: 83 EC 10           sub         esp,10h
  00403D5B: B9 10 01 00 00     mov         ecx,110h
  00403D60: 53                 push        ebx
  00403D61: 8B 5C 24 1C        mov         ebx,dword ptr [esp+1Ch]
  00403D65: 55                 push        ebp
  00403D66: 56                 push        esi
  00403D67: 3B D9              cmp         ebx,ecx
  00403D69: 57                 push        edi
  00403D6A: 0F 84 3B 01 00 00  je          00403EAB
  00403D70: 81 FB 08 04 00 00  cmp         ebx,408h
  00403D76: 0F 84 2F 01 00 00  je          00403EAB
  00403D7C: 8B 7C 24 24        mov         edi,dword ptr [esp+24h]
  00403D80: 33 ED              xor         ebp,ebp
  00403D82: 83 FB 47           cmp         ebx,47h
  00403D85: 75 13              jne         00403D9A
  00403D87: 6A 13              push        13h
  00403D89: 55                 push        ebp
  00403D8A: 55                 push        ebp
  00403D8B: 55                 push        ebp
  00403D8C: 55                 push        ebp
  00403D8D: 57                 push        edi
  00403D8E: FF 35 28 D2 42 00  push        dword ptr ds:[0042D228h]
  00403D94: FF 15 A4 81 40 00  call        dword ptr ds:[004081A4h]
  00403D9A: 83 FB 05           cmp         ebx,5
  00403D9D: 75 18              jne         00403DB7
  00403D9F: 8B 44 24 2C        mov         eax,dword ptr [esp+2Ch]
  00403DA3: 48                 dec         eax
  00403DA4: F7 D8              neg         eax
  00403DA6: 1B C0              sbb         eax,eax
  00403DA8: 23 C3              and         eax,ebx
  00403DAA: 50                 push        eax
  00403DAB: FF 35 28 D2 42 00  push        dword ptr ds:[0042D228h]
  00403DB1: FF 15 68 82 40 00  call        dword ptr ds:[00408268h]
  00403DB7: 81 FB 0D 04 00 00  cmp         ebx,40Dh
  00403DBD: 75 1A              jne         00403DD9
  00403DBF: FF 35 B8 3E 43 00  push        dword ptr ds:[00433EB8h]
  00403DC5: FF 15 50 82 40 00  call        dword ptr ds:[00408250h]
  00403DCB: 8B 44 24 2C        mov         eax,dword ptr [esp+2Ch]
  00403DCF: A3 B8 3E 43 00     mov         dword ptr ds:[00433EB8h],eax
  00403DD4: E9 02 04 00 00     jmp         004041DB
  00403DD9: 83 FB 11           cmp         ebx,11h
  00403DDC: 75 11              jne         00403DEF
  00403DDE: 55                 push        ebp
  00403DDF: 55                 push        ebp
  00403DE0: 57                 push        edi
  00403DE1: FF 15 70 82 40 00  call        dword ptr ds:[00408270h]
  00403DE7: 33 C0              xor         eax,eax
  00403DE9: 40                 inc         eax
  00403DEA: E9 11 04 00 00     jmp         00404200
  00403DEF: 81 FB 11 01 00 00  cmp         ebx,111h
  00403DF5: 0F 85 9D 00 00 00  jne         00403E98
  00403DFB: 0F B7 74 24 2C     movzx       esi,word ptr [esp+2Ch]
  00403E00: 56                 push        esi
  00403E01: 57                 push        edi
  00403E02: FF 15 E4 81 40 00  call        dword ptr ds:[004081E4h]
  00403E08: 8B F8              mov         edi,eax
  00403E0A: 3B FD              cmp         edi,ebp
  00403E0C: 74 1D              je          00403E2B
  00403E0E: 55                 push        ebp
  00403E0F: 55                 push        ebp
  00403E10: 68 F3 00 00 00     push        0F3h
  00403E15: 57                 push        edi
  00403E16: FF 15 18 82 40 00  call        dword ptr ds:[00408218h]
  00403E1C: 57                 push        edi
  00403E1D: FF 15 A0 81 40 00  call        dword ptr ds:[004081A0h]
  00403E23: 85 C0              test        eax,eax
  00403E25: 0F 84 D3 03 00 00  je          004041FE
  00403E2B: 83 FE 01           cmp         esi,1
  00403E2E: 75 03              jne         00403E33
  00403E30: 56                 push        esi
  00403E31: EB 2E              jmp         00403E61
  00403E33: 83 FE 03           cmp         esi,3
  00403E36: 75 0C              jne         00403E44
  00403E38: 39 2D 68 A3 40 00  cmp         dword ptr ds:[0040A368h],ebp
  00403E3E: 7E 3F              jle         00403E7F
  00403E40: 6A FF              push        0FFFFFFFFh
  00403E42: EB 1D              jmp         00403E61
  00403E44: 6A 02              push        2
  00403E46: 5F                 pop         edi
  00403E47: 3B F7              cmp         esi,edi
  00403E49: 75 34              jne         00403E7F
  00403E4B: 39 2D 8C 4F 43 00  cmp         dword ptr ds:[00434F8Ch],ebp
  00403E51: 74 15              je          00403E68
  00403E53: 57                 push        edi
  00403E54: E8 B2 D5 FF FF     call        0040140B
  00403E59: 89 3D 18 BA 42 00  mov         dword ptr ds:[0042BA18h],edi
  00403E5F: 6A 78              push        78h
  00403E61: E8 A4 03 00 00     call        0040420A
  00403E66: EB 30              jmp         00403E98
  00403E68: 6A 03              push        3
  00403E6A: E8 9C D5 FF FF     call        0040140B
  00403E6F: 85 C0              test        eax,eax
  00403E71: 75 25              jne         00403E98
  00403E73: C7 05 18 BA 42 00  mov         dword ptr ds:[0042BA18h],1
            01 00 00 00
  00403E7D: EB E0              jmp         00403E5F
  00403E7F: FF 74 24 30        push        dword ptr [esp+30h]
  00403E83: FF 74 24 30        push        dword ptr [esp+30h]
  00403E87: 68 11 01 00 00     push        111h
  00403E8C: FF 35 B8 3E 43 00  push        dword ptr ds:[00433EB8h]
  00403E92: FF 15 18 82 40 00  call        dword ptr ds:[00408218h]
  00403E98: FF 74 24 30        push        dword ptr [esp+30h]
  00403E9C: FF 74 24 30        push        dword ptr [esp+30h]
  00403EA0: 53                 push        ebx
  00403EA1: E8 F2 03 00 00     call        00404298
  00403EA6: E9 55 03 00 00     jmp         00404200
  00403EAB: 8B 44 24 2C        mov         eax,dword ptr [esp+2Ch]
  00403EAF: 8B 7C 24 24        mov         edi,dword ptr [esp+24h]
  00403EB3: 3B D9              cmp         ebx,ecx
  00403EB5: A3 30 D2 42 00     mov         dword ptr ds:[0042D230h],eax
  00403EBA: 75 4D              jne         00403F09
  00403EBC: 8B 35 E4 81 40 00  mov         esi,dword ptr ds:[004081E4h]
  00403EC2: 6A 01              push        1
  00403EC4: 57                 push        edi
  00403EC5: 89 3D E8 4E 43 00  mov         dword ptr ds:[00434EE8h],edi
  00403ECB: FF D6              call        esi
  00403ECD: 6A 02              push        2
  00403ECF: 57                 push        edi
  00403ED0: A3 44 D2 42 00     mov         dword ptr ds:[0042D244h],eax
  00403ED5: FF D6              call        esi
  00403ED7: 6A FF              push        0FFFFFFFFh
  00403ED9: 6A 1C              push        1Ch
  00403EDB: 57                 push        edi
  00403EDC: A3 10 B2 42 00     mov         dword ptr ds:[0042B210h],eax
  00403EE1: E8 4B 03 00 00     call        00404231
  00403EE6: FF 35 C8 3E 43 00  push        dword ptr ds:[00433EC8h]
  00403EEC: 6A F2              push        0FFFFFFF2h
  00403EEE: 57                 push        edi
  00403EEF: FF 15 98 81 40 00  call        dword ptr ds:[00408198h]
  00403EF5: 6A 04              push        4
  00403EF7: E8 0F D5 FF FF     call        0040140B
  00403EFC: A3 AC 3E 43 00     mov         dword ptr ds:[00433EACh],eax
  00403F01: 33 C0              xor         eax,eax
  00403F03: 40                 inc         eax
  00403F04: A3 30 D2 42 00     mov         dword ptr ds:[0042D230h],eax
  00403F09: 8B 0D 68 A3 40 00  mov         ecx,dword ptr ds:[0040A368h]
  00403F0F: 33 ED              xor         ebp,ebp
  00403F11: 8B F1              mov         esi,ecx
  00403F13: C1 E6 06           shl         esi,6
  00403F16: 03 35 20 4F 43 00  add         esi,dword ptr ds:[00434F20h]
  00403F1C: 3B CD              cmp         ecx,ebp
  00403F1E: 7C 3E              jl          00403F5E
  00403F20: 83 F8 01           cmp         eax,1
  00403F23: 75 31              jne         00403F56
  00403F25: 55                 push        ebp
  00403F26: FF 76 10           push        dword ptr [esi+10h]
  00403F29: E8 5B D4 FF FF     call        00401389
  00403F2E: 85 C0              test        eax,eax
  00403F30: 74 24              je          00403F56
  00403F32: 6A 01              push        1
  00403F34: 55                 push        ebp
  00403F35: 68 0F 04 00 00     push        40Fh
  00403F3A: FF 35 B8 3E 43 00  push        dword ptr ds:[00433EB8h]
  00403F40: FF 15 18 82 40 00  call        dword ptr ds:[00408218h]
  00403F46: 33 C0              xor         eax,eax
  00403F48: 39 2D AC 3E 43 00  cmp         dword ptr ds:[00433EACh],ebp
  00403F4E: 0F 94 C0           sete        al
  00403F51: E9 AA 02 00 00     jmp         00404200
  00403F56: 39 2E              cmp         dword ptr [esi],ebp
  00403F58: 0F 84 A0 02 00 00  je          004041FE
  00403F5E: 68 0B 04 00 00     push        40Bh
  00403F63: E8 15 03 00 00     call        0040427D
  00403F68: A1 30 D2 42 00     mov         eax,dword ptr ds:[0042D230h]
  00403F6D: 01 05 68 A3 40 00  add         dword ptr ds:[0040A368h],eax
  00403F73: C1 E0 06           shl         eax,6
  00403F76: 03 F0              add         esi,eax
  00403F78: A1 68 A3 40 00     mov         eax,dword ptr ds:[0040A368h]
  00403F7D: 3B 05 24 4F 43 00  cmp         eax,dword ptr ds:[00434F24h]
  00403F83: 75 07              jne         00403F8C
  00403F85: 6A 01              push        1
  00403F87: E8 7F D4 FF FF     call        0040140B
  00403F8C: 39 2D AC 3E 43 00  cmp         dword ptr ds:[00433EACh],ebp
  00403F92: 0F 85 24 02 00 00  jne         004041BC
  00403F98: A1 24 4F 43 00     mov         eax,dword ptr ds:[00434F24h]
  00403F9D: 39 05 68 A3 40 00  cmp         dword ptr ds:[0040A368h],eax
  00403FA3: 0F 83 13 02 00 00  jae         004041BC
  00403FA9: FF 76 24           push        dword ptr [esi+24h]
  00403FAC: 8B 5E 14           mov         ebx,dword ptr [esi+14h]
  00403FAF: 68 00 40 44 00     push        444000h
  00403FB4: E8 23 23 00 00     call        004062DC
  00403FB9: FF 76 20           push        dword ptr [esi+20h]
  00403FBC: 68 19 FC FF FF     push        0FFFFFC19h
  00403FC1: 57                 push        edi
  00403FC2: E8 6A 02 00 00     call        00404231
  00403FC7: FF 76 1C           push        dword ptr [esi+1Ch]
  00403FCA: 68 1B FC FF FF     push        0FFFFFC1Bh
  00403FCF: 57                 push        edi
  00403FD0: E8 5C 02 00 00     call        00404231
  00403FD5: FF 76 28           push        dword ptr [esi+28h]
  00403FD8: 68 1A FC FF FF     push        0FFFFFC1Ah
  00403FDD: 57                 push        edi
  00403FDE: E8 4E 02 00 00     call        00404231
  00403FE3: 6A 03              push        3
  00403FE5: 57                 push        edi
  00403FE6: FF 15 E4 81 40 00  call        dword ptr ds:[004081E4h]
  00403FEC: 39 2D 8C 4F 43 00  cmp         dword ptr ds:[00434F8Ch],ebp
  00403FF2: 89 44 24 2C        mov         dword ptr [esp+2Ch],eax
  00403FF6: 74 08              je          00404000
  00403FF8: 66 81 E3 FD FE     and         bx,0FEFDh
  00403FFD: 83 CB 04           or          ebx,4
  00404000: 8B CB              mov         ecx,ebx
  00404002: 83 E1 08           and         ecx,8
  00404005: 51                 push        ecx
  00404006: 50                 push        eax
  00404007: FF 15 68 82 40 00  call        dword ptr ds:[00408268h]
  0040400D: 8B C3              mov         eax,ebx
  0040400F: 25 00 01 00 00     and         eax,100h
  00404014: 50                 push        eax
  00404015: FF 74 24 30        push        dword ptr [esp+30h]
  00404019: FF 15 10 82 40 00  call        dword ptr ds:[00408210h]
  0040401F: 8B C3              mov         eax,ebx
  00404021: 83 E0 02           and         eax,2
  00404024: 50                 push        eax
  00404025: E8 29 02 00 00     call        00404253
  0040402A: 83 E3 04           and         ebx,4
  0040402D: 53                 push        ebx
  0040402E: FF 35 10 B2 42 00  push        dword ptr ds:[0042B210h]
  00404034: FF 15 10 82 40 00  call        dword ptr ds:[00408210h]
  0040403A: 3B DD              cmp         ebx,ebp
  0040403C: 74 03              je          00404041
  0040403E: 55                 push        ebp
  0040403F: EB 02              jmp         00404043
  00404041: 6A 01              push        1
  00404043: 68 60 F0 00 00     push        0F060h
  00404048: 55                 push        ebp
  00404049: 57                 push        edi
  0040404A: FF 15 94 81 40 00  call        dword ptr ds:[00408194h]
  00404050: 50                 push        eax
  00404051: FF 15 9C 81 40 00  call        dword ptr ds:[0040819Ch]
  00404057: 8B 1D 18 82 40 00  mov         ebx,dword ptr ds:[00408218h]
  0040405D: 6A 01              push        1
  0040405F: 55                 push        ebp
  00404060: 68 F4 00 00 00     push        0F4h
  00404065: FF 74 24 38        push        dword ptr [esp+38h]
  00404069: FF D3              call        ebx
  0040406B: 39 2D 8C 4F 43 00  cmp         dword ptr ds:[00434F8Ch],ebp
  00404071: 74 13              je          00404086
  00404073: 55                 push        ebp
  00404074: 6A 02              push        2
  00404076: 68 01 04 00 00     push        401h
  0040407B: 57                 push        edi
  0040407C: FF D3              call        ebx
  0040407E: FF 35 10 B2 42 00  push        dword ptr ds:[0042B210h]
  00404084: EB 06              jmp         0040408C
  00404086: FF 35 44 D2 42 00  push        dword ptr ds:[0042D244h]
  0040408C: E8 D5 01 00 00     call        00404266
  00404091: E8 A3 FC FF FF     call        00403D39
  00404096: BB 48 D2 42 00     mov         ebx,42D248h
  0040409B: 50                 push        eax
  0040409C: 53                 push        ebx
  0040409D: E8 18 22 00 00     call        004062BA
  004040A2: FF 76 18           push        dword ptr [esi+18h]
  004040A5: 53                 push        ebx
  004040A6: E8 25 22 00 00     call        004062D0
  004040AB: 8D 04 45 48 D2 42  lea         eax,[eax*2+0042D248h]
            00
  004040B2: 50                 push        eax
  004040B3: E8 24 22 00 00     call        004062DC
  004040B8: 53                 push        ebx
  004040B9: 57                 push        edi
  004040BA: FF 15 5C 82 40 00  call        dword ptr ds:[0040825Ch]
  004040C0: 55                 push        ebp
  004040C1: FF 76 08           push        dword ptr [esi+8]
  004040C4: E8 C0 D2 FF FF     call        00401389
  004040C9: 85 C0              test        eax,eax
  004040CB: 0F 85 97 FE FF FF  jne         00403F68
  004040D1: 39 2E              cmp         dword ptr [esi],ebp
  004040D3: 0F 84 8F FE FF FF  je          00403F68
  004040D9: 83 7E 04 05        cmp         dword ptr [esi+4],5
  004040DD: 75 1D              jne         004040FC
  004040DF: 39 2D 8C 4F 43 00  cmp         dword ptr ds:[00434F8Ch],ebp
  004040E5: 0F 85 13 01 00 00  jne         004041FE
  004040EB: 39 2D 80 4F 43 00  cmp         dword ptr ds:[00434F80h],ebp
  004040F1: 0F 85 71 FE FF FF  jne         00403F68
  004040F7: E9 02 01 00 00     jmp         004041FE
  004040FC: FF 35 B8 3E 43 00  push        dword ptr ds:[00433EB8h]
  00404102: FF 15 50 82 40 00  call        dword ptr ds:[00408250h]
  00404108: 89 35 20 C2 42 00  mov         dword ptr ds:[0042C220h],esi
  0040410E: 39 2E              cmp         dword ptr [esi],ebp
  00404110: 0F 8E C5 00 00 00  jle         004041DB
  00404116: 8B 46 04           mov         eax,dword ptr [esi+4]
  00404119: 56                 push        esi
  0040411A: FF 34 85 6C A3 40  push        dword ptr [eax*4+0040A36Ch]
            00
  00404121: 66 8B 06           mov         ax,word ptr [esi]
  00404124: 66 03 05 C0 3E 43  add         ax,word ptr ds:[00433EC0h]
            00
  0040412B: 57                 push        edi
  0040412C: 0F B7 C0           movzx       eax,ax
  0040412F: 50                 push        eax
  00404130: FF 35 E0 4E 43 00  push        dword ptr ds:[00434EE0h]
  00404136: FF 15 88 82 40 00  call        dword ptr ds:[00408288h]
  0040413C: 3B C5              cmp         eax,ebp
  0040413E: A3 B8 3E 43 00     mov         dword ptr ds:[00433EB8h],eax
  00404143: 0F 84 92 00 00 00  je          004041DB
  00404149: FF 76 2C           push        dword ptr [esi+2Ch]
  0040414C: 6A 06              push        6
  0040414E: 50                 push        eax
  0040414F: E8 DD 00 00 00     call        00404231
  00404154: 8D 44 24 10        lea         eax,[esp+10h]
  00404158: 50                 push        eax
  00404159: 68 FA 03 00 00     push        3FAh
  0040415E: 57                 push        edi
  0040415F: FF 15 E4 81 40 00  call        dword ptr ds:[004081E4h]
  00404165: 50                 push        eax
  00404166: FF 15 E0 81 40 00  call        dword ptr ds:[004081E0h]
  0040416C: 8D 44 24 10        lea         eax,[esp+10h]
  00404170: 50                 push        eax
  00404171: 57                 push        edi
  00404172: FF 15 DC 81 40 00  call        dword ptr ds:[004081DCh]
  00404178: 6A 15              push        15h
  0040417A: 55                 push        ebp
  0040417B: 55                 push        ebp
  0040417C: FF 74 24 20        push        dword ptr [esp+20h]
  00404180: FF 74 24 20        push        dword ptr [esp+20h]
  00404184: 55                 push        ebp
  00404185: FF 35 B8 3E 43 00  push        dword ptr ds:[00433EB8h]
  0040418B: FF 15 A4 81 40 00  call        dword ptr ds:[004081A4h]
  00404191: 55                 push        ebp
  00404192: FF 76 0C           push        dword ptr [esi+0Ch]
  00404195: E8 EF D1 FF FF     call        00401389
  0040419A: 39 2D AC 3E 43 00  cmp         dword ptr ds:[00433EACh],ebp
  004041A0: 75 5C              jne         004041FE
  004041A2: 6A 08              push        8
  004041A4: FF 35 B8 3E 43 00  push        dword ptr ds:[00433EB8h]
  004041AA: FF 15 68 82 40 00  call        dword ptr ds:[00408268h]
  004041B0: 68 05 04 00 00     push        405h
  004041B5: E8 C3 00 00 00     call        0040427D
  004041BA: EB 1F              jmp         004041DB
  004041BC: FF 35 B8 3E 43 00  push        dword ptr ds:[00433EB8h]
  004041C2: FF 15 50 82 40 00  call        dword ptr ds:[00408250h]
  004041C8: FF 35 18 BA 42 00  push        dword ptr ds:[0042BA18h]
  004041CE: 89 2D E8 4E 43 00  mov         dword ptr ds:[00434EE8h],ebp
  004041D4: 57                 push        edi
  004041D5: FF 15 30 82 40 00  call        dword ptr ds:[00408230h]
  004041DB: 39 2D 48 F2 42 00  cmp         dword ptr ds:[0042F248h],ebp
  004041E1: 75 1B              jne         004041FE
  004041E3: 39 2D B8 3E 43 00  cmp         dword ptr ds:[00433EB8h],ebp
  004041E9: 74 13              je          004041FE
  004041EB: 6A 0A              push        0Ah
  004041ED: 57                 push        edi
  004041EE: FF 15 68 82 40 00  call        dword ptr ds:[00408268h]
  004041F4: C7 05 48 F2 42 00  mov         dword ptr ds:[0042F248h],1
            01 00 00 00
  004041FE: 33 C0              xor         eax,eax
  00404200: 5F                 pop         edi
  00404201: 5E                 pop         esi
  00404202: 5D                 pop         ebp
  00404203: 5B                 pop         ebx
  00404204: 83 C4 10           add         esp,10h
  00404207: C2 10 00           ret         10h
  0040420A: 83 7C 24 04 78     cmp         dword ptr [esp+4],78h
  0040420F: 75 06              jne         00404217
  00404211: FF 05 AC 3E 43 00  inc         dword ptr ds:[00433EACh]
  00404217: 6A 00              push        0
  00404219: FF 74 24 08        push        dword ptr [esp+8]
  0040421D: 68 08 04 00 00     push        408h
  00404222: FF 35 E8 4E 43 00  push        dword ptr ds:[00434EE8h]
  00404228: FF 15 18 82 40 00  call        dword ptr ds:[00408218h]
  0040422E: C2 04 00           ret         4
  00404231: FF 74 24 0C        push        dword ptr [esp+0Ch]
  00404235: 6A 00              push        0
  00404237: E8 A0 20 00 00     call        004062DC
  0040423C: 50                 push        eax
  0040423D: 8B 44 24 0C        mov         eax,dword ptr [esp+0Ch]
  00404241: 05 E8 03 00 00     add         eax,3E8h
  00404246: 50                 push        eax
  00404247: FF 74 24 0C        push        dword ptr [esp+0Ch]
  0040424B: E8 AE 16 00 00     call        004058FE
  00404250: C2 0C 00           ret         0Ch
  00404253: FF 74 24 04        push        dword ptr [esp+4]
  00404257: FF 35 44 D2 42 00  push        dword ptr ds:[0042D244h]
  0040425D: FF 15 10 82 40 00  call        dword ptr ds:[00408210h]
  00404263: C2 04 00           ret         4
  00404266: 6A 01              push        1
  00404268: FF 74 24 08        push        dword ptr [esp+8]
  0040426C: 6A 28              push        28h
  0040426E: FF 35 E8 4E 43 00  push        dword ptr ds:[00434EE8h]
  00404274: FF 15 18 82 40 00  call        dword ptr ds:[00408218h]
  0040427A: C2 04 00           ret         4
  0040427D: A1 B8 3E 43 00     mov         eax,dword ptr ds:[00433EB8h]
  00404282: 85 C0              test        eax,eax
  00404284: 74 0F              je          00404295
  00404286: 6A 00              push        0
  00404288: 6A 00              push        0
  0040428A: FF 74 24 0C        push        dword ptr [esp+0Ch]
  0040428E: 50                 push        eax
  0040428F: FF 15 18 82 40 00  call        dword ptr ds:[00408218h]
  00404295: C2 04 00           ret         4
  00404298: 55                 push        ebp
  00404299: 8B EC              mov         ebp,esp
  0040429B: 83 EC 0C           sub         esp,0Ch
  0040429E: 8B 45 08           mov         eax,dword ptr [ebp+8]
  004042A1: 56                 push        esi
  004042A2: 05 CD FE FF FF     add         eax,0FFFFFECDh
  004042A7: 83 F8 05           cmp         eax,5
  004042AA: 0F 87 B0 00 00 00  ja          00404360
  004042B0: 6A EB              push        0FFFFFFEBh
  004042B2: FF 75 10           push        dword ptr [ebp+10h]
  004042B5: FF 15 AC 81 40 00  call        dword ptr ds:[004081ACh]
  004042BB: 8B F0              mov         esi,eax
  004042BD: 85 F6              test        esi,esi
  004042BF: 0F 84 9B 00 00 00  je          00404360
  004042C5: 83 7E 08 01        cmp         dword ptr [esi+8],1
  004042C9: 0F 87 91 00 00 00  ja          00404360
  004042CF: 83 7E 10 02        cmp         dword ptr [esi+10h],2
  004042D3: 0F 87 87 00 00 00  ja          00404360
  004042D9: 8B 4E 14           mov         ecx,dword ptr [esi+14h]
  004042DC: F7 C1 E0 FF FF FF  test        ecx,0FFFFFFE0h
  004042E2: 75 7C              jne         00404360
  004042E4: 8B 06              mov         eax,dword ptr [esi]
  004042E6: 57                 push        edi
  004042E7: 8B 3D A8 81 40 00  mov         edi,dword ptr ds:[004081A8h]
  004042ED: F6 C1 02           test        cl,2
  004042F0: 74 03              je          004042F5
  004042F2: 50                 push        eax
  004042F3: FF D7              call        edi
  004042F5: F6 46 14 01        test        byte ptr [esi+14h],1
  004042F9: 74 0A              je          00404305
  004042FB: 50                 push        eax
  004042FC: FF 75 0C           push        dword ptr [ebp+0Ch]
  004042FF: FF 15 58 80 40 00  call        dword ptr ds:[00408058h]
  00404305: FF 76 10           push        dword ptr [esi+10h]
  00404308: FF 75 0C           push        dword ptr [ebp+0Ch]
  0040430B: FF 15 50 80 40 00  call        dword ptr ds:[00408050h]
  00404311: 8B 46 04           mov         eax,dword ptr [esi+4]
  00404314: F6 46 14 08        test        byte ptr [esi+14h],8
  00404318: 89 45 F8           mov         dword ptr [ebp-8],eax
  0040431B: 74 06              je          00404323
  0040431D: 50                 push        eax
  0040431E: FF D7              call        edi
  00404320: 89 45 F8           mov         dword ptr [ebp-8],eax
  00404323: F6 46 14 04        test        byte ptr [esi+14h],4
  00404327: 5F                 pop         edi
  00404328: 74 0A              je          00404334
  0040432A: 50                 push        eax
  0040432B: FF 75 0C           push        dword ptr [ebp+0Ch]
  0040432E: FF 15 68 80 40 00  call        dword ptr ds:[00408068h]
  00404334: F6 46 14 10        test        byte ptr [esi+14h],10h
  00404338: 74 21              je          0040435B
  0040433A: 8B 46 08           mov         eax,dword ptr [esi+8]
  0040433D: 89 45 F4           mov         dword ptr [ebp-0Ch],eax
  00404340: 8B 46 0C           mov         eax,dword ptr [esi+0Ch]
  00404343: 85 C0              test        eax,eax
  00404345: 74 07              je          0040434E
  00404347: 50                 push        eax
  00404348: FF 15 5C 80 40 00  call        dword ptr ds:[0040805Ch]
  0040434E: 8D 45 F4           lea         eax,[ebp-0Ch]
  00404351: 50                 push        eax
  00404352: FF 15 64 80 40 00  call        dword ptr ds:[00408064h]
  00404358: 89 46 0C           mov         dword ptr [esi+0Ch],eax
  0040435B: 8B 46 0C           mov         eax,dword ptr [esi+0Ch]
  0040435E: EB 02              jmp         00404362
  00404360: 33 C0              xor         eax,eax
  00404362: 5E                 pop         esi
  00404363: C9                 leave
  00404364: C2 0C 00           ret         0Ch
  00404367: 55                 push        ebp
  00404368: 8B EC              mov         ebp,esp
  0040436A: 8B 45 10           mov         eax,dword ptr [ebp+10h]
  0040436D: 8B 0D 14 B2 42 00  mov         ecx,dword ptr ds:[0042B214h]
  00404373: D1 E8              shr         eax,1
  00404375: 50                 push        eax
  00404376: 8B 45 08           mov         eax,dword ptr [ebp+8]
  00404379: 03 C8              add         ecx,eax
  0040437B: 51                 push        ecx
  0040437C: FF 75 0C           push        dword ptr [ebp+0Ch]
  0040437F: FF 15 B0 80 40 00  call        dword ptr ds:[004080B0h]
  00404385: FF 75 0C           push        dword ptr [ebp+0Ch]
  00404388: FF 15 AC 80 40 00  call        dword ptr ds:[004080ACh]
  0040438E: 8B 4D 14           mov         ecx,dword ptr [ebp+14h]
  00404391: 03 C0              add         eax,eax
  00404393: 89 01              mov         dword ptr [ecx],eax
  00404395: 01 05 14 B2 42 00  add         dword ptr ds:[0042B214h],eax
  0040439B: 33 C0              xor         eax,eax
  0040439D: 5D                 pop         ebp
  0040439E: C2 10 00           ret         10h
  004043A1: 55                 push        ebp
  004043A2: 8B EC              mov         ebp,esp
  004043A4: A1 14 B2 42 00     mov         eax,dword ptr ds:[0042B214h]
  004043A9: 56                 push        esi
  004043AA: 8B 75 08           mov         esi,dword ptr [ebp+8]
  004043AD: 8D 04 46           lea         eax,[esi+eax*2]
  004043B0: 50                 push        eax
  004043B1: FF 15 AC 80 40 00  call        dword ptr ds:[004080ACh]
  004043B7: 8B 4D 10           mov         ecx,dword ptr [ebp+10h]
  004043BA: D1 E9              shr         ecx,1
  004043BC: 3B C1              cmp         eax,ecx
  004043BE: 72 02              jb          004043C2
  004043C0: 8B C1              mov         eax,ecx
  004043C2: 33 C9              xor         ecx,ecx
  004043C4: 51                 push        ecx
  004043C5: 51                 push        ecx
  004043C6: FF 75 10           push        dword ptr [ebp+10h]
  004043C9: FF 75 0C           push        dword ptr [ebp+0Ch]
  004043CC: 50                 push        eax
  004043CD: A1 14 B2 42 00     mov         eax,dword ptr ds:[0042B214h]
  004043D2: 8D 04 46           lea         eax,[esi+eax*2]
  004043D5: 50                 push        eax
  004043D6: 51                 push        ecx
  004043D7: 51                 push        ecx
  004043D8: FF 15 5C 81 40 00  call        dword ptr ds:[0040815Ch]
  004043DE: 8B 4D 14           mov         ecx,dword ptr [ebp+14h]
  004043E1: 5E                 pop         esi
  004043E2: 89 01              mov         dword ptr [ecx],eax
  004043E4: 01 05 14 B2 42 00  add         dword ptr ds:[0042B214h],eax
  004043EA: 33 C0              xor         eax,eax
  004043EC: 5D                 pop         ebp
  004043ED: C2 10 00           ret         10h
  004043F0: 55                 push        ebp
  004043F1: 8B EC              mov         ebp,esp
  004043F3: 83 EC 0C           sub         esp,0Ch
  004043F6: 53                 push        ebx
  004043F7: 33 DB              xor         ebx,ebx
  004043F9: 81 7D 0C 10 01 00  cmp         dword ptr [ebp+0Ch],110h
            00
  00404400: 56                 push        esi
  00404401: 57                 push        edi
  00404402: 0F 85 1A 01 00 00  jne         00404522
  00404408: 8B 7D 14           mov         edi,dword ptr [ebp+14h]
  0040440B: 8B 47 30           mov         eax,dword ptr [edi+30h]
  0040440E: 3B C3              cmp         eax,ebx
  00404410: 7D 11              jge         00404423
  00404412: 8B 0D BC 3E 43 00  mov         ecx,dword ptr ds:[00433EBCh]
  00404418: 8D 04 85 04 00 00  lea         eax,[eax*4+00000004h]
            00
  0040441F: 2B C8              sub         ecx,eax
  00404421: 8B 01              mov         eax,dword ptr [ecx]
  00404423: 8B 0D 38 4F 43 00  mov         ecx,dword ptr ds:[00434F38h]
  00404429: 8D 04 41           lea         eax,[ecx+eax*2]
  0040442C: 0F B7 08           movzx       ecx,word ptr [eax]
  0040442F: 40                 inc         eax
  00404430: 89 4D 0C           mov         dword ptr [ebp+0Ch],ecx
  00404433: 40                 inc         eax
  00404434: 83 F9 02           cmp         ecx,2
  00404437: 89 45 14           mov         dword ptr [ebp+14h],eax
  0040443A: 89 45 F4           mov         dword ptr [ebp-0Ch],eax
  0040443D: 89 5D F8           mov         dword ptr [ebp-8],ebx
  00404440: C7 45 FC A1 43 40  mov         dword ptr [ebp-4],4043A1h
            00
  00404447: 74 07              je          00404450
  00404449: C7 45 FC 67 43 40  mov         dword ptr [ebp-4],404367h
            00
  00404450: 8B 47 14           mov         eax,dword ptr [edi+14h]
  00404453: FF 77 34           push        dword ptr [edi+34h]
  00404456: 8B F0              mov         esi,eax
  00404458: 83 E0 01           and         eax,1
  0040445B: F7 D6              not         esi
  0040445D: C1 EE 05           shr         esi,5
  00404460: 6A 22              push        22h
  00404462: 83 E6 01           and         esi,1
  00404465: FF 75 08           push        dword ptr [ebp+8]
  00404468: 0B F0              or          esi,eax
  0040446A: E8 C2 FD FF FF     call        00404231
  0040446F: FF 77 38           push        dword ptr [edi+38h]
  00404472: 6A 23              push        23h
  00404474: FF 75 08           push        dword ptr [ebp+8]
  00404477: E8 B5 FD FF FF     call        00404231
  0040447C: 33 C0              xor         eax,eax
  0040447E: 3B F3              cmp         esi,ebx
  00404480: 0F 94 C0           sete        al
  00404483: 05 0A 04 00 00     add         eax,40Ah
  00404488: 6A 01              push        1
  0040448A: 50                 push        eax
  0040448B: FF 75 08           push        dword ptr [ebp+8]
  0040448E: FF 15 B8 81 40 00  call        dword ptr ds:[004081B8h]
  00404494: 56                 push        esi
  00404495: E8 B9 FD FF FF     call        00404253
  0040449A: 68 E8 03 00 00     push        3E8h
  0040449F: FF 75 08           push        dword ptr [ebp+8]
  004044A2: FF 15 E4 81 40 00  call        dword ptr ds:[004081E4h]
  004044A8: 8B F8              mov         edi,eax
  004044AA: 57                 push        edi
  004044AB: E8 B6 FD FF FF     call        00404266
  004044B0: 8B 35 18 82 40 00  mov         esi,dword ptr ds:[00408218h]
  004044B6: 53                 push        ebx
  004044B7: 6A 01              push        1
  004044B9: 68 5B 04 00 00     push        45Bh
  004044BE: 57                 push        edi
  004044BF: FF D6              call        esi
  004044C1: A1 F4 4E 43 00     mov         eax,dword ptr ds:[00434EF4h]
  004044C6: 8B 40 68           mov         eax,dword ptr [eax+68h]
  004044C9: 3B C3              cmp         eax,ebx
  004044CB: 7D 09              jge         004044D6
  004044CD: F7 D8              neg         eax
  004044CF: 50                 push        eax
  004044D0: FF 15 A8 81 40 00  call        dword ptr ds:[004081A8h]
  004044D6: 50                 push        eax
  004044D7: 53                 push        ebx
  004044D8: 68 43 04 00 00     push        443h
  004044DD: 57                 push        edi
  004044DE: FF D6              call        esi
  004044E0: 68 00 00 01 04     push        4010000h
  004044E5: 53                 push        ebx
  004044E6: 68 45 04 00 00     push        445h
  004044EB: 57                 push        edi
  004044EC: FF D6              call        esi
  004044EE: FF 75 14           push        dword ptr [ebp+14h]
  004044F1: E8 DA 1D 00 00     call        004062D0
  004044F6: 50                 push        eax
  004044F7: 53                 push        ebx
  004044F8: 68 35 04 00 00     push        435h
  004044FD: 57                 push        edi
  004044FE: FF D6              call        esi
  00404500: 8D 45 F4           lea         eax,[ebp-0Ch]
  00404503: 89 1D 14 B2 42 00  mov         dword ptr ds:[0042B214h],ebx
  00404509: 50                 push        eax
  0040450A: FF 75 0C           push        dword ptr [ebp+0Ch]
  0040450D: 68 49 04 00 00     push        449h
  00404512: 57                 push        edi
  00404513: FF D6              call        esi
  00404515: 89 1D 14 B2 42 00  mov         dword ptr ds:[0042B214h],ebx
  0040451B: 33 C0              xor         eax,eax
  0040451D: E9 52 01 00 00     jmp         00404674
  00404522: 81 7D 0C 11 01 00  cmp         dword ptr [ebp+0Ch],111h
            00
  00404529: 8B 35 18 82 40 00  mov         esi,dword ptr ds:[00408218h]
  0040452F: 75 5B              jne         0040458C
  00404531: 8B 45 10           mov         eax,dword ptr [ebp+10h]
  00404534: C1 E8 10           shr         eax,10h
  00404537: 66 85 C0           test        ax,ax
  0040453A: 0F 85 25 01 00 00  jne         00404665
  00404540: 39 1D 14 B2 42 00  cmp         dword ptr ds:[0042B214h],ebx
  00404546: 0F 85 19 01 00 00  jne         00404665
  0040454C: A1 20 C2 42 00     mov         eax,dword ptr ds:[0042C220h]
  00404551: 8D 78 14           lea         edi,[eax+14h]
  00404554: F6 07 20           test        byte ptr [edi],20h
  00404557: 0F 84 08 01 00 00  je          00404665
  0040455D: 53                 push        ebx
  0040455E: 53                 push        ebx
  0040455F: 68 F0 00 00 00     push        0F0h
  00404564: 68 0A 04 00 00     push        40Ah
  00404569: FF 75 08           push        dword ptr [ebp+8]
  0040456C: FF 15 E4 81 40 00  call        dword ptr ds:[004081E4h]
  00404572: 50                 push        eax
  00404573: FF D6              call        esi
  00404575: 8B 0F              mov         ecx,dword ptr [edi]
  00404577: 83 E0 01           and         eax,1
  0040457A: 83 E1 FE           and         ecx,0FFFFFFFEh
  0040457D: 50                 push        eax
  0040457E: 0B C8              or          ecx,eax
  00404580: 89 0F              mov         dword ptr [edi],ecx
  00404582: E8 CC FC FF FF     call        00404253
  00404587: E8 EF 00 00 00     call        0040467B
  0040458C: 83 7D 0C 4E        cmp         dword ptr [ebp+0Ch],4Eh
  00404590: 0F 85 C0 00 00 00  jne         00404656
  00404596: 68 E8 03 00 00     push        3E8h
  0040459B: FF 75 08           push        dword ptr [ebp+8]
  0040459E: FF 15 E4 81 40 00  call        dword ptr ds:[004081E4h]
  004045A4: 8B 7D 14           mov         edi,dword ptr [ebp+14h]
  004045A7: 81 7F 08 0B 07 00  cmp         dword ptr [edi+8],70Bh
            00
  004045AE: 75 67              jne         00404617
  004045B0: 81 7F 0C 01 02 00  cmp         dword ptr [edi+0Ch],201h
            00
  004045B7: 75 5E              jne         00404617
  004045B9: 8B 4F 1C           mov         ecx,dword ptr [edi+1Ch]
  004045BC: 8B 57 18           mov         edx,dword ptr [edi+18h]
  004045BF: 89 4D F8           mov         dword ptr [ebp-8],ecx
  004045C2: 2B CA              sub         ecx,edx
  004045C4: 81 F9 00 08 00 00  cmp         ecx,800h
  004045CA: 89 55 F4           mov         dword ptr [ebp-0Ch],edx
  004045CD: C7 45 FC 80 2E 43  mov         dword ptr [ebp-4],432E80h
            00
  004045D4: 73 41              jae         00404617
  004045D6: 8D 4D F4           lea         ecx,[ebp-0Ch]
  004045D9: 51                 push        ecx
  004045DA: 53                 push        ebx
  004045DB: 68 4B 04 00 00     push        44Bh
  004045E0: 50                 push        eax
  004045E1: FF D6              call        esi
  004045E3: 8B 3D B4 81 40 00  mov         edi,dword ptr ds:[004081B4h]
  004045E9: 68 02 7F 00 00     push        7F02h
  004045EE: 53                 push        ebx
  004045EF: FF D7              call        edi
  004045F1: 50                 push        eax
  004045F2: FF 15 B0 81 40 00  call        dword ptr ds:[004081B0h]
  004045F8: 6A 01              push        1
  004045FA: FF 75 FC           push        dword ptr [ebp-4]
  004045FD: FF 75 08           push        dword ptr [ebp+8]
  00404600: E8 9A 00 00 00     call        0040469F
  00404605: 68 00 7F 00 00     push        7F00h
  0040460A: 53                 push        ebx
  0040460B: FF D7              call        edi
  0040460D: 50                 push        eax
  0040460E: FF 15 B0 81 40 00  call        dword ptr ds:[004081B0h]
  00404614: 8B 7D 14           mov         edi,dword ptr [ebp+14h]
  00404617: 81 7F 08 00 07 00  cmp         dword ptr [edi+8],700h
            00
  0040461E: 75 48              jne         00404668
  00404620: 81 7F 0C 00 01 00  cmp         dword ptr [edi+0Ch],100h
            00
  00404627: 75 3F              jne         00404668
  00404629: 83 7F 10 0D        cmp         dword ptr [edi+10h],0Dh
  0040462D: 75 10              jne         0040463F
  0040462F: 53                 push        ebx
  00404630: 6A 01              push        1
  00404632: 68 11 01 00 00     push        111h
  00404637: FF 35 E8 4E 43 00  push        dword ptr ds:[00434EE8h]
  0040463D: FF D6              call        esi
  0040463F: 83 7F 10 1B        cmp         dword ptr [edi+10h],1Bh
  00404643: 75 0C              jne         00404651
  00404645: 53                 push        ebx
  00404646: 53                 push        ebx
  00404647: 6A 10              push        10h
  00404649: FF 35 E8 4E 43 00  push        dword ptr ds:[00434EE8h]
  0040464F: FF D6              call        esi
  00404651: 33 C0              xor         eax,eax
  00404653: 40                 inc         eax
  00404654: EB 1E              jmp         00404674
  00404656: 81 7D 0C 0B 04 00  cmp         dword ptr [ebp+0Ch],40Bh
            00
  0040465D: 75 06              jne         00404665
  0040465F: FF 05 14 B2 42 00  inc         dword ptr ds:[0042B214h]
  00404665: 8B 7D 14           mov         edi,dword ptr [ebp+14h]
  00404668: 57                 push        edi
  00404669: FF 75 10           push        dword ptr [ebp+10h]
  0040466C: FF 75 0C           push        dword ptr [ebp+0Ch]
  0040466F: E8 24 FC FF FF     call        00404298
  00404674: 5F                 pop         edi
  00404675: 5E                 pop         esi
  00404676: 5B                 pop         ebx
  00404677: C9                 leave
  00404678: C2 10 00           ret         10h
  0040467B: 83 3D 8C 4F 43 00  cmp         dword ptr ds:[00434F8Ch],0
            00
  00404682: A1 10 B2 42 00     mov         eax,dword ptr ds:[0042B210h]
  00404687: 75 05              jne         0040468E
  00404689: A1 44 D2 42 00     mov         eax,dword ptr ds:[0042D244h]
  0040468E: 6A 01              push        1
  00404690: 6A 01              push        1
  00404692: 68 F4 00 00 00     push        0F4h
  00404697: 50                 push        eax
  00404698: FF 15 18 82 40 00  call        dword ptr ds:[00408218h]
  0040469E: C3                 ret
  0040469F: 55                 push        ebp
  004046A0: 8B EC              mov         ebp,esp
  004046A2: 83 EC 3C           sub         esp,3Ch
  004046A5: 8B 45 08           mov         eax,dword ptr [ebp+8]
  004046A8: 83 65 D8 00        and         dword ptr [ebp-28h],0
  004046AC: 83 65 DC 00        and         dword ptr [ebp-24h],0
  004046B0: 89 45 CC           mov         dword ptr [ebp-34h],eax
  004046B3: 8B 45 0C           mov         eax,dword ptr [ebp+0Ch]
  004046B6: C7 45 C8 00 05 00  mov         dword ptr [ebp-38h],500h
            00
  004046BD: 89 45 D4           mov         dword ptr [ebp-2Ch],eax
  004046C0: 8D 45 C4           lea         eax,[ebp-3Ch]
  004046C3: 50                 push        eax
  004046C4: C7 45 E0 01 00 00  mov         dword ptr [ebp-20h],1
            00
  004046CB: C7 45 D0 94 A3 40  mov         dword ptr [ebp-30h],40A394h
            00
  004046D2: E8 0F 12 00 00     call        004058E6
  004046D7: C9                 leave
  004046D8: C2 0C 00           ret         0Ch
  004046DB: 55                 push        ebp
  004046DC: 8B EC              mov         ebp,esp
  004046DE: 81 7D 0C 10 01 00  cmp         dword ptr [ebp+0Ch],110h
            00
  004046E5: 56                 push        esi
  004046E6: 8B 75 14           mov         esi,dword ptr [ebp+14h]
  004046E9: 75 26              jne         00404711
  004046EB: FF 76 30           push        dword ptr [esi+30h]
  004046EE: 6A 1D              push        1Dh
  004046F0: FF 75 08           push        dword ptr [ebp+8]
  004046F3: E8 39 FB FF FF     call        00404231
  004046F8: 8B 46 3C           mov         eax,dword ptr [esi+3Ch]
  004046FB: C1 E0 0B           shl         eax,0Bh
  004046FE: 05 00 50 43 00     add         eax,435000h
  00404703: 50                 push        eax
  00404704: 68 E8 03 00 00     push        3E8h
  00404709: FF 75 08           push        dword ptr [ebp+8]
  0040470C: E8 ED 11 00 00     call        004058FE
  00404711: 56                 push        esi
  00404712: FF 75 10           push        dword ptr [ebp+10h]
  00404715: FF 75 0C           push        dword ptr [ebp+0Ch]
  00404718: E8 7B FB FF FF     call        00404298
  0040471D: 5E                 pop         esi
  0040471E: 5D                 pop         ebp
  0040471F: C2 10 00           ret         10h
  00404722: 55                 push        ebp
  00404723: 8B EC              mov         ebp,esp
  00404725: 83 EC 4C           sub         esp,4Ch
  00404728: A1 20 C2 42 00     mov         eax,dword ptr ds:[0042C220h]
  0040472D: 53                 push        ebx
  0040472E: 89 45 E4           mov         dword ptr [ebp-1Ch],eax
  00404731: 56                 push        esi
  00404732: 8B 58 3C           mov         ebx,dword ptr [eax+3Ch]
  00404735: 8B 40 38           mov         eax,dword ptr [eax+38h]
  00404738: C1 E3 0B           shl         ebx,0Bh
  0040473B: 81 C3 00 50 43 00  add         ebx,435000h
  00404741: 81 7D 0C 0B 04 00  cmp         dword ptr [ebp+0Ch],40Bh
            00
  00404748: 57                 push        edi
  00404749: 89 45 F8           mov         dword ptr [ebp-8],eax
  0040474C: 75 11              jne         0040475F
  0040474E: 53                 push        ebx
  0040474F: 68 FB 03 00 00     push        3FBh
  00404754: E8 AB 11 00 00     call        00405904
  00404759: 53                 push        ebx
  0040475A: E8 EF 1D 00 00     call        0040654E
  0040475F: 81 7D 0C 10 01 00  cmp         dword ptr [ebp+0Ch],110h
            00
  00404766: 8B 75 08           mov         esi,dword ptr [ebp+8]
  00404769: 75 6C              jne         004047D7
  0040476B: 68 FB 03 00 00     push        3FBh
  00404770: 56                 push        esi
  00404771: FF 15 E4 81 40 00  call        dword ptr ds:[004081E4h]
  00404777: 53                 push        ebx
  00404778: 8B F8              mov         edi,eax
  0040477A: E8 87 14 00 00     call        00405C06
  0040477F: 85 C0              test        eax,eax
  00404781: 74 10              je          00404793
  00404783: 53                 push        ebx
  00404784: E8 B1 14 00 00     call        00405C3A
  00404789: 85 C0              test        eax,eax
  0040478B: 75 06              jne         00404793
  0040478D: 53                 push        ebx
  0040478E: E8 FC 13 00 00     call        00405B8F
  00404793: 53                 push        ebx
  00404794: 57                 push        edi
  00404795: 89 35 B8 3E 43 00  mov         dword ptr ds:[00433EB8h],esi
  0040479B: FF 15 5C 82 40 00  call        dword ptr ds:[0040825Ch]
  004047A1: 8B 45 14           mov         eax,dword ptr [ebp+14h]
  004047A4: FF 70 34           push        dword ptr [eax+34h]
  004047A7: 6A 01              push        1
  004047A9: 56                 push        esi
  004047AA: E8 82 FA FF FF     call        00404231
  004047AF: 8B 45 14           mov         eax,dword ptr [ebp+14h]
  004047B2: FF 70 30           push        dword ptr [eax+30h]
  004047B5: 6A 14              push        14h
  004047B7: 56                 push        esi
  004047B8: E8 74 FA FF FF     call        00404231
  004047BD: 57                 push        edi
  004047BE: E8 A3 FA FF FF     call        00404266
  004047C3: 6A 07              push        7
  004047C5: E8 CA 1E 00 00     call        00406694
  004047CA: 85 C0              test        eax,eax
  004047CC: 0F 84 91 02 00 00  je          00404A63
  004047D2: 6A 01              push        1
  004047D4: 57                 push        edi
  004047D5: FF D0              call        eax
  004047D7: 81 7D 0C 11 01 00  cmp         dword ptr [ebp+0Ch],111h
            00
  004047DE: 0F 85 D1 00 00 00  jne         004048B5
  004047E4: 0F B7 45 10        movzx       eax,word ptr [ebp+10h]
  004047E8: 3D FB 03 00 00     cmp         eax,3FBh
  004047ED: 75 18              jne         00404807
  004047EF: 8B 4D 10           mov         ecx,dword ptr [ebp+10h]
  004047F2: C1 E9 10           shr         ecx,10h
  004047F5: 66 81 F9 00 03     cmp         cx,300h
  004047FA: 0F 85 63 02 00 00  jne         00404A63
  00404800: C7 45 0C 0F 04 00  mov         dword ptr [ebp+0Ch],40Fh
            00
  00404807: 3D E9 03 00 00     cmp         eax,3E9h
  0040480C: 0F 85 A3 00 00 00  jne         004048B5
  00404812: 6A 07              push        7
  00404814: 33 C0              xor         eax,eax
  00404816: 59                 pop         ecx
  00404817: 8D 7D B8           lea         edi,[ebp-48h]
  0040481A: FF 75 F8           push        dword ptr [ebp-8]
  0040481D: F3 AB              rep stos    dword ptr es:[edi]
  0040481F: BF 48 D2 42 00     mov         edi,42D248h
  00404824: 68 20 BA 42 00     push        42BA20h
  00404829: 89 75 B4           mov         dword ptr [ebp-4Ch],esi
  0040482C: 89 7D BC           mov         dword ptr [ebp-44h],edi
  0040482F: C7 45 C8 78 4A 40  mov         dword ptr [ebp-38h],404A78h
            00
  00404836: 89 5D CC           mov         dword ptr [ebp-34h],ebx
  00404839: E8 9E 1A 00 00     call        004062DC
  0040483E: 89 45 C0           mov         dword ptr [ebp-40h],eax
  00404841: 8D 45 B4           lea         eax,[ebp-4Ch]
  00404844: 50                 push        eax
  00404845: C7 45 C4 41 00 00  mov         dword ptr [ebp-3Ch],41h
            00
  0040484C: FF 15 84 81 40 00  call        dword ptr ds:[00408184h]
  00404852: 85 C0              test        eax,eax
  00404854: 74 58              je          004048AE
  00404856: 50                 push        eax
  00404857: FF 15 A4 82 40 00  call        dword ptr ds:[004082A4h]
  0040485D: 53                 push        ebx
  0040485E: E8 2C 13 00 00     call        00405B8F
  00404863: A1 F4 4E 43 00     mov         eax,dword ptr ds:[00434EF4h]
  00404868: 8B 80 1C 01 00 00  mov         eax,dword ptr [eax+0000011Ch]
  0040486E: 85 C0              test        eax,eax
  00404870: 74 28              je          0040489A
  00404872: 81 FB 00 F8 43 00  cmp         ebx,43F800h
  00404878: 75 20              jne         0040489A
  0040487A: 50                 push        eax
  0040487B: 6A 00              push        0
  0040487D: E8 5A 1A 00 00     call        004062DC
  00404882: 57                 push        edi
  00404883: BF 80 2E 43 00     mov         edi,432E80h
  00404888: 57                 push        edi
  00404889: FF 15 04 81 40 00  call        dword ptr ds:[00408104h]
  0040488F: 85 C0              test        eax,eax
  00404891: 74 07              je          0040489A
  00404893: 57                 push        edi
  00404894: 53                 push        ebx
  00404895: E8 3C 1A 00 00     call        004062D6
  0040489A: FF 05 38 D2 42 00  inc         dword ptr ds:[0042D238h]
  004048A0: 53                 push        ebx
  004048A1: 68 FB 03 00 00     push        3FBh
  004048A6: 56                 push        esi
  004048A7: E8 52 10 00 00     call        004058FE
  004048AC: EB 07              jmp         004048B5
  004048AE: C7 45 0C 0F 04 00  mov         dword ptr [ebp+0Ch],40Fh
            00
  004048B5: 81 7D 0C 0F 04 00  cmp         dword ptr [ebp+0Ch],40Fh
            00
  004048BC: 74 0D              je          004048CB
  004048BE: 81 7D 0C 05 04 00  cmp         dword ptr [ebp+0Ch],405h
            00
  004048C5: 0F 85 98 01 00 00  jne         00404A63
  004048CB: 83 65 FC 00        and         dword ptr [ebp-4],0
  004048CF: 83 65 F8 00        and         dword ptr [ebp-8],0
  004048D3: 53                 push        ebx
  004048D4: 68 FB 03 00 00     push        3FBh
  004048D9: E8 26 10 00 00     call        00405904
  004048DE: 53                 push        ebx
  004048DF: E8 B3 13 00 00     call        00405C97
  004048E4: 85 C0              test        eax,eax
  004048E6: 75 07              jne         004048EF
  004048E8: C7 45 FC 01 00 00  mov         dword ptr [ebp-4],1
            00
  004048EF: BE 18 B2 42 00     mov         esi,42B218h
  004048F4: 53                 push        ebx
  004048F5: 56                 push        esi
  004048F6: E8 BF 19 00 00     call        004062BA
  004048FB: 6A 01              push        1
  004048FD: E8 92 1D 00 00     call        00406694
  00404902: 85 C0              test        eax,eax
  00404904: 89 45 F4           mov         dword ptr [ebp-0Ch],eax
  00404907: 74 3A              je          00404943
  00404909: 33 C0              xor         eax,eax
  0040490B: 33 FF              xor         edi,edi
  0040490D: 3B C6              cmp         eax,esi
  0040490F: 74 32              je          00404943
  00404911: 8D 45 DC           lea         eax,[ebp-24h]
  00404914: 50                 push        eax
  00404915: 8D 45 E8           lea         eax,[ebp-18h]
  00404918: 50                 push        eax
  00404919: 8D 45 D4           lea         eax,[ebp-2Ch]
  0040491C: 50                 push        eax
  0040491D: 56                 push        esi
  0040491E: FF 55 F4           call        dword ptr [ebp-0Ch]
  00404921: 85 C0              test        eax,eax
  00404923: 75 76              jne         0040499B
  00404925: 85 FF              test        edi,edi
  00404927: 74 03              je          0040492C
  00404929: 66 21 07           and         word ptr [edi],ax
  0040492C: 56                 push        esi
  0040492D: E8 A9 12 00 00     call        00405BDB
  00404932: 8B F8              mov         edi,eax
  00404934: 66 83 27 00        and         word ptr [edi],0
  00404938: 4F                 dec         edi
  00404939: 4F                 dec         edi
  0040493A: 3B FE              cmp         edi,esi
  0040493C: 66 C7 07 5C 00     mov         word ptr [edi],5Ch
  00404941: 75 CE              jne         00404911
  00404943: 53                 push        ebx
  00404944: 56                 push        esi
  00404945: E8 70 19 00 00     call        004062BA
  0040494A: 56                 push        esi
  0040494B: E8 EA 12 00 00     call        00405C3A
  00404950: 33 FF              xor         edi,edi
  00404952: 3B C7              cmp         eax,edi
  00404954: 74 03              je          00404959
  00404956: 66 89 38           mov         word ptr [eax],di
  00404959: 8D 45 E0           lea         eax,[ebp-20h]
  0040495C: 50                 push        eax
  0040495D: 8D 45 F4           lea         eax,[ebp-0Ch]
  00404960: 50                 push        eax
  00404961: 8D 45 EC           lea         eax,[ebp-14h]
  00404964: 50                 push        eax
  00404965: 8D 45 F0           lea         eax,[ebp-10h]
  00404968: 50                 push        eax
  00404969: 56                 push        esi
  0040496A: FF 15 B4 80 40 00  call        dword ptr ds:[004080B4h]
  00404970: 85 C0              test        eax,eax
  00404972: 74 43              je          004049B7
  00404974: 8B 45 F0           mov         eax,dword ptr [ebp-10h]
  00404977: BE 00 04 00 00     mov         esi,400h
  0040497C: 0F AF 45 EC        imul        eax,dword ptr [ebp-14h]
  00404980: 56                 push        esi
  00404981: FF 75 F4           push        dword ptr [ebp-0Ch]
  00404984: 50                 push        eax
  00404985: FF 15 54 81 40 00  call        dword ptr ds:[00408154h]
  0040498B: 99                 cdq
  0040498C: 89 45 D4           mov         dword ptr [ebp-2Ch],eax
  0040498F: 89 55 D8           mov         dword ptr [ebp-28h],edx
  00404992: C7 45 F8 01 00 00  mov         dword ptr [ebp-8],1
            00
  00404999: EB 21              jmp         004049BC
  0040499B: 8B 45 D4           mov         eax,dword ptr [ebp-2Ch]
  0040499E: 8B 4D D8           mov         ecx,dword ptr [ebp-28h]
  004049A1: 0F AC C8 0A        shrd        eax,ecx,0Ah
  004049A5: C1 E9 0A           shr         ecx,0Ah
  004049A8: 89 45 D4           mov         dword ptr [ebp-2Ch],eax
  004049AB: 89 4D D8           mov         dword ptr [ebp-28h],ecx
  004049AE: C7 45 F8 01 00 00  mov         dword ptr [ebp-8],1
            00
  004049B5: 33 FF              xor         edi,edi
  004049B7: BE 00 04 00 00     mov         esi,400h
  004049BC: 6A 05              push        5
  004049BE: E8 FC 01 00 00     call        00404BBF
  004049C3: 39 7D F8           cmp         dword ptr [ebp-8],edi
  004049C6: 74 19              je          004049E1
  004049C8: 8B 55 D8           mov         edx,dword ptr [ebp-28h]
  004049CB: 33 C9              xor         ecx,ecx
  004049CD: 3B D1              cmp         edx,ecx
  004049CF: 77 10              ja          004049E1
  004049D1: 72 07              jb          004049DA
  004049D3: 8B 4D D4           mov         ecx,dword ptr [ebp-2Ch]
  004049D6: 3B C8              cmp         ecx,eax
  004049D8: 73 07              jae         004049E1
  004049DA: C7 45 FC 02 00 00  mov         dword ptr [ebp-4],2
            00
  004049E1: 8B 0D BC 3E 43 00  mov         ecx,dword ptr ds:[00433EBCh]
  004049E7: 39 79 10           cmp         dword ptr [ecx+10h],edi
  004049EA: 74 30              je          00404A1C
  004049EC: 50                 push        eax
  004049ED: 6A FB              push        0FFFFFFFBh
  004049EF: 68 FF 03 00 00     push        3FFh
  004049F4: E8 AE 01 00 00     call        00404BA7
  004049F9: 39 7D F8           cmp         dword ptr [ebp-8],edi
  004049FC: 74 10              je          00404A0E
  004049FE: FF 75 D8           push        dword ptr [ebp-28h]
  00404A01: FF 75 D4           push        dword ptr [ebp-2Ch]
  00404A04: 6A FC              push        0FFFFFFFCh
  00404A06: 56                 push        esi
  00404A07: E8 D2 00 00 00     call        00404ADE
  00404A0C: EB 0E              jmp         00404A1C
  00404A0E: 68 08 B2 42 00     push        42B208h
  00404A13: 56                 push        esi
  00404A14: FF 75 08           push        dword ptr [ebp+8]
  00404A17: E8 E2 0E 00 00     call        004058FE
  00404A1C: 8B 45 FC           mov         eax,dword ptr [ebp-4]
  00404A1F: 3B C7              cmp         eax,edi
  00404A21: A3 A4 4F 43 00     mov         dword ptr ds:[00434FA4h],eax
  00404A26: 75 0A              jne         00404A32
  00404A28: 6A 07              push        7
  00404A2A: E8 DC C9 FF FF     call        0040140B
  00404A2F: 89 45 FC           mov         dword ptr [ebp-4],eax
  00404A32: 8B 45 E4           mov         eax,dword ptr [ebp-1Ch]
  00404A35: 85 70 14           test        dword ptr [eax+14h],esi
  00404A38: 74 03              je          00404A3D
  00404A3A: 89 7D FC           mov         dword ptr [ebp-4],edi
  00404A3D: 33 C0              xor         eax,eax
  00404A3F: 39 7D FC           cmp         dword ptr [ebp-4],edi
  00404A42: 0F 94 C0           sete        al
  00404A45: 50                 push        eax
  00404A46: E8 08 F8 FF FF     call        00404253
  00404A4B: 39 7D FC           cmp         dword ptr [ebp-4],edi
  00404A4E: 75 0D              jne         00404A5D
  00404A50: 39 3D 38 D2 42 00  cmp         dword ptr ds:[0042D238h],edi
  00404A56: 75 05              jne         00404A5D
  00404A58: E8 1E FC FF FF     call        0040467B
  00404A5D: 89 3D 38 D2 42 00  mov         dword ptr ds:[0042D238h],edi
  00404A63: FF 75 14           push        dword ptr [ebp+14h]
  00404A66: FF 75 10           push        dword ptr [ebp+10h]
  00404A69: FF 75 0C           push        dword ptr [ebp+0Ch]
  00404A6C: E8 27 F8 FF FF     call        00404298
  00404A71: 5F                 pop         edi
  00404A72: 5E                 pop         esi
  00404A73: 5B                 pop         ebx
  00404A74: C9                 leave
  00404A75: C2 10 00           ret         10h
  00404A78: 55                 push        ebp
  00404A79: 8B EC              mov         ebp,esp
  00404A7B: 83 7D 0C 01        cmp         dword ptr [ebp+0Ch],1
  00404A7F: 56                 push        esi
  00404A80: 8B 35 18 82 40 00  mov         esi,dword ptr ds:[00408218h]
  00404A86: 75 1C              jne         00404AA4
  00404A88: FF 75 14           push        dword ptr [ebp+14h]
  00404A8B: 68 FB 03 00 00     push        3FBh
  00404A90: E8 6F 0E 00 00     call        00405904
  00404A95: FF 75 14           push        dword ptr [ebp+14h]
  00404A98: 6A 01              push        1
  00404A9A: 68 67 04 00 00     push        467h
  00404A9F: FF 75 08           push        dword ptr [ebp+8]
  00404AA2: FF D6              call        esi
  00404AA4: 83 7D 0C 02        cmp         dword ptr [ebp+0Ch],2
  00404AA8: 75 2D              jne         00404AD7
  00404AAA: FF 75 14           push        dword ptr [ebp+14h]
  00404AAD: FF 75 10           push        dword ptr [ebp+10h]
  00404AB0: FF 15 80 81 40 00  call        dword ptr ds:[00408180h]
  00404AB6: 85 C0              test        eax,eax
  00404AB8: 74 0E              je          00404AC8
  00404ABA: 6A 07              push        7
  00404ABC: E8 4A C9 FF FF     call        0040140B
  00404AC1: 85 C0              test        eax,eax
  00404AC3: 75 03              jne         00404AC8
  00404AC5: 40                 inc         eax
  00404AC6: EB 02              jmp         00404ACA
  00404AC8: 33 C0              xor         eax,eax
  00404ACA: 50                 push        eax
  00404ACB: 6A 00              push        0
  00404ACD: 68 65 04 00 00     push        465h
  00404AD2: FF 75 08           push        dword ptr [ebp+8]
  00404AD5: FF D6              call        esi
  00404AD7: 33 C0              xor         eax,eax
  00404AD9: 5E                 pop         esi
  00404ADA: 5D                 pop         ebp
  00404ADB: C2 10 00           ret         10h
  00404ADE: 55                 push        ebp
  00404ADF: 8B EC              mov         ebp,esp
  00404AE1: 81 EC 80 00 00 00  sub         esp,80h
  00404AE7: 8B 45 14           mov         eax,dword ptr [ebp+14h]
  00404AEA: 53                 push        ebx
  00404AEB: 56                 push        esi
  00404AEC: 8B 75 10           mov         esi,dword ptr [ebp+10h]
  00404AEF: 57                 push        edi
  00404AF0: 6A DC              push        0FFFFFFDCh
  00404AF2: 85 C0              test        eax,eax
  00404AF4: 5B                 pop         ebx
  00404AF5: 74 0B              je          00404B02
  00404AF7: 0F AC C6 14        shrd        esi,eax,14h
  00404AFB: C1 E8 14           shr         eax,14h
  00404AFE: 33 FF              xor         edi,edi
  00404B00: EB 4E              jmp         00404B50
  00404B02: 6A 14              push        14h
  00404B04: 81 FE 00 00 10 00  cmp         esi,100000h
  00404B0A: 59                 pop         ecx
  00404B0B: 8B C6              mov         eax,esi
  00404B0D: 73 06              jae         00404B15
  00404B0F: 6A 0A              push        0Ah
  00404B11: 59                 pop         ecx
  00404B12: 6A DD              push        0FFFFFFDDh
  00404B14: 5B                 pop         ebx
  00404B15: 81 FE 00 04 00 00  cmp         esi,400h
  00404B1B: 73 05              jae         00404B22
  00404B1D: 6A DE              push        0FFFFFFDEh
  00404B1F: 33 C9              xor         ecx,ecx
  00404B21: 5B                 pop         ebx
  00404B22: 81 FE 33 33 FF FF  cmp         esi,0FFFF3333h
  00404B28: 73 0D              jae         00404B37
  00404B2A: 33 C0              xor         eax,eax
  00404B2C: 6A 14              push        14h
  00404B2E: 40                 inc         eax
  00404B2F: 5F                 pop         edi
  00404B30: D3 E0              shl         eax,cl
  00404B32: 99                 cdq
  00404B33: F7 FF              idiv        eax,edi
  00404B35: 03 C6              add         eax,esi
  00404B37: 8B F0              mov         esi,eax
  00404B39: 25 FF FF FF 00     and         eax,0FFFFFFh
  00404B3E: 6A 0A              push        0Ah
  00404B40: 33 D2              xor         edx,edx
  00404B42: 8D 04 80           lea         eax,[eax+eax*4]
  00404B45: 03 C0              add         eax,eax
  00404B47: D3 E8              shr         eax,cl
  00404B49: D3 EE              shr         esi,cl
  00404B4B: 59                 pop         ecx
  00404B4C: F7 F1              div         eax,ecx
  00404B4E: 8B FA              mov         edi,edx
  00404B50: 8D 45 C0           lea         eax,[ebp-40h]
  00404B53: 6A DF              push        0FFFFFFDFh
  00404B55: 50                 push        eax
  00404B56: E8 81 17 00 00     call        004062DC
  00404B5B: 50                 push        eax
  00404B5C: 8D 45 80           lea         eax,[ebp-80h]
  00404B5F: 53                 push        ebx
  00404B60: 50                 push        eax
  00404B61: E8 76 17 00 00     call        004062DC
  00404B66: 50                 push        eax
  00404B67: 57                 push        edi
  00404B68: 56                 push        esi
  00404B69: 68 A0 A3 40 00     push        40A3A0h
  00404B6E: FF 75 0C           push        dword ptr [ebp+0Ch]
  00404B71: BE 48 D2 42 00     mov         esi,42D248h
  00404B76: 56                 push        esi
  00404B77: E8 60 17 00 00     call        004062DC
  00404B7C: 56                 push        esi
  00404B7D: 8B F8              mov         edi,eax
  00404B7F: E8 4C 17 00 00     call        004062D0
  00404B84: 8D 04 47           lea         eax,[edi+eax*2]
  00404B87: 50                 push        eax
  00404B88: FF 15 90 82 40 00  call        dword ptr ds:[00408290h]
  00404B8E: 83 C4 18           add         esp,18h
  00404B91: 56                 push        esi
  00404B92: FF 75 08           push        dword ptr [ebp+8]
  00404B95: FF 35 B8 3E 43 00  push        dword ptr ds:[00433EB8h]
  00404B9B: E8 5E 0D 00 00     call        004058FE
  00404BA0: 5F                 pop         edi
  00404BA1: 5E                 pop         esi
  00404BA2: 5B                 pop         ebx
  00404BA3: C9                 leave
  00404BA4: C2 10 00           ret         10h
  00404BA7: 8B 44 24 0C        mov         eax,dword ptr [esp+0Ch]
  00404BAB: 33 C9              xor         ecx,ecx
  00404BAD: 51                 push        ecx
  00404BAE: 50                 push        eax
  00404BAF: FF 74 24 10        push        dword ptr [esp+10h]
  00404BB3: FF 74 24 10        push        dword ptr [esp+10h]
  00404BB7: E8 22 FF FF FF     call        00404ADE
  00404BBC: C2 0C 00           ret         0Ch
  00404BBF: 8B 15 2C 4F 43 00  mov         edx,dword ptr ds:[00434F2Ch]
  00404BC5: 8B 0D 28 4F 43 00  mov         ecx,dword ptr ds:[00434F28h]
  00404BCB: 33 C0              xor         eax,eax
  00404BCD: 85 D2              test        edx,edx
  00404BCF: 74 18              je          00404BE9
  00404BD1: 56                 push        esi
  00404BD2: F6 41 08 01        test        byte ptr [ecx+8],1
  00404BD6: 74 07              je          00404BDF
  00404BD8: 8B 74 24 08        mov         esi,dword ptr [esp+8]
  00404BDC: 03 04 B1           add         eax,dword ptr [ecx+esi*4]
  00404BDF: 81 C1 18 08 00 00  add         ecx,818h
  00404BE5: 4A                 dec         edx
  00404BE6: 75 EA              jne         00404BD2
  00404BE8: 5E                 pop         esi
  00404BE9: C2 04 00           ret         4
  00404BEC: 55                 push        ebp
  00404BED: 8B EC              mov         ebp,esp
  00404BEF: 83 EC 38           sub         esp,38h
  00404BF2: 56                 push        esi
  00404BF3: 8B 35 18 82 40 00  mov         esi,dword ptr ds:[00408218h]
  00404BF9: 57                 push        edi
  00404BFA: 8B 7D 08           mov         edi,dword ptr [ebp+8]
  00404BFD: 6A 00              push        0
  00404BFF: 6A 09              push        9
  00404C01: 68 0A 11 00 00     push        110Ah
  00404C06: 57                 push        edi
  00404C07: FF D6              call        esi
  00404C09: 83 7D 0C 00        cmp         dword ptr [ebp+0Ch],0
  00404C0D: 74 3C              je          00404C4B
  00404C0F: FF 15 BC 81 40 00  call        dword ptr ds:[004081BCh]
  00404C15: 0F BF C8           movsx       ecx,ax
  00404C18: C1 E8 10           shr         eax,10h
  00404C1B: 0F BF C0           movsx       eax,ax
  00404C1E: 89 45 F4           mov         dword ptr [ebp-0Ch],eax
  00404C21: 8D 45 F0           lea         eax,[ebp-10h]
  00404C24: 50                 push        eax
  00404C25: 57                 push        edi
  00404C26: 89 4D F0           mov         dword ptr [ebp-10h],ecx
  00404C29: FF 15 DC 81 40 00  call        dword ptr ds:[004081DCh]
  00404C2F: 8D 45 F0           lea         eax,[ebp-10h]
  00404C32: 50                 push        eax
  00404C33: 6A 00              push        0
  00404C35: 68 11 11 00 00     push        1111h
  00404C3A: 57                 push        edi
  00404C3B: FF D6              call        esi
  00404C3D: F6 45 F8 66        test        byte ptr [ebp-8],66h
  00404C41: 75 05              jne         00404C48
  00404C43: 83 C8 FF           or          eax,0FFFFFFFFh
  00404C46: EB 1E              jmp         00404C66
  00404C48: 8B 45 FC           mov         eax,dword ptr [ebp-4]
  00404C4B: 89 45 CC           mov         dword ptr [ebp-34h],eax
  00404C4E: 8D 45 C8           lea         eax,[ebp-38h]
  00404C51: 50                 push        eax
  00404C52: 6A 00              push        0
  00404C54: 68 3E 11 00 00     push        113Eh
  00404C59: 57                 push        edi
  00404C5A: C7 45 C8 04 00 00  mov         dword ptr [ebp-38h],4
            00
  00404C61: FF D6              call        esi
  00404C63: 8B 45 EC           mov         eax,dword ptr [ebp-14h]
  00404C66: 5F                 pop         edi
  00404C67: 5E                 pop         esi
  00404C68: C9                 leave
  00404C69: C2 08 00           ret         8
  00404C6C: 56                 push        esi
  00404C6D: 57                 push        edi
  00404C6E: BE 00 50 43 00     mov         esi,435000h
  00404C73: BF 48 D2 42 00     mov         edi,42D248h
  00404C78: 56                 push        esi
  00404C79: 57                 push        edi
  00404C7A: E8 3B 16 00 00     call        004062BA
  00404C7F: FF 74 24 10        push        dword ptr [esp+10h]
  00404C83: 56                 push        esi
  00404C84: E8 78 15 00 00     call        00406201
  00404C89: FF 74 24 0C        push        dword ptr [esp+0Ch]
  00404C8D: E8 79 C7 FF FF     call        0040140B
  00404C92: 57                 push        edi
  00404C93: 56                 push        esi
  00404C94: E8 21 16 00 00     call        004062BA
  00404C99: 5F                 pop         edi
  00404C9A: 5E                 pop         esi
  00404C9B: C2 08 00           ret         8
  00404C9E: 55                 push        ebp
  00404C9F: 8B EC              mov         ebp,esp
  00404CA1: 83 EC 50           sub         esp,50h
  00404CA4: 53                 push        ebx
  00404CA5: 56                 push        esi
  00404CA6: 8B 35 E4 81 40 00  mov         esi,dword ptr ds:[004081E4h]
  00404CAC: 57                 push        edi
  00404CAD: 8B 7D 08           mov         edi,dword ptr [ebp+8]
  00404CB0: 68 F9 03 00 00     push        3F9h
  00404CB5: 57                 push        edi
  00404CB6: FF D6              call        esi
  00404CB8: 68 08 04 00 00     push        408h
  00404CBD: 57                 push        edi
  00404CBE: 89 45 F8           mov         dword ptr [ebp-8],eax
  00404CC1: FF D6              call        esi
  00404CC3: 89 45 FC           mov         dword ptr [ebp-4],eax
  00404CC6: A1 28 4F 43 00     mov         eax,dword ptr ds:[00434F28h]
  00404CCB: 8B 35 18 82 40 00  mov         esi,dword ptr ds:[00408218h]
  00404CD1: 89 45 F0           mov         dword ptr [ebp-10h],eax
  00404CD4: A1 F4 4E 43 00     mov         eax,dword ptr ds:[00434EF4h]
  00404CD9: 33 DB              xor         ebx,ebx
  00404CDB: 05 94 00 00 00     add         eax,94h
  00404CE0: 81 7D 0C 10 01 00  cmp         dword ptr [ebp+0Ch],110h
            00
  00404CE7: 89 45 EC           mov         dword ptr [ebp-14h],eax
  00404CEA: 0F 85 1B 02 00 00  jne         00404F0B
  00404CF0: A1 2C 4F 43 00     mov         eax,dword ptr ds:[00434F2Ch]
  00404CF5: 89 5D E4           mov         dword ptr [ebp-1Ch],ebx
  00404CF8: C1 E0 02           shl         eax,2
  00404CFB: 50                 push        eax
  00404CFC: 6A 40              push        40h
  00404CFE: C7 45 F4 02 00 00  mov         dword ptr [ebp-0Ch],2
            00
  00404D05: 89 3D 60 4F 43 00  mov         dword ptr ds:[00434F60h],edi
  00404D0B: FF 15 34 81 40 00  call        dword ptr ds:[00408134h]
  00404D11: 6A 6E              push        6Eh
  00404D13: A3 40 D2 42 00     mov         dword ptr ds:[0042D240h],eax
  00404D18: FF 35 E0 4E 43 00  push        dword ptr ds:[00434EE0h]
  00404D1E: FF 15 C0 81 40 00  call        dword ptr ds:[004081C0h]
  00404D24: 83 0D 34 D2 42 00  or          dword ptr ds:[0042D234h],0FFFFFFFFh
            FF
  00404D2B: 68 96 52 40 00     push        405296h
  00404D30: 6A FC              push        0FFFFFFFCh
  00404D32: 8B F8              mov         edi,eax
  00404D34: FF 75 FC           push        dword ptr [ebp-4]
  00404D37: FF 15 70 82 40 00  call        dword ptr ds:[00408270h]
  00404D3D: 53                 push        ebx
  00404D3E: 6A 06              push        6
  00404D40: 6A 21              push        21h
  00404D42: 6A 10              push        10h
  00404D44: 6A 10              push        10h
  00404D46: A3 3C D2 42 00     mov         dword ptr ds:[0042D23Ch],eax
  00404D4B: FF 15 38 80 40 00  call        dword ptr ds:[00408038h]
  00404D51: 68 FF 00 FF 00     push        0FF00FFh
  00404D56: 57                 push        edi
  00404D57: 50                 push        eax
  00404D58: A3 2C D2 42 00     mov         dword ptr ds:[0042D22Ch],eax
  00404D5D: FF 15 3C 80 40 00  call        dword ptr ds:[0040803Ch]
  00404D63: FF 35 2C D2 42 00  push        dword ptr ds:[0042D22Ch]
  00404D69: 6A 02              push        2
  00404D6B: 68 09 11 00 00     push        1109h
  00404D70: FF 75 FC           push        dword ptr [ebp-4]
  00404D73: FF D6              call        esi
  00404D75: 53                 push        ebx
  00404D76: 53                 push        ebx
  00404D77: 68 1C 11 00 00     push        111Ch
  00404D7C: FF 75 FC           push        dword ptr [ebp-4]
  00404D7F: FF D6              call        esi
  00404D81: 83 F8 10           cmp         eax,10h
  00404D84: 7D 0D              jge         00404D93
  00404D86: 53                 push        ebx
  00404D87: 6A 10              push        10h
  00404D89: 68 1B 11 00 00     push        111Bh
  00404D8E: FF 75 FC           push        dword ptr [ebp-4]
  00404D91: FF D6              call        esi
  00404D93: 57                 push        edi
  00404D94: FF 15 5C 80 40 00  call        dword ptr ds:[0040805Ch]
  00404D9A: 33 FF              xor         edi,edi
  00404D9C: 8B 45 EC           mov         eax,dword ptr [ebp-14h]
  00404D9F: 8B 04 B8           mov         eax,dword ptr [eax+edi*4]
  00404DA2: 3B C3              cmp         eax,ebx
  00404DA4: 74 27              je          00404DCD
  00404DA6: 83 FF 20           cmp         edi,20h
  00404DA9: 74 03              je          00404DAE
  00404DAB: 89 5D F4           mov         dword ptr [ebp-0Ch],ebx
  00404DAE: 50                 push        eax
  00404DAF: 53                 push        ebx
  00404DB0: E8 27 15 00 00     call        004062DC
  00404DB5: 50                 push        eax
  00404DB6: 53                 push        ebx
  00404DB7: 68 43 01 00 00     push        143h
  00404DBC: FF 75 F8           push        dword ptr [ebp-8]
  00404DBF: FF D6              call        esi
  00404DC1: 57                 push        edi
  00404DC2: 50                 push        eax
  00404DC3: 68 51 01 00 00     push        151h
  00404DC8: FF 75 F8           push        dword ptr [ebp-8]
  00404DCB: FF D6              call        esi
  00404DCD: 47                 inc         edi
  00404DCE: 83 FF 21           cmp         edi,21h
  00404DD1: 7C C9              jl          00404D9C
  00404DD3: 8B 7D 14           mov         edi,dword ptr [ebp+14h]
  00404DD6: 8B 5D F4           mov         ebx,dword ptr [ebp-0Ch]
  00404DD9: FF 74 9F 30        push        dword ptr [edi+ebx*4+30h]
  00404DDD: 6A 15              push        15h
  00404DDF: FF 75 08           push        dword ptr [ebp+8]
  00404DE2: E8 4A F4 FF FF     call        00404231
  00404DE7: FF 74 9F 34        push        dword ptr [edi+ebx*4+34h]
  00404DEB: 6A 16              push        16h
  00404DED: FF 75 08           push        dword ptr [ebp+8]
  00404DF0: E8 3C F4 FF FF     call        00404231
  00404DF5: 33 FF              xor         edi,edi
  00404DF7: 33 DB              xor         ebx,ebx
  00404DF9: 39 3D 2C 4F 43 00  cmp         dword ptr ds:[00434F2Ch],edi
  00404DFF: 0F 8E C5 00 00 00  jle         00404ECA
  00404E05: 8B 45 F0           mov         eax,dword ptr [ebp-10h]
  00404E08: 8D 50 08           lea         edx,[eax+8]
  00404E0B: 89 55 E8           mov         dword ptr [ebp-18h],edx
  00404E0E: 8D 42 10           lea         eax,[edx+10h]
  00404E11: 66 83 38 00        cmp         word ptr [eax],0
  00404E15: 0F 84 90 00 00 00  je          00404EAB
  00404E1B: 89 45 C8           mov         dword ptr [ebp-38h],eax
  00404E1E: 8B 02              mov         eax,dword ptr [edx]
  00404E20: 6A 20              push        20h
  00404E22: 8B D0              mov         edx,eax
  00404E24: 59                 pop         ecx
  00404E25: 89 5D B0           mov         dword ptr [ebp-50h],ebx
  00404E28: 23 D1              and         edx,ecx
  00404E2A: C7 45 B4 02 00 FF  mov         dword ptr [ebp-4Ch],0FFFF0002h
            FF
  00404E31: A8 02              test        al,2
  00404E33: C7 45 B8 0D 00 00  mov         dword ptr [ebp-48h],0Dh
            00
  00404E3A: 89 4D C4           mov         dword ptr [ebp-3Ch],ecx
  00404E3D: 89 7D DC           mov         dword ptr [ebp-24h],edi
  00404E40: 89 55 C0           mov         dword ptr [ebp-40h],edx
  00404E43: 74 38              je          00404E7D
  00404E45: 8D 45 B0           lea         eax,[ebp-50h]
  00404E48: C7 45 B8 4D 00 00  mov         dword ptr [ebp-48h],4Dh
            00
  00404E4F: 50                 push        eax
  00404E50: 6A 00              push        0
  00404E52: 68 32 11 00 00     push        1132h
  00404E57: C7 45 D8 01 00 00  mov         dword ptr [ebp-28h],1
            00
  00404E5E: FF 75 FC           push        dword ptr [ebp-4]
  00404E61: FF D6              call        esi
  00404E63: 8B 0D 40 D2 42 00  mov         ecx,dword ptr ds:[0042D240h]
  00404E69: C7 45 E4 01 00 00  mov         dword ptr [ebp-1Ch],1
            00
  00404E70: 89 04 B9           mov         dword ptr [ecx+edi*4],eax
  00404E73: A1 40 D2 42 00     mov         eax,dword ptr ds:[0042D240h]
  00404E78: 8B 1C B8           mov         ebx,dword ptr [eax+edi*4]
  00404E7B: EB 2E              jmp         00404EAB
  00404E7D: A8 04              test        al,4
  00404E7F: 74 11              je          00404E92
  00404E81: 53                 push        ebx
  00404E82: 6A 03              push        3
  00404E84: 68 0A 11 00 00     push        110Ah
  00404E89: FF 75 FC           push        dword ptr [ebp-4]
  00404E8C: FF D6              call        esi
  00404E8E: 8B D8              mov         ebx,eax
  00404E90: EB 19              jmp         00404EAB
  00404E92: 8D 45 B0           lea         eax,[ebp-50h]
  00404E95: 50                 push        eax
  00404E96: 6A 00              push        0
  00404E98: 68 32 11 00 00     push        1132h
  00404E9D: FF 75 FC           push        dword ptr [ebp-4]
  00404EA0: FF D6              call        esi
  00404EA2: 8B 0D 40 D2 42 00  mov         ecx,dword ptr ds:[0042D240h]
  00404EA8: 89 04 B9           mov         dword ptr [ecx+edi*4],eax
  00404EAB: 8B 55 E8           mov         edx,dword ptr [ebp-18h]
  00404EAE: 47                 inc         edi
  00404EAF: 81 C2 18 08 00 00  add         edx,818h
  00404EB5: 3B 3D 2C 4F 43 00  cmp         edi,dword ptr ds:[00434F2Ch]
  00404EBB: 89 55 E8           mov         dword ptr [ebp-18h],edx
  00404EBE: 0F 8C 4A FF FF FF  jl          00404E0E
  00404EC4: 83 7D E4 00        cmp         dword ptr [ebp-1Ch],0
  00404EC8: 75 19              jne         00404EE3
  00404ECA: 6A F0              push        0FFFFFFF0h
  00404ECC: FF 75 FC           push        dword ptr [ebp-4]
  00404ECF: FF 15 AC 81 40 00  call        dword ptr ds:[004081ACh]
  00404ED5: 24 FB              and         al,0FBh
  00404ED7: 50                 push        eax
  00404ED8: 6A F0              push        0FFFFFFF0h
  00404EDA: FF 75 FC           push        dword ptr [ebp-4]
  00404EDD: FF 15 70 82 40 00  call        dword ptr ds:[00408270h]
  00404EE3: 83 7D F4 00        cmp         dword ptr [ebp-0Ch],0
  00404EE7: 75 18              jne         00404F01
  00404EE9: 6A 05              push        5
  00404EEB: FF 75 F8           push        dword ptr [ebp-8]
  00404EEE: FF 15 68 82 40 00  call        dword ptr ds:[00408268h]
  00404EF4: FF 75 F8           push        dword ptr [ebp-8]
  00404EF7: E8 6A F3 FF FF     call        00404266
  00404EFC: E9 80 03 00 00     jmp         00405281
  00404F01: FF 75 FC           push        dword ptr [ebp-4]
  00404F04: E8 5D F3 FF FF     call        00404266
  00404F09: 33 DB              xor         ebx,ebx
  00404F0B: 81 7D 0C 05 04 00  cmp         dword ptr [ebp+0Ch],405h
            00
  00404F12: 75 12              jne         00404F26
  00404F14: 33 C9              xor         ecx,ecx
  00404F16: 89 5D 10           mov         dword ptr [ebp+10h],ebx
  00404F19: 41                 inc         ecx
  00404F1A: C7 45 0C 0F 04 00  mov         dword ptr [ebp+0Ch],40Fh
            00
  00404F21: 89 4D 14           mov         dword ptr [ebp+14h],ecx
  00404F24: EB 03              jmp         00404F29
  00404F26: 8B 4D 14           mov         ecx,dword ptr [ebp+14h]
  00404F29: 83 7D 0C 4E        cmp         dword ptr [ebp+0Ch],4Eh
  00404F2D: B8 13 04 00 00     mov         eax,413h
  00404F32: 74 09              je          00404F3D
  00404F34: 39 45 0C           cmp         dword ptr [ebp+0Ch],eax
  00404F37: 0F 85 E4 00 00 00  jne         00405021
  00404F3D: 39 45 0C           cmp         dword ptr [ebp+0Ch],eax
  00404F40: 89 4D F4           mov         dword ptr [ebp-0Ch],ecx
  00404F43: 74 0D              je          00404F52
  00404F45: 81 79 04 08 04 00  cmp         dword ptr [ecx+4],408h
            00
  00404F4C: 0F 85 CF 00 00 00  jne         00405021
  00404F52: F6 05 FD 4E 43 00  test        byte ptr ds:[00434EFDh],2
            02
  00404F59: 75 73              jne         00404FCE
  00404F5B: 39 45 0C           cmp         dword ptr [ebp+0Ch],eax
  00404F5E: 74 09              je          00404F69
  00404F60: 8B 4D 14           mov         ecx,dword ptr [ebp+14h]
  00404F63: 83 79 08 FE        cmp         dword ptr [ecx+8],0FFFFFFFEh
  00404F67: 75 65              jne         00404FCE
  00404F69: 33 C9              xor         ecx,ecx
  00404F6B: 39 45 0C           cmp         dword ptr [ebp+0Ch],eax
  00404F6E: 0F 95 C1           setne       cl
  00404F71: 51                 push        ecx
  00404F72: FF 75 FC           push        dword ptr [ebp-4]
  00404F75: E8 72 FC FF FF     call        00404BEC
  00404F7A: 8B F8              mov         edi,eax
  00404F7C: 3B FB              cmp         edi,ebx
  00404F7E: 7C 4E              jl          00404FCE
  00404F80: 69 C0 18 08 00 00  imul        eax,eax,818h
  00404F86: 8B 4D F0           mov         ecx,dword ptr [ebp-10h]
  00404F89: 8D 4C 08 08        lea         ecx,[eax+ecx+8]
  00404F8D: 8B 01              mov         eax,dword ptr [ecx]
  00404F8F: A8 10              test        al,10h
  00404F91: 75 3B              jne         00404FCE
  00404F93: A8 40              test        al,40h
  00404F95: 74 11              je          00404FA8
  00404F97: 35 80 00 00 00     xor         eax,80h
  00404F9C: 84 C0              test        al,al
  00404F9E: 79 04              jns         00404FA4
  00404FA0: 0C 01              or          al,1
  00404FA2: EB 07              jmp         00404FAB
  00404FA4: 24 FE              and         al,0FEh
  00404FA6: EB 03              jmp         00404FAB
  00404FA8: 83 F0 01           xor         eax,1
  00404FAB: 57                 push        edi
  00404FAC: 89 01              mov         dword ptr [ecx],eax
  00404FAE: E8 CA C1 FF FF     call        0040117D
  00404FB3: A1 FC 4E 43 00     mov         eax,dword ptr ds:[00434EFCh]
  00404FB8: 47                 inc         edi
  00404FB9: F7 D0              not         eax
  00404FBB: C1 E8 08           shr         eax,8
  00404FBE: 83 E0 01           and         eax,1
  00404FC1: 89 7D 10           mov         dword ptr [ebp+10h],edi
  00404FC4: 89 45 14           mov         dword ptr [ebp+14h],eax
  00404FC7: C7 45 0C 0F 04 00  mov         dword ptr [ebp+0Ch],40Fh
            00
  00404FCE: 39 5D F4           cmp         dword ptr [ebp-0Ch],ebx
  00404FD1: 74 4E              je          00405021
  00404FD3: 8B 45 F4           mov         eax,dword ptr [ebp-0Ch]
  00404FD6: 81 78 08 3D FE FF  cmp         dword ptr [eax+8],0FFFFFE3Dh
            FF
  00404FDD: 75 0E              jne         00404FED
  00404FDF: FF 70 5C           push        dword ptr [eax+5Ch]
  00404FE2: 53                 push        ebx
  00404FE3: 68 19 04 00 00     push        419h
  00404FE8: FF 75 FC           push        dword ptr [ebp-4]
  00404FEB: FF D6              call        esi
  00404FED: 8B 45 F4           mov         eax,dword ptr [ebp-0Ch]
  00404FF0: 81 78 08 39 FE FF  cmp         dword ptr [eax+8],0FFFFFE39h
            FF
  00404FF7: 75 28              jne         00405021
  00404FF9: 83 78 0C 02        cmp         dword ptr [eax+0Ch],2
  00404FFD: 8B 4D F0           mov         ecx,dword ptr [ebp-10h]
  00405000: 8B 40 5C           mov         eax,dword ptr [eax+5Ch]
  00405003: 75 0F              jne         00405014
  00405005: 69 C0 18 08 00 00  imul        eax,eax,818h
  0040500B: 8D 44 08 08        lea         eax,[eax+ecx+8]
  0040500F: 83 08 20           or          dword ptr [eax],20h
  00405012: EB 0D              jmp         00405021
  00405014: 69 C0 18 08 00 00  imul        eax,eax,818h
  0040501A: 8D 44 08 08        lea         eax,[eax+ecx+8]
  0040501E: 83 20 DF           and         dword ptr [eax],0FFFFFFDFh
  00405021: 81 7D 0C 11 01 00  cmp         dword ptr [ebp+0Ch],111h
            00
  00405028: 75 6F              jne         00405099
  0040502A: 66 81 7D 10 F9 03  cmp         word ptr [ebp+10h],3F9h
  00405030: 0F 85 4B 02 00 00  jne         00405281
  00405036: 8B 45 10           mov         eax,dword ptr [ebp+10h]
  00405039: C1 E8 10           shr         eax,10h
  0040503C: 66 3D 01 00        cmp         ax,1
  00405040: 0F 85 3B 02 00 00  jne         00405281
  00405046: 53                 push        ebx
  00405047: 53                 push        ebx
  00405048: 68 47 01 00 00     push        147h
  0040504D: FF 75 F8           push        dword ptr [ebp-8]
  00405050: FF D6              call        esi
  00405052: 83 F8 FF           cmp         eax,0FFFFFFFFh
  00405055: 0F 84 26 02 00 00  je          00405281
  0040505B: 53                 push        ebx
  0040505C: 50                 push        eax
  0040505D: 68 50 01 00 00     push        150h
  00405062: FF 75 F8           push        dword ptr [ebp-8]
  00405065: FF D6              call        esi
  00405067: 8B F8              mov         edi,eax
  00405069: 83 FF FF           cmp         edi,0FFFFFFFFh
  0040506C: 74 08              je          00405076
  0040506E: 8B 45 EC           mov         eax,dword ptr [ebp-14h]
  00405071: 39 1C B8           cmp         dword ptr [eax+edi*4],ebx
  00405074: 75 03              jne         00405079
  00405076: 6A 20              push        20h
  00405078: 5F                 pop         edi
  00405079: 57                 push        edi
  0040507A: E8 1A C2 FF FF     call        00401299
  0040507F: 57                 push        edi
  00405080: 53                 push        ebx
  00405081: 68 20 04 00 00     push        420h
  00405086: FF 75 08           push        dword ptr [ebp+8]
  00405089: FF D6              call        esi
  0040508B: 83 4D 10 FF        or          dword ptr [ebp+10h],0FFFFFFFFh
  0040508F: 89 5D 14           mov         dword ptr [ebp+14h],ebx
  00405092: C7 45 0C 0F 04 00  mov         dword ptr [ebp+0Ch],40Fh
            00
  00405099: B8 00 02 00 00     mov         eax,200h
  0040509E: 39 45 0C           cmp         dword ptr [ebp+0Ch],eax
  004050A1: 75 08              jne         004050AB
  004050A3: 53                 push        ebx
  004050A4: 53                 push        ebx
  004050A5: 50                 push        eax
  004050A6: FF 75 FC           push        dword ptr [ebp-4]
  004050A9: FF D6              call        esi
  004050AB: 81 7D 0C 0B 04 00  cmp         dword ptr [ebp+0Ch],40Bh
            00
  004050B2: 75 32              jne         004050E6
  004050B4: A1 2C D2 42 00     mov         eax,dword ptr ds:[0042D22Ch]
  004050B9: 3B C3              cmp         eax,ebx
  004050BB: 74 07              je          004050C4
  004050BD: 50                 push        eax
  004050BE: FF 15 40 80 40 00  call        dword ptr ds:[00408040h]
  004050C4: A1 40 D2 42 00     mov         eax,dword ptr ds:[0042D240h]
  004050C9: 3B C3              cmp         eax,ebx
  004050CB: 74 07              je          004050D4
  004050CD: 50                 push        eax
  004050CE: FF 15 28 81 40 00  call        dword ptr ds:[00408128h]
  004050D4: 89 1D 2C D2 42 00  mov         dword ptr ds:[0042D22Ch],ebx
  004050DA: 89 1D 40 D2 42 00  mov         dword ptr ds:[0042D240h],ebx
  004050E0: 89 1D 60 4F 43 00  mov         dword ptr ds:[00434F60h],ebx
  004050E6: 81 7D 0C 0F 04 00  cmp         dword ptr [ebp+0Ch],40Fh
            00
  004050ED: 0F 85 50 01 00 00  jne         00405243
  004050F3: 53                 push        ebx
  004050F4: 53                 push        ebx
  004050F5: E8 F5 C0 FF FF     call        004011EF
  004050FA: 8B 45 10           mov         eax,dword ptr [ebp+10h]
  004050FD: 3B C3              cmp         eax,ebx
  004050FF: 74 0E              je          0040510F
  00405101: 83 F8 FF           cmp         eax,0FFFFFFFFh
  00405104: 74 01              je          00405107
  00405106: 48                 dec         eax
  00405107: 50                 push        eax
  00405108: 6A 08              push        8
  0040510A: E8 5D FB FF FF     call        00404C6C
  0040510F: 39 5D 14           cmp         dword ptr [ebp+14h],ebx
  00405112: 74 3F              je          00405153
  00405114: FF 35 40 D2 42 00  push        dword ptr ds:[0042D240h]
  0040511A: E8 C3 C1 FF FF     call        004012E2
  0040511F: 8B F8              mov         edi,eax
  00405121: 57                 push        edi
  00405122: E8 72 C1 FF FF     call        00401299
  00405127: 33 C0              xor         eax,eax
  00405129: 33 C9              xor         ecx,ecx
  0040512B: 3B FB              cmp         edi,ebx
  0040512D: 7E 0E              jle         0040513D
  0040512F: 8B 55 EC           mov         edx,dword ptr [ebp-14h]
  00405132: 39 1C 82           cmp         dword ptr [edx+eax*4],ebx
  00405135: 74 01              je          00405138
  00405137: 41                 inc         ecx
  00405138: 40                 inc         eax
  00405139: 3B C7              cmp         eax,edi
  0040513B: 7C F2              jl          0040512F
  0040513D: 53                 push        ebx
  0040513E: 51                 push        ecx
  0040513F: 68 4E 01 00 00     push        14Eh
  00405144: FF 75 F8           push        dword ptr [ebp-8]
  00405147: FF D6              call        esi
  00405149: 89 7D 14           mov         dword ptr [ebp+14h],edi
  0040514C: C7 45 0C 20 04 00  mov         dword ptr [ebp+0Ch],420h
            00
  00405153: 53                 push        ebx
  00405154: 53                 push        ebx
  00405155: E8 95 C0 FF FF     call        004011EF
  0040515A: A1 40 D2 42 00     mov         eax,dword ptr ds:[0042D240h]
  0040515F: 39 1D 2C 4F 43 00  cmp         dword ptr ds:[00434F2Ch],ebx
  00405165: 89 45 E4           mov         dword ptr [ebp-1Ch],eax
  00405168: A1 28 4F 43 00     mov         eax,dword ptr ds:[00434F28h]
  0040516D: C7 45 C8 30 F0 00  mov         dword ptr [ebp-38h],0F030h
            00
  00405174: 89 5D F0           mov         dword ptr [ebp-10h],ebx
  00405177: 0F 8E 9C 00 00 00  jle         00405219
  0040517D: 8D 78 08           lea         edi,[eax+8]
  00405180: 8B 45 E4           mov         eax,dword ptr [ebp-1Ch]
  00405183: 8B 4D F0           mov         ecx,dword ptr [ebp-10h]
  00405186: 8B 04 88           mov         eax,dword ptr [eax+ecx*4]
  00405189: 3B C3              cmp         eax,ebx
  0040518B: 74 74              je          00405201
  0040518D: 8B 0F              mov         ecx,dword ptr [edi]
  0040518F: 89 45 C0           mov         dword ptr [ebp-40h],eax
  00405192: F6 C5 01           test        ch,1
  00405195: C7 45 BC 08 00 00  mov         dword ptr [ebp-44h],8
            00
  0040519C: 74 11              je          004051AF
  0040519E: 8D 47 10           lea         eax,[edi+10h]
  004051A1: C7 45 BC 09 00 00  mov         dword ptr [ebp-44h],9
            00
  004051A8: 89 45 CC           mov         dword ptr [ebp-34h],eax
  004051AB: 80 67 01 FE        and         byte ptr [edi+1],0FEh
  004051AF: F6 C1 40           test        cl,40h
  004051B2: 74 05              je          004051B9
  004051B4: 6A 03              push        3
  004051B6: 58                 pop         eax
  004051B7: EB 0E              jmp         004051C7
  004051B9: 8B C1              mov         eax,ecx
  004051BB: 83 E0 01           and         eax,1
  004051BE: 40                 inc         eax
  004051BF: F6 C1 10           test        cl,10h
  004051C2: 74 03              je          004051C7
  004051C4: 83 C0 03           add         eax,3
  004051C7: 8B D1              mov         edx,ecx
  004051C9: FF 75 C0           push        dword ptr [ebp-40h]
  004051CC: C1 E0 0B           shl         eax,0Bh
  004051CF: 83 E2 08           and         edx,8
  004051D2: 0B C2              or          eax,edx
  004051D4: 8B D1              mov         edx,ecx
  004051D6: C1 F9 05           sar         ecx,5
  004051D9: 03 C0              add         eax,eax
  004051DB: 83 E2 20           and         edx,20h
  004051DE: 83 E1 01           and         ecx,1
  004051E1: 0B C2              or          eax,edx
  004051E3: 41                 inc         ecx
  004051E4: 89 45 C4           mov         dword ptr [ebp-3Ch],eax
  004051E7: 51                 push        ecx
  004051E8: 68 02 11 00 00     push        1102h
  004051ED: FF 75 FC           push        dword ptr [ebp-4]
  004051F0: FF D6              call        esi
  004051F2: 8D 45 BC           lea         eax,[ebp-44h]
  004051F5: 50                 push        eax
  004051F6: 53                 push        ebx
  004051F7: 68 3F 11 00 00     push        113Fh
  004051FC: FF 75 FC           push        dword ptr [ebp-4]
  004051FF: FF D6              call        esi
  00405201: FF 45 F0           inc         dword ptr [ebp-10h]
  00405204: 81 C7 18 08 00 00  add         edi,818h
  0040520A: 8B 45 F0           mov         eax,dword ptr [ebp-10h]
  0040520D: 3B 05 2C 4F 43 00  cmp         eax,dword ptr ds:[00434F2Ch]
  00405213: 0F 8C 67 FF FF FF  jl          00405180
  00405219: 6A 01              push        1
  0040521B: 53                 push        ebx
  0040521C: FF 75 FC           push        dword ptr [ebp-4]
  0040521F: FF 15 14 82 40 00  call        dword ptr ds:[00408214h]
  00405225: A1 BC 3E 43 00     mov         eax,dword ptr ds:[00433EBCh]
  0040522A: 39 58 10           cmp         dword ptr [eax+10h],ebx
  0040522D: 74 14              je          00405243
  0040522F: 6A 05              push        5
  00405231: E8 89 F9 FF FF     call        00404BBF
  00405236: 50                 push        eax
  00405237: 6A FB              push        0FFFFFFFBh
  00405239: 68 FF 03 00 00     push        3FFh
  0040523E: E8 64 F9 FF FF     call        00404BA7
  00405243: 81 7D 0C 20 04 00  cmp         dword ptr [ebp+0Ch],420h
            00
  0040524A: 75 35              jne         00405281
  0040524C: F6 05 FD 4E 43 00  test        byte ptr ds:[00434EFDh],1
            01
  00405253: 74 2C              je          00405281
  00405255: 33 C0              xor         eax,eax
  00405257: 83 7D 14 20        cmp         dword ptr [ebp+14h],20h
  0040525B: 8B 35 68 82 40 00  mov         esi,dword ptr ds:[00408268h]
  00405261: 0F 94 C0           sete        al
  00405264: C1 E0 03           shl         eax,3
  00405267: 8B F8              mov         edi,eax
  00405269: 57                 push        edi
  0040526A: FF 75 FC           push        dword ptr [ebp-4]
  0040526D: FF D6              call        esi
  0040526F: 57                 push        edi
  00405270: 68 FE 03 00 00     push        3FEh
  00405275: FF 75 08           push        dword ptr [ebp+8]
  00405278: FF 15 E4 81 40 00  call        dword ptr ds:[004081E4h]
  0040527E: 50                 push        eax
  0040527F: FF D6              call        esi
  00405281: FF 75 14           push        dword ptr [ebp+14h]
  00405284: FF 75 10           push        dword ptr [ebp+10h]
  00405287: FF 75 0C           push        dword ptr [ebp+0Ch]
  0040528A: E8 09 F0 FF FF     call        00404298
  0040528F: 5F                 pop         edi
  00405290: 5E                 pop         esi
  00405291: 5B                 pop         ebx
  00405292: C9                 leave
  00405293: C2 10 00           ret         10h
  00405296: 55                 push        ebp
  00405297: 8B EC              mov         ebp,esp
  00405299: 53                 push        ebx
  0040529A: 8B 5D 0C           mov         ebx,dword ptr [ebp+0Ch]
  0040529D: 81 FB 02 01 00 00  cmp         ebx,102h
  004052A3: 57                 push        edi
  004052A4: 75 14              jne         004052BA
  004052A6: 83 7D 10 20        cmp         dword ptr [ebp+10h],20h
  004052AA: 75 59              jne         00405305
  004052AC: 68 13 04 00 00     push        413h
  004052B1: E8 C7 EF FF FF     call        0040427D
  004052B6: 33 C0              xor         eax,eax
  004052B8: EB 62              jmp         0040531C
  004052BA: 81 FB 00 02 00 00  cmp         ebx,200h
  004052C0: 75 20              jne         004052E2
  004052C2: FF 75 08           push        dword ptr [ebp+8]
  004052C5: FF 15 C8 81 40 00  call        dword ptr ds:[004081C8h]
  004052CB: 85 C0              test        eax,eax
  004052CD: 74 36              je          00405305
  004052CF: 6A 01              push        1
  004052D1: FF 75 08           push        dword ptr [ebp+8]
  004052D4: E8 13 F9 FF FF     call        00404BEC
  004052D9: 8B F8              mov         edi,eax
  004052DB: BB 19 04 00 00     mov         ebx,419h
  004052E0: EB 03              jmp         004052E5
  004052E2: 8B 7D 14           mov         edi,dword ptr [ebp+14h]
  004052E5: 81 FB 19 04 00 00  cmp         ebx,419h
  004052EB: 75 1B              jne         00405308
  004052ED: 39 3D 34 D2 42 00  cmp         dword ptr ds:[0042D234h],edi
  004052F3: 74 13              je          00405308
  004052F5: 57                 push        edi
  004052F6: 6A 06              push        6
  004052F8: 89 3D 34 D2 42 00  mov         dword ptr ds:[0042D234h],edi
  004052FE: E8 69 F9 FF FF     call        00404C6C
  00405303: EB 03              jmp         00405308
  00405305: 8B 7D 14           mov         edi,dword ptr [ebp+14h]
  00405308: 57                 push        edi
  00405309: FF 75 10           push        dword ptr [ebp+10h]
  0040530C: 53                 push        ebx
  0040530D: FF 75 08           push        dword ptr [ebp+8]
  00405310: FF 35 3C D2 42 00  push        dword ptr ds:[0042D23Ch]
  00405316: FF 15 C4 81 40 00  call        dword ptr ds:[004081C4h]
  0040531C: 5F                 pop         edi
  0040531D: 5B                 pop         ebx
  0040531E: 5D                 pop         ebp
  0040531F: C2 10 00           ret         10h
  00405322: 55                 push        ebp
  00405323: 8B EC              mov         ebp,esp
  00405325: 83 EC 30           sub         esp,30h
  00405328: A1 C4 3E 43 00     mov         eax,dword ptr ds:[00433EC4h]
  0040532D: 53                 push        ebx
  0040532E: 56                 push        esi
  0040532F: 57                 push        edi
  00405330: 33 FF              xor         edi,edi
  00405332: 89 45 FC           mov         dword ptr [ebp-4],eax
  00405335: 3B C7              cmp         eax,edi
  00405337: 0F 84 B1 00 00 00  je          004053EE
  0040533D: 8B 1D B4 4F 43 00  mov         ebx,dword ptr ds:[00434FB4h]
  00405343: BE 28 C2 42 00     mov         esi,42C228h
  00405348: 89 5D F8           mov         dword ptr [ebp-8],ebx
  0040534B: 83 E3 01           and         ebx,1
  0040534E: 75 09              jne         00405359
  00405350: FF 75 08           push        dword ptr [ebp+8]
  00405353: 56                 push        esi
  00405354: E8 83 0F 00 00     call        004062DC
  00405359: 56                 push        esi
  0040535A: E8 71 0F 00 00     call        004062D0
  0040535F: 39 7D 0C           cmp         dword ptr [ebp+0Ch],edi
  00405362: 89 45 08           mov         dword ptr [ebp+8],eax
  00405365: 74 1B              je          00405382
  00405367: FF 75 0C           push        dword ptr [ebp+0Ch]
  0040536A: E8 61 0F 00 00     call        004062D0
  0040536F: 03 45 08           add         eax,dword ptr [ebp+8]
  00405372: 3D 00 10 00 00     cmp         eax,1000h
  00405377: 73 75              jae         004053EE
  00405379: FF 75 0C           push        dword ptr [ebp+0Ch]
  0040537C: 56                 push        esi
  0040537D: E8 54 0F 00 00     call        004062D6
  00405382: F6 45 F8 04        test        byte ptr [ebp-8],4
  00405386: 75 0D              jne         00405395
  00405388: 56                 push        esi
  00405389: FF 35 A8 3E 43 00  push        dword ptr ds:[00433EA8h]
  0040538F: FF 15 5C 82 40 00  call        dword ptr ds:[0040825Ch]
  00405395: F6 45 F8 02        test        byte ptr [ebp-8],2
  00405399: 75 44              jne         004053DF
  0040539B: 57                 push        edi
  0040539C: 57                 push        edi
  0040539D: 68 04 10 00 00     push        1004h
  004053A2: 89 75 E4           mov         dword ptr [ebp-1Ch],esi
  004053A5: FF 75 FC           push        dword ptr [ebp-4]
  004053A8: 8B 35 18 82 40 00  mov         esi,dword ptr ds:[00408218h]
  004053AE: C7 45 D0 01 00 00  mov         dword ptr [ebp-30h],1
            00
  004053B5: FF D6              call        esi
  004053B7: 2B C3              sub         eax,ebx
  004053B9: 89 7D D8           mov         dword ptr [ebp-28h],edi
  004053BC: 89 45 D4           mov         dword ptr [ebp-2Ch],eax
  004053BF: 8D 45 D0           lea         eax,[ebp-30h]
  004053C2: 50                 push        eax
  004053C3: B8 4D 10 00 00     mov         eax,104Dh
  004053C8: 2B C3              sub         eax,ebx
  004053CA: 57                 push        edi
  004053CB: 50                 push        eax
  004053CC: FF 75 FC           push        dword ptr [ebp-4]
  004053CF: FF D6              call        esi
  004053D1: 57                 push        edi
  004053D2: FF 75 D4           push        dword ptr [ebp-2Ch]
  004053D5: 68 13 10 00 00     push        1013h
  004053DA: FF 75 FC           push        dword ptr [ebp-4]
  004053DD: FF D6              call        esi
  004053DF: 3B DF              cmp         ebx,edi
  004053E1: 74 0B              je          004053EE
  004053E3: 8B 45 08           mov         eax,dword ptr [ebp+8]
  004053E6: 66 89 3C 45 28 C2  mov         word ptr [eax*2+0042C228h],di
            42 00
  004053EE: 5F                 pop         edi
  004053EF: 5E                 pop         esi
  004053F0: 5B                 pop         ebx
  004053F1: C9                 leave
  004053F2: C2 08 00           ret         8
  004053F5: 56                 push        esi
  004053F6: 8B 35 28 4F 43 00  mov         esi,dword ptr ds:[00434F28h]
  004053FC: 57                 push        edi
  004053FD: 8B 3D 2C 4F 43 00  mov         edi,dword ptr ds:[00434F2Ch]
  00405403: 6A 00              push        0
  00405405: FF 15 A0 82 40 00  call        dword ptr ds:[004082A0h]
  0040540B: 09 05 B8 4F 43 00  or          dword ptr ds:[00434FB8h],eax
  00405411: 6A 00              push        0
  00405413: E8 65 EE FF FF     call        0040427D
  00405418: 85 FF              test        edi,edi
  0040541A: 74 2B              je          00405447
  0040541C: 83 C6 0C           add         esi,0Ch
  0040541F: 4F                 dec         edi
  00405420: F6 46 FC 01        test        byte ptr [esi-4],1
  00405424: 74 0F              je          00405435
  00405426: FF 74 24 0C        push        dword ptr [esp+0Ch]
  0040542A: FF 36              push        dword ptr [esi]
  0040542C: E8 58 BF FF FF     call        00401389
  00405431: 85 C0              test        eax,eax
  00405433: 75 0C              jne         00405441
  00405435: 81 C6 18 08 00 00  add         esi,818h
  0040543B: 85 FF              test        edi,edi
  0040543D: 75 E0              jne         0040541F
  0040543F: EB 06              jmp         00405447
  00405441: FF 05 8C 4F 43 00  inc         dword ptr ds:[00434F8Ch]
  00405447: 68 04 04 00 00     push        404h
  0040544C: E8 2C EE FF FF     call        0040427D
  00405451: FF 15 9C 82 40 00  call        dword ptr ds:[0040829Ch]
  00405457: A1 8C 4F 43 00     mov         eax,dword ptr ds:[00434F8Ch]
  0040545C: 5F                 pop         edi
  0040545D: 5E                 pop         esi
  0040545E: C2 04 00           ret         4
  00405461: 55                 push        ebp
  00405462: 8B EC              mov         ebp,esp
  00405464: 83 EC 40           sub         esp,40h
  00405467: 53                 push        ebx
  00405468: 56                 push        esi
  00405469: 8B 35 C4 3E 43 00  mov         esi,dword ptr ds:[00433EC4h]
  0040546F: 33 DB              xor         ebx,ebx
  00405471: 81 7D 0C 10 01 00  cmp         dword ptr [ebp+0Ch],110h
            00
  00405478: 57                 push        edi
  00405479: 89 75 FC           mov         dword ptr [ebp-4],esi
  0040547C: 0F 85 89 01 00 00  jne         0040560B
  00405482: 83 4D D0 FF        or          dword ptr [ebp-30h],0FFFFFFFFh
  00405486: 83 4D DC FF        or          dword ptr [ebp-24h],0FFFFFFFFh
  0040548A: 6A 02              push        2
  0040548C: 33 C0              xor         eax,eax
  0040548E: 5E                 pop         esi
  0040548F: 8D 7D E0           lea         edi,[ebp-20h]
  00405492: 89 75 C8           mov         dword ptr [ebp-38h],esi
  00405495: 89 5D CC           mov         dword ptr [ebp-34h],ebx
  00405498: 89 5D D4           mov         dword ptr [ebp-2Ch],ebx
  0040549B: 89 5D D8           mov         dword ptr [ebp-28h],ebx
  0040549E: AB                 stos        dword ptr es:[edi]
  0040549F: AB                 stos        dword ptr es:[edi]
  004054A0: A1 F4 4E 43 00     mov         eax,dword ptr ds:[00434EF4h]
  004054A5: 8B 3D E4 81 40 00  mov         edi,dword ptr ds:[004081E4h]
  004054AB: 68 03 04 00 00     push        403h
  004054B0: 8B 48 5C           mov         ecx,dword ptr [eax+5Ch]
  004054B3: 8B 40 60           mov         eax,dword ptr [eax+60h]
  004054B6: FF 75 08           push        dword ptr [ebp+8]
  004054B9: 89 4D 0C           mov         dword ptr [ebp+0Ch],ecx
  004054BC: 89 45 10           mov         dword ptr [ebp+10h],eax
  004054BF: FF D7              call        edi
  004054C1: 68 EE 03 00 00     push        3EEh
  004054C6: A3 B0 3E 43 00     mov         dword ptr ds:[00433EB0h],eax
  004054CB: FF 75 08           push        dword ptr [ebp+8]
  004054CE: FF D7              call        edi
  004054D0: 68 F8 03 00 00     push        3F8h
  004054D5: A3 A8 3E 43 00     mov         dword ptr ds:[00433EA8h],eax
  004054DA: FF 75 08           push        dword ptr [ebp+8]
  004054DD: FF D7              call        edi
  004054DF: FF 35 B0 3E 43 00  push        dword ptr ds:[00433EB0h]
  004054E5: A3 C4 3E 43 00     mov         dword ptr ds:[00433EC4h],eax
  004054EA: 89 45 FC           mov         dword ptr [ebp-4],eax
  004054ED: E8 74 ED FF FF     call        00404266
  004054F2: 6A 04              push        4
  004054F4: E8 C6 F6 FF FF     call        00404BBF
  004054F9: A3 B4 3E 43 00     mov         dword ptr ds:[00433EB4h],eax
  004054FE: 8D 45 E8           lea         eax,[ebp-18h]
  00405501: 50                 push        eax
  00405502: 89 1D CC 3E 43 00  mov         dword ptr ds:[00433ECCh],ebx
  00405508: FF 75 FC           push        dword ptr [ebp-4]
  0040550B: FF 15 24 82 40 00  call        dword ptr ds:[00408224h]
  00405511: 56                 push        esi
  00405512: FF 15 E8 81 40 00  call        dword ptr ds:[004081E8h]
  00405518: 8B 4D F0           mov         ecx,dword ptr [ebp-10h]
  0040551B: 8B 35 18 82 40 00  mov         esi,dword ptr ds:[00408218h]
  00405521: 2B C8              sub         ecx,eax
  00405523: 8D 45 C8           lea         eax,[ebp-38h]
  00405526: 50                 push        eax
  00405527: 53                 push        ebx
  00405528: 68 61 10 00 00     push        1061h
  0040552D: 89 4D D0           mov         dword ptr [ebp-30h],ecx
  00405530: FF 75 FC           push        dword ptr [ebp-4]
  00405533: FF D6              call        esi
  00405535: B8 00 40 00 00     mov         eax,4000h
  0040553A: 50                 push        eax
  0040553B: 50                 push        eax
  0040553C: 68 36 10 00 00     push        1036h
  00405541: FF 75 FC           push        dword ptr [ebp-4]
  00405544: FF D6              call        esi
  00405546: 39 5D 0C           cmp         dword ptr [ebp+0Ch],ebx
  00405549: 7C 1C              jl          00405567
  0040554B: FF 75 0C           push        dword ptr [ebp+0Ch]
  0040554E: 53                 push        ebx
  0040554F: 68 01 10 00 00     push        1001h
  00405554: FF 75 FC           push        dword ptr [ebp-4]
  00405557: FF D6              call        esi
  00405559: FF 75 0C           push        dword ptr [ebp+0Ch]
  0040555C: 53                 push        ebx
  0040555D: 68 26 10 00 00     push        1026h
  00405562: FF 75 FC           push        dword ptr [ebp-4]
  00405565: FF D6              call        esi
  00405567: 39 5D 10           cmp         dword ptr [ebp+10h],ebx
  0040556A: 7C 0E              jl          0040557A
  0040556C: FF 75 10           push        dword ptr [ebp+10h]
  0040556F: 53                 push        ebx
  00405570: 68 24 10 00 00     push        1024h
  00405575: FF 75 FC           push        dword ptr [ebp-4]
  00405578: FF D6              call        esi
  0040557A: 8B 45 14           mov         eax,dword ptr [ebp+14h]
  0040557D: FF 70 30           push        dword ptr [eax+30h]
  00405580: 6A 1B              push        1Bh
  00405582: FF 75 08           push        dword ptr [ebp+8]
  00405585: E8 A7 EC FF FF     call        00404231
  0040558A: F6 05 FC 4E 43 00  test        byte ptr ds:[00434EFCh],3
            03
  00405591: 74 34              je          004055C7
  00405593: 53                 push        ebx
  00405594: FF 35 B0 3E 43 00  push        dword ptr ds:[00433EB0h]
  0040559A: FF 15 68 82 40 00  call        dword ptr ds:[00408268h]
  004055A0: F6 05 FC 4E 43 00  test        byte ptr ds:[00434EFCh],2
            02
  004055A7: 75 0D              jne         004055B6
  004055A9: 6A 08              push        8
  004055AB: FF 75 FC           push        dword ptr [ebp-4]
  004055AE: FF 15 68 82 40 00  call        dword ptr ds:[00408268h]
  004055B4: EB 06              jmp         004055BC
  004055B6: 89 1D B0 3E 43 00  mov         dword ptr ds:[00433EB0h],ebx
  004055BC: FF 35 A8 3E 43 00  push        dword ptr ds:[00433EA8h]
  004055C2: E8 9F EC FF FF     call        00404266
  004055C7: 68 EC 03 00 00     push        3ECh
  004055CC: FF 75 08           push        dword ptr [ebp+8]
  004055CF: FF D7              call        edi
  004055D1: 68 00 00 30 75     push        75300000h
  004055D6: 8B F8              mov         edi,eax
  004055D8: 53                 push        ebx
  004055D9: 68 01 04 00 00     push        401h
  004055DE: 57                 push        edi
  004055DF: FF D6              call        esi
  004055E1: F6 05 FC 4E 43 00  test        byte ptr ds:[00434EFCh],4
            04
  004055E8: 0F 84 FC 01 00 00  je          004057EA
  004055EE: FF 75 10           push        dword ptr [ebp+10h]
  004055F1: 53                 push        ebx
  004055F2: 68 09 04 00 00     push        409h
  004055F7: 57                 push        edi
  004055F8: FF D6              call        esi
  004055FA: FF 75 0C           push        dword ptr [ebp+0Ch]
  004055FD: 53                 push        ebx
  004055FE: 68 01 20 00 00     push        2001h
  00405603: 57                 push        edi
  00405604: FF D6              call        esi
  00405606: E9 DF 01 00 00     jmp         004057EA
  0040560B: 81 7D 0C 05 04 00  cmp         dword ptr [ebp+0Ch],405h
            00
  00405612: 75 28              jne         0040563C
  00405614: 8D 45 F8           lea         eax,[ebp-8]
  00405617: 50                 push        eax
  00405618: 53                 push        ebx
  00405619: 68 EC 03 00 00     push        3ECh
  0040561E: FF 75 08           push        dword ptr [ebp+8]
  00405621: FF 15 E4 81 40 00  call        dword ptr ds:[004081E4h]
  00405627: 50                 push        eax
  00405628: 68 F5 53 40 00     push        4053F5h
  0040562D: 53                 push        ebx
  0040562E: 53                 push        ebx
  0040562F: FF 15 C0 80 40 00  call        dword ptr ds:[004080C0h]
  00405635: 50                 push        eax
  00405636: FF 15 20 81 40 00  call        dword ptr ds:[00408120h]
  0040563C: 81 7D 0C 11 01 00  cmp         dword ptr [ebp+0Ch],111h
            00
  00405643: 8B 3D 68 82 40 00  mov         edi,dword ptr ds:[00408268h]
  00405649: 75 1C              jne         00405667
  0040564B: 66 81 7D 10 03 04  cmp         word ptr [ebp+10h],403h
  00405651: 75 39              jne         0040568C
  00405653: 53                 push        ebx
  00405654: FF 35 B0 3E 43 00  push        dword ptr ds:[00433EB0h]
  0040565A: FF D7              call        edi
  0040565C: 6A 08              push        8
  0040565E: 56                 push        esi
  0040565F: FF D7              call        edi
  00405661: 56                 push        esi
  00405662: E8 FF EB FF FF     call        00404266
  00405667: 33 F6              xor         esi,esi
  00405669: 46                 inc         esi
  0040566A: 81 7D 0C 04 04 00  cmp         dword ptr [ebp+0Ch],404h
            00
  00405671: 75 54              jne         004056C7
  00405673: 39 1D AC 3E 43 00  cmp         dword ptr ds:[00433EACh],ebx
  00405679: 74 26              je          004056A1
  0040567B: 6A 78              push        78h
  0040567D: C7 05 18 BA 42 00  mov         dword ptr ds:[0042BA18h],2
            02 00 00 00
  00405687: E8 7E EB FF FF     call        0040420A
  0040568C: FF 75 14           push        dword ptr [ebp+14h]
  0040568F: FF 75 10           push        dword ptr [ebp+10h]
  00405692: FF 75 0C           push        dword ptr [ebp+0Ch]
  00405695: E8 FE EB FF FF     call        00404298
  0040569A: 5F                 pop         edi
  0040569B: 5E                 pop         esi
  0040569C: 5B                 pop         ebx
  0040569D: C9                 leave
  0040569E: C2 10 00           ret         10h
  004056A1: 6A 08              push        8
  004056A3: FF 35 E8 4E 43 00  push        dword ptr ds:[00434EE8h]
  004056A9: FF D7              call        edi
  004056AB: 39 1D 8C 4F 43 00  cmp         dword ptr ds:[00434F8Ch],ebx
  004056B1: 75 0E              jne         004056C1
  004056B3: A1 20 C2 42 00     mov         eax,dword ptr ds:[0042C220h]
  004056B8: 53                 push        ebx
  004056B9: FF 70 34           push        dword ptr [eax+34h]
  004056BC: E8 61 FC FF FF     call        00405322
  004056C1: 56                 push        esi
  004056C2: E8 43 EB FF FF     call        0040420A
  004056C7: 83 7D 0C 7B        cmp         dword ptr [ebp+0Ch],7Bh
  004056CB: 75 BF              jne         0040568C
  004056CD: 8B 45 FC           mov         eax,dword ptr [ebp-4]
  004056D0: 39 45 10           cmp         dword ptr [ebp+10h],eax
  004056D3: 75 B7              jne         0040568C
  004056D5: 53                 push        ebx
  004056D6: 53                 push        ebx
  004056D7: 68 04 10 00 00     push        1004h
  004056DC: 50                 push        eax
  004056DD: FF 15 18 82 40 00  call        dword ptr ds:[00408218h]
  004056E3: 3B C3              cmp         eax,ebx
  004056E5: 89 45 0C           mov         dword ptr [ebp+0Ch],eax
  004056E8: 0F 8E FC 00 00 00  jle         004057EA
  004056EE: FF 15 80 82 40 00  call        dword ptr ds:[00408280h]
  004056F4: 6A E1              push        0FFFFFFE1h
  004056F6: 53                 push        ebx
  004056F7: 8B F8              mov         edi,eax
  004056F9: E8 DE 0B 00 00     call        004062DC
  004056FE: 50                 push        eax
  004056FF: 56                 push        esi
  00405700: 53                 push        ebx
  00405701: 57                 push        edi
  00405702: FF 15 7C 82 40 00  call        dword ptr ds:[0040827Ch]
  00405708: 8B 4D 14           mov         ecx,dword ptr [ebp+14h]
  0040570B: 0F BF 45 14        movsx       eax,word ptr [ebp+14h]
  0040570F: C1 E9 10           shr         ecx,10h
  00405712: 83 7D 14 FF        cmp         dword ptr [ebp+14h],0FFFFFFFFh
  00405716: 0F BF C9           movsx       ecx,cx
  00405719: 75 13              jne         0040572E
  0040571B: 8D 45 E8           lea         eax,[ebp-18h]
  0040571E: 50                 push        eax
  0040571F: FF 75 FC           push        dword ptr [ebp-4]
  00405722: FF 15 E0 81 40 00  call        dword ptr ds:[004081E0h]
  00405728: 8B 45 E8           mov         eax,dword ptr [ebp-18h]
  0040572B: 8B 4D EC           mov         ecx,dword ptr [ebp-14h]
  0040572E: 53                 push        ebx
  0040572F: FF 75 08           push        dword ptr [ebp+8]
  00405732: 53                 push        ebx
  00405733: 51                 push        ecx
  00405734: 50                 push        eax
  00405735: 68 80 01 00 00     push        180h
  0040573A: 57                 push        edi
  0040573B: FF 15 78 82 40 00  call        dword ptr ds:[00408278h]
  00405741: 3B C6              cmp         eax,esi
  00405743: 0F 85 A1 00 00 00  jne         004057EA
  00405749: 8B 45 0C           mov         eax,dword ptr [ebp+0Ch]
  0040574C: 89 5D C8           mov         dword ptr [ebp-38h],ebx
  0040574F: C7 45 D4 48 D2 42  mov         dword ptr [ebp-2Ch],42D248h
            00
  00405756: C7 45 D8 00 10 00  mov         dword ptr [ebp-28h],1000h
            00
  0040575D: 89 45 08           mov         dword ptr [ebp+8],eax
  00405760: BF 73 10 00 00     mov         edi,1073h
  00405765: FF 4D 08           dec         dword ptr [ebp+8]
  00405768: 8D 45 C0           lea         eax,[ebp-40h]
  0040576B: 50                 push        eax
  0040576C: FF 75 08           push        dword ptr [ebp+8]
  0040576F: 57                 push        edi
  00405770: FF 75 FC           push        dword ptr [ebp-4]
  00405773: FF 15 18 82 40 00  call        dword ptr ds:[00408218h]
  00405779: 39 5D 08           cmp         dword ptr [ebp+8],ebx
  0040577C: 8D 74 06 02        lea         esi,[esi+eax+2]
  00405780: 75 E3              jne         00405765
  00405782: 53                 push        ebx
  00405783: FF 15 D8 81 40 00  call        dword ptr ds:[004081D8h]
  00405789: FF 15 D4 81 40 00  call        dword ptr ds:[004081D4h]
  0040578F: 8D 04 36           lea         eax,[esi+esi]
  00405792: 50                 push        eax
  00405793: 6A 42              push        42h
  00405795: FF 15 34 81 40 00  call        dword ptr ds:[00408134h]
  0040579B: 50                 push        eax
  0040579C: 89 45 08           mov         dword ptr [ebp+8],eax
  0040579F: FF 15 2C 81 40 00  call        dword ptr ds:[0040812Ch]
  004057A5: 8B F0              mov         esi,eax
  004057A7: 8D 45 C0           lea         eax,[ebp-40h]
  004057AA: 89 75 D4           mov         dword ptr [ebp-2Ch],esi
  004057AD: 50                 push        eax
  004057AE: 53                 push        ebx
  004057AF: 57                 push        edi
  004057B0: FF 75 FC           push        dword ptr [ebp-4]
  004057B3: FF 15 18 82 40 00  call        dword ptr ds:[00408218h]
  004057B9: 8D 34 46           lea         esi,[esi+eax*2]
  004057BC: 66 C7 06 0D 00     mov         word ptr [esi],0Dh
  004057C1: 46                 inc         esi
  004057C2: 46                 inc         esi
  004057C3: 66 C7 06 0A 00     mov         word ptr [esi],0Ah
  004057C8: 46                 inc         esi
  004057C9: 46                 inc         esi
  004057CA: 43                 inc         ebx
  004057CB: 3B 5D 0C           cmp         ebx,dword ptr [ebp+0Ch]
  004057CE: 7C D7              jl          004057A7
  004057D0: FF 75 08           push        dword ptr [ebp+8]
  004057D3: FF 15 30 81 40 00  call        dword ptr ds:[00408130h]
  004057D9: FF 75 08           push        dword ptr [ebp+8]
  004057DC: 6A 0D              push        0Dh
  004057DE: FF 15 D0 81 40 00  call        dword ptr ds:[004081D0h]
  004057E4: FF 15 CC 81 40 00  call        dword ptr ds:[004081CCh]
  004057EA: 33 C0              xor         eax,eax
  004057EC: E9 A9 FE FF FF     jmp         0040569A
  004057F1: 55                 push        ebp
  004057F2: 8B EC              mov         ebp,esp
  004057F4: 83 EC 20           sub         esp,20h
  004057F7: B8 F8 83 40 00     mov         eax,4083F8h
  004057FC: 80 65 E1 00        and         byte ptr [ebp-1Fh],0
  00405800: 89 45 E4           mov         dword ptr [ebp-1Ch],eax
  00405803: 89 45 E8           mov         dword ptr [ebp-18h],eax
  00405806: 8D 45 E0           lea         eax,[ebp-20h]
  00405809: 83 65 EC 00        and         dword ptr [ebp-14h],0
  0040580D: 83 65 FC 00        and         dword ptr [ebp-4],0
  00405811: 89 45 F8           mov         dword ptr [ebp-8],eax
  00405814: 8D 45 F4           lea         eax,[ebp-0Ch]
  00405817: 56                 push        esi
  00405818: 50                 push        eax
  00405819: C6 45 E0 01        mov         byte ptr [ebp-20h],1
  0040581D: FF 75 08           push        dword ptr [ebp+8]
  00405820: 66 C7 45 E2 04 00  mov         word ptr [ebp-1Eh],4
  00405826: C7 45 F0 E8 83 40  mov         dword ptr [ebp-10h],4083E8h
            00
  0040582D: C7 45 F4 0C 00 00  mov         dword ptr [ebp-0Ch],0Ch
            00
  00405834: FF 15 C8 80 40 00  call        dword ptr ds:[004080C8h]
  0040583A: 85 C0              test        eax,eax
  0040583C: 74 04              je          00405842
  0040583E: 33 C0              xor         eax,eax
  00405840: EB 27              jmp         00405869
  00405842: 8B 35 C4 80 40 00  mov         esi,dword ptr ds:[004080C4h]
  00405848: FF D6              call        esi
  0040584A: 3D B7 00 00 00     cmp         eax,0B7h
  0040584F: 75 18              jne         00405869
  00405851: 8D 45 E0           lea         eax,[ebp-20h]
  00405854: 50                 push        eax
  00405855: 68 07 00 00 80     push        80000007h
  0040585A: FF 75 08           push        dword ptr [ebp+8]
  0040585D: FF 15 0C 80 40 00  call        dword ptr ds:[0040800Ch]
  00405863: 85 C0              test        eax,eax
  00405865: 75 D7              jne         0040583E
  00405867: FF D6              call        esi
  00405869: 5E                 pop         esi
  0040586A: C9                 leave
  0040586B: C2 04 00           ret         4
  0040586E: 6A 00              push        0
  00405870: FF 74 24 08        push        dword ptr [esp+8]
  00405874: FF 15 C8 80 40 00  call        dword ptr ds:[004080C8h]
  0040587A: 85 C0              test        eax,eax
  0040587C: 74 04              je          00405882
  0040587E: 33 C0              xor         eax,eax
  00405880: EB 06              jmp         00405888
  00405882: FF 15 C4 80 40 00  call        dword ptr ds:[004080C4h]
  00405888: C2 04 00           ret         4
  0040588B: 6A 05              push        5
  0040588D: E8 02 0E 00 00     call        00406694
  00405892: 85 C0              test        eax,eax
  00405894: 74 0A              je          004058A0
  00405896: FF D0              call        eax
  00405898: 85 C0              test        eax,eax
  0040589A: 74 04              je          004058A0
  0040589C: 33 C0              xor         eax,eax
  0040589E: 40                 inc         eax
  0040589F: C3                 ret
  004058A0: 33 C0              xor         eax,eax
  004058A2: C3                 ret
  004058A3: 55                 push        ebp
  004058A4: 8B EC              mov         ebp,esp
  004058A6: 83 EC 10           sub         esp,10h
  004058A9: 8D 45 F0           lea         eax,[ebp-10h]
  004058AC: C7 05 50 02 43 00  mov         dword ptr ds:[00430250h],44h
            44 00 00 00
  004058B6: 50                 push        eax
  004058B7: 33 C0              xor         eax,eax
  004058B9: 68 50 02 43 00     push        430250h
  004058BE: 50                 push        eax
  004058BF: 50                 push        eax
  004058C0: 68 00 00 00 04     push        4000000h
  004058C5: 50                 push        eax
  004058C6: 50                 push        eax
  004058C7: 50                 push        eax
  004058C8: FF 75 08           push        dword ptr [ebp+8]
  004058CB: 50                 push        eax
  004058CC: FF 15 CC 80 40 00  call        dword ptr ds:[004080CCh]
  004058D2: 85 C0              test        eax,eax
  004058D4: 74 0C              je          004058E2
  004058D6: FF 75 F4           push        dword ptr [ebp-0Ch]
  004058D9: FF 15 20 81 40 00  call        dword ptr ds:[00408120h]
  004058DF: 8B 45 F0           mov         eax,dword ptr [ebp-10h]
  004058E2: C9                 leave
  004058E3: C2 04 00           ret         4
  004058E6: 8B 44 24 04        mov         eax,dword ptr [esp+4]
  004058EA: 50                 push        eax
  004058EB: 83 60 24 00        and         dword ptr [eax+24h],0
  004058EF: C7 00 3C 00 00 00  mov         dword ptr [eax],3Ch
  004058F5: FF 15 7C 81 40 00  call        dword ptr ds:[0040817Ch]
  004058FB: C2 04 00           ret         4
  004058FE: FF 25 EC 81 40 00  jmp         dword ptr ds:[004081ECh]
  00405904: 68 00 04 00 00     push        400h
  00405909: FF 74 24 0C        push        dword ptr [esp+0Ch]
  0040590D: FF 74 24 0C        push        dword ptr [esp+0Ch]
  00405911: FF 35 B8 3E 43 00  push        dword ptr ds:[00433EB8h]
  00405917: FF 15 F0 81 40 00  call        dword ptr ds:[004081F0h]
  0040591D: C2 08 00           ret         8
  00405920: 8B 44 24 08        mov         eax,dword ptr [esp+8]
  00405924: 8B C8              mov         ecx,eax
  00405926: 81 E1 FF FF 1F 00  and         ecx,1FFFFFh
  0040592C: 83 3D A0 4F 43 00  cmp         dword ptr ds:[00434FA0h],0
            00
  00405933: 74 05              je          0040593A
  00405935: C1 E8 15           shr         eax,15h
  00405938: 75 47              jne         00405981
  0040593A: 83 3D A8 4F 43 00  cmp         dword ptr ds:[00434FA8h],0
            00
  00405941: 74 06              je          00405949
  00405943: 81 F1 00 00 18 00  xor         ecx,180000h
  00405949: A1 E8 4E 43 00     mov         eax,dword ptr ds:[00434EE8h]
  0040594E: 68 B8 A3 40 00     push        40A3B8h
  00405953: A3 BC A3 40 00     mov         dword ptr ds:[0040A3BCh],eax
  00405958: A1 E0 4E 43 00     mov         eax,dword ptr ds:[00434EE0h]
  0040595D: A3 C0 A3 40 00     mov         dword ptr ds:[0040A3C0h],eax
  00405962: 8B 44 24 08        mov         eax,dword ptr [esp+8]
  00405966: A3 C4 A3 40 00     mov         dword ptr ds:[0040A3C4h],eax
  0040596B: C7 05 C8 A3 40 00  mov         dword ptr ds:[0040A3C8h],433EE0h
            E0 3E 43 00
  00405975: 89 0D CC A3 40 00  mov         dword ptr ds:[0040A3CCh],ecx
  0040597B: FF 15 F4 81 40 00  call        dword ptr ds:[004081F4h]
  00405981: C2 08 00           ret         8
  00405984: 56                 push        esi
  00405985: 8B 74 24 08        mov         esi,dword ptr [esp+8]
  00405989: 57                 push        edi
  0040598A: 56                 push        esi
  0040598B: E8 FB 03 00 00     call        00405D8B
  00405990: 8B F8              mov         edi,eax
  00405992: 83 FF FF           cmp         edi,0FFFFFFFFh
  00405995: 74 2E              je          004059C5
  00405997: F6 44 24 10 01     test        byte ptr [esp+10h],1
  0040599C: 56                 push        esi
  0040599D: 74 08              je          004059A7
  0040599F: FF 15 D0 80 40 00  call        dword ptr ds:[004080D0h]
  004059A5: EB 06              jmp         004059AD
  004059A7: FF 15 40 81 40 00  call        dword ptr ds:[00408140h]
  004059AD: 85 C0              test        eax,eax
  004059AF: 74 05              je          004059B6
  004059B1: 33 C0              xor         eax,eax
  004059B3: 40                 inc         eax
  004059B4: EB 11              jmp         004059C7
  004059B6: F6 44 24 10 04     test        byte ptr [esp+10h],4
  004059BB: 75 08              jne         004059C5
  004059BD: 57                 push        edi
  004059BE: 56                 push        esi
  004059BF: FF 15 74 80 40 00  call        dword ptr ds:[00408074h]
  004059C5: 33 C0              xor         eax,eax
  004059C7: 5F                 pop         edi
  004059C8: 5E                 pop         esi
  004059C9: C2 08 00           ret         8
  004059CC: 55                 push        ebp
  004059CD: 8B EC              mov         ebp,esp
  004059CF: 81 EC 58 02 00 00  sub         esp,258h
  004059D5: 53                 push        ebx
  004059D6: 8B 5D 0C           mov         ebx,dword ptr [ebp+0Ch]
  004059D9: 56                 push        esi
  004059DA: 57                 push        edi
  004059DB: 8B 7D 08           mov         edi,dword ptr [ebp+8]
  004059DE: 8B C3              mov         eax,ebx
  004059E0: 83 E0 04           and         eax,4
  004059E3: 57                 push        edi
  004059E4: 89 45 FC           mov         dword ptr [ebp-4],eax
  004059E7: E8 AB 02 00 00     call        00405C97
  004059EC: F6 C3 08           test        bl,8
  004059EF: 89 45 F8           mov         dword ptr [ebp-8],eax
  004059F2: 74 17              je          00405A0B
  004059F4: 57                 push        edi
  004059F5: FF 15 40 81 40 00  call        dword ptr ds:[00408140h]
  004059FB: F7 D8              neg         eax
  004059FD: 1B C0              sbb         eax,eax
  004059FF: 40                 inc         eax
  00405A00: 01 05 88 4F 43 00  add         dword ptr ds:[00434F88h],eax
  00405A06: E9 7D 01 00 00     jmp         00405B88
  00405A0B: 89 5D 08           mov         dword ptr [ebp+8],ebx
  00405A0E: 83 65 08 01        and         dword ptr [ebp+8],1
  00405A12: 74 11              je          00405A25
  00405A14: 85 C0              test        eax,eax
  00405A16: 0F 84 1A 01 00 00  je          00405B36
  00405A1C: F6 C3 02           test        bl,2
  00405A1F: 0F 84 11 01 00 00  je          00405B36
  00405A25: BE 50 F2 42 00     mov         esi,42F250h
  00405A2A: 57                 push        edi
  00405A2B: 56                 push        esi
  00405A2C: E8 89 08 00 00     call        004062BA
  00405A31: 83 7D 08 00        cmp         dword ptr [ebp+8],0
  00405A35: 74 0D              je          00405A44
  00405A37: 68 4C A5 40 00     push        40A54Ch
  00405A3C: 56                 push        esi
  00405A3D: E8 94 08 00 00     call        004062D6
  00405A42: EB 06              jmp         00405A4A
  00405A44: 57                 push        edi
  00405A45: E8 91 01 00 00     call        00405BDB
  00405A4A: 66 83 3F 00        cmp         word ptr [edi],0
  00405A4E: 75 0A              jne         00405A5A
  00405A50: 66 83 3D 50 F2 42  cmp         word ptr ds:[0042F250h],5Ch
            00 5C
  00405A58: 75 0B              jne         00405A65
  00405A5A: 68 14 A0 40 00     push        40A014h
  00405A5F: 57                 push        edi
  00405A60: E8 71 08 00 00     call        004062D6
  00405A65: 57                 push        edi
  00405A66: E8 65 08 00 00     call        004062D0
  00405A6B: 8D 1C 47           lea         ebx,[edi+eax*2]
  00405A6E: 8D 85 A8 FD FF FF  lea         eax,[ebp+FFFFFDA8h]
  00405A74: 50                 push        eax
  00405A75: 56                 push        esi
  00405A76: FF 15 38 81 40 00  call        dword ptr ds:[00408138h]
  00405A7C: 8B F0              mov         esi,eax
  00405A7E: 83 FE FF           cmp         esi,0FFFFFFFFh
  00405A81: 0F 84 A4 00 00 00  je          00405B2B
  00405A87: 66 83 BD D4 FD FF  cmp         word ptr [ebp+FFFFFDD4h],2Eh
            FF 2E
  00405A8F: 75 1E              jne         00405AAF
  00405A91: 66 83 BD D6 FD FF  cmp         word ptr [ebp+FFFFFDD6h],0
            FF 00
  00405A99: 74 73              je          00405B0E
  00405A9B: 66 83 BD D6 FD FF  cmp         word ptr [ebp+FFFFFDD6h],2Eh
            FF 2E
  00405AA3: 75 0A              jne         00405AAF
  00405AA5: 66 83 BD D8 FD FF  cmp         word ptr [ebp+FFFFFDD8h],0
            FF 00
  00405AAD: 74 5F              je          00405B0E
  00405AAF: 8D 85 D4 FD FF FF  lea         eax,[ebp+FFFFFDD4h]
  00405AB5: 50                 push        eax
  00405AB6: 53                 push        ebx
  00405AB7: E8 FE 07 00 00     call        004062BA
  00405ABC: F6 85 A8 FD FF FF  test        byte ptr [ebp+FFFFFDA8h],10h
            10
  00405AC3: 74 15              je          00405ADA
  00405AC5: 8B 45 0C           mov         eax,dword ptr [ebp+0Ch]
  00405AC8: 83 E0 03           and         eax,3
  00405ACB: 3C 03              cmp         al,3
  00405ACD: 75 3F              jne         00405B0E
  00405ACF: FF 75 0C           push        dword ptr [ebp+0Ch]
  00405AD2: 57                 push        edi
  00405AD3: E8 F4 FE FF FF     call        004059CC
  00405AD8: EB 34              jmp         00405B0E
  00405ADA: FF 75 FC           push        dword ptr [ebp-4]
  00405ADD: 57                 push        edi
  00405ADE: E8 A1 FE FF FF     call        00405984
  00405AE3: 85 C0              test        eax,eax
  00405AE5: 75 1F              jne         00405B06
  00405AE7: 39 45 FC           cmp         dword ptr [ebp-4],eax
  00405AEA: 74 12              je          00405AFE
  00405AEC: 57                 push        edi
  00405AED: 6A F1              push        0FFFFFFF1h
  00405AEF: E8 2E F8 FF FF     call        00405322
  00405AF4: 6A 00              push        0
  00405AF6: 57                 push        edi
  00405AF7: E8 84 05 00 00     call        00406080
  00405AFC: EB 10              jmp         00405B0E
  00405AFE: FF 05 88 4F 43 00  inc         dword ptr ds:[00434F88h]
  00405B04: EB 08              jmp         00405B0E
  00405B06: 57                 push        edi
  00405B07: 6A F2              push        0FFFFFFF2h
  00405B09: E8 14 F8 FF FF     call        00405322
  00405B0E: 8D 85 A8 FD FF FF  lea         eax,[ebp+FFFFFDA8h]
  00405B14: 50                 push        eax
  00405B15: 56                 push        esi
  00405B16: FF 15 3C 81 40 00  call        dword ptr ds:[0040813Ch]
  00405B1C: 85 C0              test        eax,eax
  00405B1E: 0F 85 63 FF FF FF  jne         00405A87
  00405B24: 56                 push        esi
  00405B25: FF 15 4C 81 40 00  call        dword ptr ds:[0040814Ch]
  00405B2B: 83 7D 08 00        cmp         dword ptr [ebp+8],0
  00405B2F: 74 05              je          00405B36
  00405B31: 66 83 63 FE 00     and         word ptr [ebx-2],0
  00405B36: 33 F6              xor         esi,esi
  00405B38: 39 75 08           cmp         dword ptr [ebp+8],esi
  00405B3B: 74 4B              je          00405B88
  00405B3D: 39 75 F8           cmp         dword ptr [ebp-8],esi
  00405B40: 75 08              jne         00405B4A
  00405B42: FF 05 88 4F 43 00  inc         dword ptr ds:[00434F88h]
  00405B48: EB 3E              jmp         00405B88
  00405B4A: 57                 push        edi
  00405B4B: E8 AD 0A 00 00     call        004065FD
  00405B50: 85 C0              test        eax,eax
  00405B52: 74 34              je          00405B88
  00405B54: 57                 push        edi
  00405B55: E8 35 00 00 00     call        00405B8F
  00405B5A: 8B 45 FC           mov         eax,dword ptr [ebp-4]
  00405B5D: 0C 01              or          al,1
  00405B5F: 50                 push        eax
  00405B60: 57                 push        edi
  00405B61: E8 1E FE FF FF     call        00405984
  00405B66: 85 C0              test        eax,eax
  00405B68: 75 16              jne         00405B80
  00405B6A: 39 75 FC           cmp         dword ptr [ebp-4],esi
  00405B6D: 74 D3              je          00405B42
  00405B6F: 57                 push        edi
  00405B70: 6A F1              push        0FFFFFFF1h
  00405B72: E8 AB F7 FF FF     call        00405322
  00405B77: 56                 push        esi
  00405B78: 57                 push        edi
  00405B79: E8 02 05 00 00     call        00406080
  00405B7E: EB 08              jmp         00405B88
  00405B80: 57                 push        edi
  00405B81: 6A E5              push        0FFFFFFE5h
  00405B83: E8 9A F7 FF FF     call        00405322
  00405B88: 5F                 pop         edi
  00405B89: 5E                 pop         esi
  00405B8A: 5B                 pop         ebx
  00405B8B: C9                 leave
  00405B8C: C2 08 00           ret         8
  00405B8F: 56                 push        esi
  00405B90: 8B 74 24 08        mov         esi,dword ptr [esp+8]
  00405B94: 56                 push        esi
  00405B95: E8 36 07 00 00     call        004062D0
  00405B9A: 8D 04 46           lea         eax,[esi+eax*2]
  00405B9D: 50                 push        eax
  00405B9E: 56                 push        esi
  00405B9F: FF 15 F8 81 40 00  call        dword ptr ds:[004081F8h]
  00405BA5: 66 83 38 5C        cmp         word ptr [eax],5Ch
  00405BA9: 74 0B              je          00405BB6
  00405BAB: 68 14 A0 40 00     push        40A014h
  00405BB0: 56                 push        esi
  00405BB1: E8 20 07 00 00     call        004062D6
  00405BB6: 8B C6              mov         eax,esi
  00405BB8: 5E                 pop         esi
  00405BB9: C2 04 00           ret         4
  00405BBC: 8B 44 24 04        mov         eax,dword ptr [esp+4]
  00405BC0: EB 0E              jmp         00405BD0
  00405BC2: 66 3B 4C 24 08     cmp         cx,word ptr [esp+8]
  00405BC7: 74 0F              je          00405BD8
  00405BC9: 50                 push        eax
  00405BCA: FF 15 48 82 40 00  call        dword ptr ds:[00408248h]
  00405BD0: 66 8B 08           mov         cx,word ptr [eax]
  00405BD3: 66 85 C9           test        cx,cx
  00405BD6: 75 EA              jne         00405BC2
  00405BD8: C2 08 00           ret         8
  00405BDB: 56                 push        esi
  00405BDC: 8B 74 24 08        mov         esi,dword ptr [esp+8]
  00405BE0: 56                 push        esi
  00405BE1: E8 EA 06 00 00     call        004062D0
  00405BE6: 8D 04 46           lea         eax,[esi+eax*2]
  00405BE9: 66 83 38 5C        cmp         word ptr [eax],5Ch
  00405BED: 74 0C              je          00405BFB
  00405BEF: 50                 push        eax
  00405BF0: 56                 push        esi
  00405BF1: FF 15 F8 81 40 00  call        dword ptr ds:[004081F8h]
  00405BF7: 3B C6              cmp         eax,esi
  00405BF9: 77 EE              ja          00405BE9
  00405BFB: 66 83 20 00        and         word ptr [eax],0
  00405BFF: 83 C0 02           add         eax,2
  00405C02: 5E                 pop         esi
  00405C03: C2 04 00           ret         4
  00405C06: 8B 54 24 04        mov         edx,dword ptr [esp+4]
  00405C0A: 66 8B 0A           mov         cx,word ptr [edx]
  00405C0D: 8B C1              mov         eax,ecx
  00405C0F: 0C 20              or          al,20h
  00405C11: 66 83 F9 5C        cmp         cx,5Ch
  00405C15: 75 06              jne         00405C1D
  00405C17: 66 39 4A 02        cmp         word ptr [edx+2],cx
  00405C1B: 74 13              je          00405C30
  00405C1D: 66 3D 61 00        cmp         ax,61h
  00405C21: 72 12              jb          00405C35
  00405C23: 66 3D 7A 00        cmp         ax,7Ah
  00405C27: 77 0C              ja          00405C35
  00405C29: 66 83 7A 02 3A     cmp         word ptr [edx+2],3Ah
  00405C2E: 75 05              jne         00405C35
  00405C30: 33 C0              xor         eax,eax
  00405C32: 40                 inc         eax
  00405C33: EB 02              jmp         00405C37
  00405C35: 33 C0              xor         eax,eax
  00405C37: C2 04 00           ret         4
  00405C3A: 53                 push        ebx
  00405C3B: 56                 push        esi
  00405C3C: 8B 35 48 82 40 00  mov         esi,dword ptr ds:[00408248h]
  00405C42: 57                 push        edi
  00405C43: 8B 7C 24 10        mov         edi,dword ptr [esp+10h]
  00405C47: 57                 push        edi
  00405C48: FF D6              call        esi
  00405C4A: 8B D8              mov         ebx,eax
  00405C4C: 53                 push        ebx
  00405C4D: FF D6              call        esi
  00405C4F: 66 8B 0F           mov         cx,word ptr [edi]
  00405C52: 66 85 C9           test        cx,cx
  00405C55: 74 12              je          00405C69
  00405C57: 66 83 3B 3A        cmp         word ptr [ebx],3Ah
  00405C5B: 75 0C              jne         00405C69
  00405C5D: 66 83 7B 02 5C     cmp         word ptr [ebx+2],5Ch
  00405C62: 75 05              jne         00405C69
  00405C64: 50                 push        eax
  00405C65: FF D6              call        esi
  00405C67: EB 28              jmp         00405C91
  00405C69: 66 83 F9 5C        cmp         cx,5Ch
  00405C6D: 75 20              jne         00405C8F
  00405C6F: 66 39 4F 02        cmp         word ptr [edi+2],cx
  00405C73: 75 1A              jne         00405C8F
  00405C75: 6A 02              push        2
  00405C77: 5E                 pop         esi
  00405C78: 6A 5C              push        5Ch
  00405C7A: 50                 push        eax
  00405C7B: 4E                 dec         esi
  00405C7C: E8 3B FF FF FF     call        00405BBC
  00405C81: 66 83 38 00        cmp         word ptr [eax],0
  00405C85: 74 08              je          00405C8F
  00405C87: 40                 inc         eax
  00405C88: 40                 inc         eax
  00405C89: 85 F6              test        esi,esi
  00405C8B: 75 EB              jne         00405C78
  00405C8D: EB 02              jmp         00405C91
  00405C8F: 33 C0              xor         eax,eax
  00405C91: 5F                 pop         edi
  00405C92: 5E                 pop         esi
  00405C93: 5B                 pop         ebx
  00405C94: C2 04 00           ret         4
  00405C97: 56                 push        esi
  00405C98: 57                 push        edi
  00405C99: FF 74 24 0C        push        dword ptr [esp+0Ch]
  00405C9D: BE 50 FA 42 00     mov         esi,42FA50h
  00405CA2: 56                 push        esi
  00405CA3: E8 12 06 00 00     call        004062BA
  00405CA8: 56                 push        esi
  00405CA9: E8 8C FF FF FF     call        00405C3A
  00405CAE: 8B F8              mov         edi,eax
  00405CB0: 85 FF              test        edi,edi
  00405CB2: 75 04              jne         00405CB8
  00405CB4: 33 C0              xor         eax,eax
  00405CB6: EB 58              jmp         00405D10
  00405CB8: 57                 push        edi
  00405CB9: E8 90 08 00 00     call        0040654E
  00405CBE: F6 05 FC 4E 43 00  test        byte ptr ds:[00434EFCh],80h
            80
  00405CC5: 74 0E              je          00405CD5
  00405CC7: 66 8B 07           mov         ax,word ptr [edi]
  00405CCA: 66 85 C0           test        ax,ax
  00405CCD: 74 E5              je          00405CB4
  00405CCF: 66 3D 5C 00        cmp         ax,5Ch
  00405CD3: 74 DF              je          00405CB4
  00405CD5: 2B FE              sub         edi,esi
  00405CD7: D1 FF              sar         edi,1
  00405CD9: EB 14              jmp         00405CEF
  00405CDB: E8 1D 09 00 00     call        004065FD
  00405CE0: 85 C0              test        eax,eax
  00405CE2: 74 05              je          00405CE9
  00405CE4: F6 00 10           test        byte ptr [eax],10h
  00405CE7: 74 CB              je          00405CB4
  00405CE9: 56                 push        esi
  00405CEA: E8 EC FE FF FF     call        00405BDB
  00405CEF: 56                 push        esi
  00405CF0: E8 DB 05 00 00     call        004062D0
  00405CF5: 3B C7              cmp         eax,edi
  00405CF7: 56                 push        esi
  00405CF8: 7F E1              jg          00405CDB
  00405CFA: E8 90 FE FF FF     call        00405B8F
  00405CFF: 56                 push        esi
  00405D00: FF 15 94 80 40 00  call        dword ptr ds:[00408094h]
  00405D06: 33 C9              xor         ecx,ecx
  00405D08: 83 F8 FF           cmp         eax,0FFFFFFFFh
  00405D0B: 0F 95 C1           setne       cl
  00405D0E: 8B C1              mov         eax,ecx
  00405D10: 5F                 pop         edi
  00405D11: 5E                 pop         esi
  00405D12: C2 04 00           ret         4
  00405D15: 55                 push        ebp
  00405D16: 8B EC              mov         ebp,esp
  00405D18: 51                 push        ecx
  00405D19: 53                 push        ebx
  00405D1A: 56                 push        esi
  00405D1B: 57                 push        edi
  00405D1C: 8B 3D 50 81 40 00  mov         edi,dword ptr ds:[00408150h]
  00405D22: FF 75 0C           push        dword ptr [ebp+0Ch]
  00405D25: FF D7              call        edi
  00405D27: 8B 75 08           mov         esi,dword ptr [ebp+8]
  00405D2A: 89 45 FC           mov         dword ptr [ebp-4],eax
  00405D2D: EB 27              jmp         00405D56
  00405D2F: 8B 45 FC           mov         eax,dword ptr [ebp-4]
  00405D32: FF 75 0C           push        dword ptr [ebp+0Ch]
  00405D35: 8A 1C 30           mov         bl,byte ptr [eax+esi]
  00405D38: 80 24 30 00        and         byte ptr [eax+esi],0
  00405D3C: 56                 push        esi
  00405D3D: FF 15 D4 80 40 00  call        dword ptr ds:[004080D4h]
  00405D43: 85 C0              test        eax,eax
  00405D45: 8B 45 FC           mov         eax,dword ptr [ebp-4]
  00405D48: 88 1C 30           mov         byte ptr [eax+esi],bl
  00405D4B: 74 1A              je          00405D67
  00405D4D: 56                 push        esi
  00405D4E: FF 15 FC 81 40 00  call        dword ptr ds:[004081FCh]
  00405D54: 8B F0              mov         esi,eax
  00405D56: 56                 push        esi
  00405D57: FF D7              call        edi
  00405D59: 3B 45 FC           cmp         eax,dword ptr [ebp-4]
  00405D5C: 7D D1              jge         00405D2F
  00405D5E: 33 C0              xor         eax,eax
  00405D60: 5F                 pop         edi
  00405D61: 5E                 pop         esi
  00405D62: 5B                 pop         ebx
  00405D63: C9                 leave
  00405D64: C2 08 00           ret         8
  00405D67: 8B C6              mov         eax,esi
  00405D69: EB F5              jmp         00405D60
  00405D6B: 8B 4C 24 04        mov         ecx,dword ptr [esp+4]
  00405D6F: 56                 push        esi
  00405D70: 8B 74 24 10        mov         esi,dword ptr [esp+10h]
  00405D74: 85 F6              test        esi,esi
  00405D76: 76 0F              jbe         00405D87
  00405D78: 8B 44 24 0C        mov         eax,dword ptr [esp+0Ch]
  00405D7C: 2B C1              sub         eax,ecx
  00405D7E: 8A 14 08           mov         dl,byte ptr [eax+ecx]
  00405D81: 88 11              mov         byte ptr [ecx],dl
  00405D83: 41                 inc         ecx
  00405D84: 4E                 dec         esi
  00405D85: 75 F7              jne         00405D7E
  00405D87: 5E                 pop         esi
  00405D88: C2 0C 00           ret         0Ch
  00405D8B: 56                 push        esi
  00405D8C: FF 74 24 08        push        dword ptr [esp+8]
  00405D90: FF 15 94 80 40 00  call        dword ptr ds:[00408094h]
  00405D96: 8B F0              mov         esi,eax
  00405D98: 83 FE FF           cmp         esi,0FFFFFFFFh
  00405D9B: 74 0D              je          00405DAA
  00405D9D: 24 FE              and         al,0FEh
  00405D9F: 50                 push        eax
  00405DA0: FF 74 24 0C        push        dword ptr [esp+0Ch]
  00405DA4: FF 15 74 80 40 00  call        dword ptr ds:[00408074h]
  00405DAA: 8B C6              mov         eax,esi
  00405DAC: 5E                 pop         esi
  00405DAD: C2 04 00           ret         4
  00405DB0: FF 74 24 04        push        dword ptr [esp+4]
  00405DB4: FF 15 94 80 40 00  call        dword ptr ds:[00408094h]
  00405DBA: 8B C8              mov         ecx,eax
  00405DBC: 6A 00              push        0
  00405DBE: 41                 inc         ecx
  00405DBF: F7 D9              neg         ecx
  00405DC1: 1B C9              sbb         ecx,ecx
  00405DC3: 23 C8              and         ecx,eax
  00405DC5: 51                 push        ecx
  00405DC6: FF 74 24 14        push        dword ptr [esp+14h]
  00405DCA: 6A 00              push        0
  00405DCC: 6A 01              push        1
  00405DCE: FF 74 24 1C        push        dword ptr [esp+1Ch]
  00405DD2: FF 74 24 1C        push        dword ptr [esp+1Ch]
  00405DD6: FF 15 D8 80 40 00  call        dword ptr ds:[004080D8h]
  00405DDC: C2 0C 00           ret         0Ch
  00405DDF: 55                 push        ebp
  00405DE0: 8B EC              mov         ebp,esp
  00405DE2: 51                 push        ecx
  00405DE3: 51                 push        ecx
  00405DE4: 56                 push        esi
  00405DE5: 8B 75 08           mov         esi,dword ptr [ebp+8]
  00405DE8: 57                 push        edi
  00405DE9: 6A 64              push        64h
  00405DEB: 5F                 pop         edi
  00405DEC: A1 58 A5 40 00     mov         eax,dword ptr ds:[0040A558h]
  00405DF1: 4F                 dec         edi
  00405DF2: 89 45 F8           mov         dword ptr [ebp-8],eax
  00405DF5: A1 5C A5 40 00     mov         eax,dword ptr ds:[0040A55Ch]
  00405DFA: 89 45 FC           mov         dword ptr [ebp-4],eax
  00405DFD: FF 15 7C 80 40 00  call        dword ptr ds:[0040807Ch]
  00405E03: 6A 1A              push        1Ah
  00405E05: 33 D2              xor         edx,edx
  00405E07: 59                 pop         ecx
  00405E08: F7 F1              div         eax,ecx
  00405E0A: 56                 push        esi
  00405E0B: 8D 45 F8           lea         eax,[ebp-8]
  00405E0E: 6A 00              push        0
  00405E10: 50                 push        eax
  00405E11: FF 75 0C           push        dword ptr [ebp+0Ch]
  00405E14: 66 01 55 FC        add         word ptr [ebp-4],dx
  00405E18: FF 15 DC 80 40 00  call        dword ptr ds:[004080DCh]
  00405E1E: 85 C0              test        eax,eax
  00405E20: 75 0D              jne         00405E2F
  00405E22: 85 FF              test        edi,edi
  00405E24: 75 C6              jne         00405DEC
  00405E26: 66 21 3E           and         word ptr [esi],di
  00405E29: 5F                 pop         edi
  00405E2A: 5E                 pop         esi
  00405E2B: C9                 leave
  00405E2C: C2 08 00           ret         8
  00405E2F: 8B C6              mov         eax,esi
  00405E31: EB F6              jmp         00405E29
  00405E33: 55                 push        ebp
  00405E34: 8B EC              mov         ebp,esp
  00405E36: 56                 push        esi
  00405E37: 8B 75 10           mov         esi,dword ptr [ebp+10h]
  00405E3A: 8D 45 10           lea         eax,[ebp+10h]
  00405E3D: 6A 00              push        0
  00405E3F: 50                 push        eax
  00405E40: 56                 push        esi
  00405E41: FF 75 0C           push        dword ptr [ebp+0Ch]
  00405E44: FF 75 08           push        dword ptr [ebp+8]
  00405E47: FF 15 48 81 40 00  call        dword ptr ds:[00408148h]
  00405E4D: 85 C0              test        eax,eax
  00405E4F: 74 0A              je          00405E5B
  00405E51: 3B 75 10           cmp         esi,dword ptr [ebp+10h]
  00405E54: 75 05              jne         00405E5B
  00405E56: 33 C0              xor         eax,eax
  00405E58: 40                 inc         eax
  00405E59: EB 02              jmp         00405E5D
  00405E5B: 33 C0              xor         eax,eax
  00405E5D: 5E                 pop         esi
  00405E5E: 5D                 pop         ebp
  00405E5F: C2 0C 00           ret         0Ch
  00405E62: 55                 push        ebp
  00405E63: 8B EC              mov         ebp,esp
  00405E65: 56                 push        esi
  00405E66: 8B 75 10           mov         esi,dword ptr [ebp+10h]
  00405E69: 8D 45 10           lea         eax,[ebp+10h]
  00405E6C: 6A 00              push        0
  00405E6E: 50                 push        eax
  00405E6F: 56                 push        esi
  00405E70: FF 75 0C           push        dword ptr [ebp+0Ch]
  00405E73: FF 75 08           push        dword ptr [ebp+8]
  00405E76: FF 15 E0 80 40 00  call        dword ptr ds:[004080E0h]
  00405E7C: 85 C0              test        eax,eax
  00405E7E: 74 0A              je          00405E8A
  00405E80: 3B 75 10           cmp         esi,dword ptr [ebp+10h]
  00405E83: 75 05              jne         00405E8A
  00405E85: 33 C0              xor         eax,eax
  00405E87: 40                 inc         eax
  00405E88: EB 02              jmp         00405E8C
  00405E8A: 33 C0              xor         eax,eax
  00405E8C: 5E                 pop         esi
  00405E8D: 5D                 pop         ebp
  00405E8E: C2 0C 00           ret         0Ch
  00405E91: 55                 push        ebp
  00405E92: 8B EC              mov         ebp,esp
  00405E94: 53                 push        ebx
  00405E95: 8B 5D 08           mov         ebx,dword ptr [ebp+8]
  00405E98: 56                 push        esi
  00405E99: 8B 35 44 81 40 00  mov         esi,dword ptr ds:[00408144h]
  00405E9F: 57                 push        edi
  00405EA0: 33 FF              xor         edi,edi
  00405EA2: 6A 01              push        1
  00405EA4: 57                 push        edi
  00405EA5: 57                 push        edi
  00405EA6: 53                 push        ebx
  00405EA7: FF D6              call        esi
  00405EA9: 85 C0              test        eax,eax
  00405EAB: 75 4F              jne         00405EFC
  00405EAD: 8D 45 0A           lea         eax,[ebp+0Ah]
  00405EB0: 6A 02              push        2
  00405EB2: 50                 push        eax
  00405EB3: 53                 push        ebx
  00405EB4: E8 7A FF FF FF     call        00405E33
  00405EB9: 85 C0              test        eax,eax
  00405EBB: 74 0C              je          00405EC9
  00405EBD: 66 81 7D 0A FF FE  cmp         word ptr [ebp+0Ah],0FEFFh
  00405EC3: 75 04              jne         00405EC9
  00405EC5: 33 C0              xor         eax,eax
  00405EC7: EB 36              jmp         00405EFF
  00405EC9: 39 7D 0C           cmp         dword ptr [ebp+0Ch],edi
  00405ECC: 74 28              je          00405EF6
  00405ECE: 6A 01              push        1
  00405ED0: 57                 push        edi
  00405ED1: 57                 push        edi
  00405ED2: 53                 push        ebx
  00405ED3: FF D6              call        esi
  00405ED5: 85 C0              test        eax,eax
  00405ED7: 75 1D              jne         00405EF6
  00405ED9: 6A 02              push        2
  00405EDB: 68 1C 84 40 00     push        40841Ch
  00405EE0: 53                 push        ebx
  00405EE1: E8 7C FF FF FF     call        00405E62
  00405EE6: F7 D8              neg         eax
  00405EE8: 1B C0              sbb         eax,eax
  00405EEA: 25 FB BF FF 7F     and         eax,7FFFBFFBh
  00405EEF: 05 05 40 00 80     add         eax,80004005h
  00405EF4: EB 09              jmp         00405EFF
  00405EF6: 57                 push        edi
  00405EF7: 57                 push        edi
  00405EF8: 57                 push        edi
  00405EF9: 53                 push        ebx
  00405EFA: FF D6              call        esi
  00405EFC: 33 C0              xor         eax,eax
  00405EFE: 40                 inc         eax
  00405EFF: 5F                 pop         edi
  00405F00: 5E                 pop         esi
  00405F01: 5B                 pop         ebx
  00405F02: 5D                 pop         ebp
  00405F03: C2 08 00           ret         8
  00405F06: 53                 push        ebx
  00405F07: 8B 1D BC 80 40 00  mov         ebx,dword ptr ds:[004080BCh]
  00405F0D: 55                 push        ebp
  00405F0E: 56                 push        esi
  00405F0F: 8B 74 24 14        mov         esi,dword ptr [esp+14h]
  00405F13: 57                 push        edi
  00405F14: 85 F6              test        esi,esi
  00405F16: C7 05 E8 08 43 00  mov         dword ptr ds:[004308E8h],55004Eh
            4E 00 55 00
  00405F20: C7 05 EC 08 43 00  mov         dword ptr ds:[004308ECh],4Ch
            4C 00 00 00
  00405F2A: BF 00 04 00 00     mov         edi,400h
  00405F2F: BD E8 08 43 00     mov         ebp,4308E8h
  00405F34: 74 26              je          00405F5C
  00405F36: 6A 01              push        1
  00405F38: 6A 00              push        0
  00405F3A: 56                 push        esi
  00405F3B: E8 70 FE FF FF     call        00405DB0
  00405F40: 50                 push        eax
  00405F41: FF 15 20 81 40 00  call        dword ptr ds:[00408120h]
  00405F47: 57                 push        edi
  00405F48: 55                 push        ebp
  00405F49: 56                 push        esi
  00405F4A: FF D3              call        ebx
  00405F4C: 85 C0              test        eax,eax
  00405F4E: 0F 84 27 01 00 00  je          0040607B
  00405F54: 3B C7              cmp         eax,edi
  00405F56: 0F 8F 1F 01 00 00  jg          0040607B
  00405F5C: BE E8 10 43 00     mov         esi,4310E8h
  00405F61: 57                 push        edi
  00405F62: 56                 push        esi
  00405F63: FF 74 24 1C        push        dword ptr [esp+1Ch]
  00405F67: FF D3              call        ebx
  00405F69: 85 C0              test        eax,eax
  00405F6B: 0F 84 0A 01 00 00  je          0040607B
  00405F71: 3B C7              cmp         eax,edi
  00405F73: 0F 8F 02 01 00 00  jg          0040607B
  00405F79: 56                 push        esi
  00405F7A: 55                 push        ebp
  00405F7B: 68 70 A5 40 00     push        40A570h
  00405F80: 68 E8 04 43 00     push        4304E8h
  00405F85: FF 15 00 82 40 00  call        dword ptr ds:[00408200h]
  00405F8B: 8B D8              mov         ebx,eax
  00405F8D: A1 F4 4E 43 00     mov         eax,dword ptr ds:[00434EF4h]
  00405F92: 83 C4 10           add         esp,10h
  00405F95: FF B0 28 01 00 00  push        dword ptr [eax+00000128h]
  00405F9B: 56                 push        esi
  00405F9C: E8 3B 03 00 00     call        004062DC
  00405FA1: 6A 04              push        4
  00405FA3: 68 00 00 00 C0     push        0C0000000h
  00405FA8: 56                 push        esi
  00405FA9: E8 02 FE FF FF     call        00405DB0
  00405FAE: 8B E8              mov         ebp,eax
  00405FB0: 83 FD FF           cmp         ebp,0FFFFFFFFh
  00405FB3: 89 6C 24 18        mov         dword ptr [esp+18h],ebp
  00405FB7: 0F 84 BE 00 00 00  je          0040607B
  00405FBD: 6A 00              push        0
  00405FBF: 55                 push        ebp
  00405FC0: FF 15 80 80 40 00  call        dword ptr ds:[00408080h]
  00405FC6: 8B F8              mov         edi,eax
  00405FC8: 8D 44 1F 0A        lea         eax,[edi+ebx+0Ah]
  00405FCC: 50                 push        eax
  00405FCD: 6A 40              push        40h
  00405FCF: FF 15 34 81 40 00  call        dword ptr ds:[00408134h]
  00405FD5: 8B F0              mov         esi,eax
  00405FD7: 85 F6              test        esi,esi
  00405FD9: 0F 84 95 00 00 00  je          00406074
  00405FDF: 57                 push        edi
  00405FE0: 56                 push        esi
  00405FE1: 55                 push        ebp
  00405FE2: E8 4C FE FF FF     call        00405E33
  00405FE7: 85 C0              test        eax,eax
  00405FE9: 0F 84 85 00 00 00  je          00406074
  00405FEF: 68 64 A5 40 00     push        40A564h
  00405FF4: 56                 push        esi
  00405FF5: E8 1B FD FF FF     call        00405D15
  00405FFA: 85 C0              test        eax,eax
  00405FFC: 75 14              jne         00406012
  00405FFE: 8D 04 3E           lea         eax,[esi+edi]
  00406001: 68 64 A5 40 00     push        40A564h
  00406006: 50                 push        eax
  00406007: FF 15 E4 80 40 00  call        dword ptr ds:[004080E4h]
  0040600D: 83 C7 0A           add         edi,0Ah
  00406010: EB 35              jmp         00406047
  00406012: 83 C0 0A           add         eax,0Ah
  00406015: 68 60 A5 40 00     push        40A560h
  0040601A: 50                 push        eax
  0040601B: E8 F5 FC FF FF     call        00405D15
  00406020: 8B E8              mov         ebp,eax
  00406022: 85 ED              test        ebp,ebp
  00406024: 74 1D              je          00406043
  00406026: 8D 0C 3E           lea         ecx,[esi+edi]
  00406029: 8D 04 19           lea         eax,[ecx+ebx]
  0040602C: EB 06              jmp         00406034
  0040602E: 8A 11              mov         dl,byte ptr [ecx]
  00406030: 88 10              mov         byte ptr [eax],dl
  00406032: 48                 dec         eax
  00406033: 49                 dec         ecx
  00406034: 3B CD              cmp         ecx,ebp
  00406036: 77 F6              ja          0040602E
  00406038: 2B EE              sub         ebp,esi
  0040603A: 45                 inc         ebp
  0040603B: 8B C5              mov         eax,ebp
  0040603D: 8B 6C 24 18        mov         ebp,dword ptr [esp+18h]
  00406041: EB 06              jmp         00406049
  00406043: 8B 6C 24 18        mov         ebp,dword ptr [esp+18h]
  00406047: 8B C7              mov         eax,edi
  00406049: 53                 push        ebx
  0040604A: 03 C6              add         eax,esi
  0040604C: 68 E8 04 43 00     push        4304E8h
  00406051: 50                 push        eax
  00406052: E8 14 FD FF FF     call        00405D6B
  00406057: 33 C0              xor         eax,eax
  00406059: 50                 push        eax
  0040605A: 50                 push        eax
  0040605B: 50                 push        eax
  0040605C: 55                 push        ebp
  0040605D: FF 15 44 81 40 00  call        dword ptr ds:[00408144h]
  00406063: 03 FB              add         edi,ebx
  00406065: 57                 push        edi
  00406066: 56                 push        esi
  00406067: 55                 push        ebp
  00406068: E8 F5 FD FF FF     call        00405E62
  0040606D: 56                 push        esi
  0040606E: FF 15 28 81 40 00  call        dword ptr ds:[00408128h]
  00406074: 55                 push        ebp
  00406075: FF 15 20 81 40 00  call        dword ptr ds:[00408120h]
  0040607B: 5F                 pop         edi
  0040607C: 5E                 pop         esi
  0040607D: 5D                 pop         ebp
  0040607E: 5B                 pop         ebx
  0040607F: C3                 ret
  00406080: 6A 05              push        5
  00406082: FF 74 24 0C        push        dword ptr [esp+0Ch]
  00406086: FF 74 24 0C        push        dword ptr [esp+0Ch]
  0040608A: FF 15 E8 80 40 00  call        dword ptr ds:[004080E8h]
  00406090: 85 C0              test        eax,eax
  00406092: 75 0F              jne         004060A3
  00406094: FF 74 24 08        push        dword ptr [esp+8]
  00406098: FF 74 24 08        push        dword ptr [esp+8]
  0040609C: E8 65 FE FF FF     call        00405F06
  004060A1: 59                 pop         ecx
  004060A2: 59                 pop         ecx
  004060A3: FF 05 90 4F 43 00  inc         dword ptr ds:[00434F90h]
  004060A9: C2 08 00           ret         8
  004060AC: 8B 15 EC 4E 43 00  mov         edx,dword ptr ds:[00434EECh]
  004060B2: 53                 push        ebx
  004060B3: 8B 5C 24 08        mov         ebx,dword ptr [esp+8]
  004060B7: 57                 push        edi
  004060B8: 8B 7C 24 10        mov         edi,dword ptr [esp+10h]
  004060BC: F7 D2              not         edx
  004060BE: 8B 07              mov         eax,dword ptr [edi]
  004060C0: C1 EA 16           shr         edx,16h
  004060C3: 81 E2 00 01 00 00  and         edx,100h
  004060C9: A8 20              test        al,20h
  004060CB: 74 34              je          00406101
  004060CD: F7 C3 00 00 00 60  test        ebx,60000000h
  004060D3: 74 2C              je          00406101
  004060D5: 8B CB              mov         ecx,ebx
  004060D7: 56                 push        esi
  004060D8: C1 E9 15           shr         ecx,15h
  004060DB: BE 00 03 00 00     mov         esi,300h
  004060E0: 23 CE              and         ecx,esi
  004060E2: 3B CE              cmp         ecx,esi
  004060E4: 5E                 pop         esi
  004060E5: 75 0A              jne         004060F1
  004060E7: 8B CA              mov         ecx,edx
  004060E9: F7 D1              not         ecx
  004060EB: 23 0D B0 4F 43 00  and         ecx,dword ptr ds:[00434FB0h]
  004060F1: 80 E4 FE           and         ah,0FEh
  004060F4: 0B C1              or          eax,ecx
  004060F6: 80 E4 FD           and         ah,0FDh
  004060F9: 81 E3 FF FF FF 9F  and         ebx,9FFFFFFFh
  004060FF: EB 0D              jmp         0040610E
  00406101: A9 00 00 10 00     test        eax,100000h
  00406106: 74 06              je          0040610E
  00406108: 0B 05 B0 4F 43 00  or          eax,dword ptr ds:[00434FB0h]
  0040610E: 8B C8              mov         ecx,eax
  00406110: 23 C2              and         eax,edx
  00406112: 81 E1 DF FF EF FF  and         ecx,0FFEFFFDFh
  00406118: F7 D8              neg         eax
  0040611A: 1B C0              sbb         eax,eax
  0040611C: 89 0F              mov         dword ptr [edi],ecx
  0040611E: F7 D0              not         eax
  00406120: 23 C3              and         eax,ebx
  00406122: 5F                 pop         edi
  00406123: 5B                 pop         ebx
  00406124: C2 08 00           ret         8
  00406127: 55                 push        ebp
  00406128: 8B EC              mov         ebp,esp
  0040612A: 8D 45 10           lea         eax,[ebp+10h]
  0040612D: 50                 push        eax
  0040612E: FF 75 08           push        dword ptr [ebp+8]
  00406131: E8 76 FF FF FF     call        004060AC
  00406136: 85 C0              test        eax,eax
  00406138: 75 05              jne         0040613F
  0040613A: 6A 06              push        6
  0040613C: 58                 pop         eax
  0040613D: EB 12              jmp         00406151
  0040613F: FF 75 14           push        dword ptr [ebp+14h]
  00406142: FF 75 10           push        dword ptr [ebp+10h]
  00406145: 6A 00              push        0
  00406147: FF 75 0C           push        dword ptr [ebp+0Ch]
  0040614A: 50                 push        eax
  0040614B: FF 15 08 80 40 00  call        dword ptr ds:[00408008h]
  00406151: 5D                 pop         ebp
  00406152: C2 10 00           ret         10h
  00406155: 55                 push        ebp
  00406156: 8B EC              mov         ebp,esp
  00406158: 8D 45 10           lea         eax,[ebp+10h]
  0040615B: 50                 push        eax
  0040615C: FF 75 08           push        dword ptr [ebp+8]
  0040615F: E8 48 FF FF FF     call        004060AC
  00406164: 33 C9              xor         ecx,ecx
  00406166: 3B C1              cmp         eax,ecx
  00406168: 75 05              jne         0040616F
  0040616A: 6A 06              push        6
  0040616C: 58                 pop         eax
  0040616D: EB 15              jmp         00406184
  0040616F: 51                 push        ecx
  00406170: FF 75 14           push        dword ptr [ebp+14h]
  00406173: 51                 push        ecx
  00406174: FF 75 10           push        dword ptr [ebp+10h]
  00406177: 51                 push        ecx
  00406178: 51                 push        ecx
  00406179: 51                 push        ecx
  0040617A: FF 75 0C           push        dword ptr [ebp+0Ch]
  0040617D: 50                 push        eax
  0040617E: FF 15 04 80 40 00  call        dword ptr ds:[00408004h]
  00406184: 5D                 pop         ebp
  00406185: C2 10 00           ret         10h
  00406188: 55                 push        ebp
  00406189: 8B EC              mov         ebp,esp
  0040618B: 51                 push        ecx
  0040618C: 8D 45 18           lea         eax,[ebp+18h]
  0040618F: 56                 push        esi
  00406190: 50                 push        eax
  00406191: 8B 45 18           mov         eax,dword ptr [ebp+18h]
  00406194: F7 D8              neg         eax
  00406196: 1B C0              sbb         eax,eax
  00406198: C7 45 FC 00 08 00  mov         dword ptr [ebp-4],800h
            00
  0040619F: 25 00 01 00 00     and         eax,100h
  004061A4: 0D 19 00 02 00     or          eax,20019h
  004061A9: 50                 push        eax
  004061AA: FF 75 0C           push        dword ptr [ebp+0Ch]
  004061AD: FF 75 08           push        dword ptr [ebp+8]
  004061B0: E8 72 FF FF FF     call        00406127
  004061B5: 8B 75 14           mov         esi,dword ptr [ebp+14h]
  004061B8: 85 C0              test        eax,eax
  004061BA: 75 3C              jne         004061F8
  004061BC: 8D 45 FC           lea         eax,[ebp-4]
  004061BF: 57                 push        edi
  004061C0: 50                 push        eax
  004061C1: 8D 45 0C           lea         eax,[ebp+0Ch]
  004061C4: 56                 push        esi
  004061C5: 50                 push        eax
  004061C6: 6A 00              push        0
  004061C8: FF 75 10           push        dword ptr [ebp+10h]
  004061CB: FF 75 18           push        dword ptr [ebp+18h]
  004061CE: FF 15 2C 80 40 00  call        dword ptr ds:[0040802Ch]
  004061D4: FF 75 18           push        dword ptr [ebp+18h]
  004061D7: 8B F8              mov         edi,eax
  004061D9: FF 15 24 80 40 00  call        dword ptr ds:[00408024h]
  004061DF: 66 83 A6 FE 07 00  and         word ptr [esi+000007FEh],0
            00 00
  004061E7: 85 FF              test        edi,edi
  004061E9: 5F                 pop         edi
  004061EA: 75 0C              jne         004061F8
  004061EC: 83 7D 0C 01        cmp         dword ptr [ebp+0Ch],1
  004061F0: 74 0A              je          004061FC
  004061F2: 83 7D 0C 02        cmp         dword ptr [ebp+0Ch],2
  004061F6: 74 04              je          004061FC
  004061F8: 66 83 26 00        and         word ptr [esi],0
  004061FC: 5E                 pop         esi
  004061FD: C9                 leave
  004061FE: C2 14 00           ret         14h
  00406201: FF 74 24 08        push        dword ptr [esp+8]
  00406205: 68 20 84 40 00     push        408420h
  0040620A: FF 74 24 0C        push        dword ptr [esp+0Ch]
  0040620E: FF 15 90 82 40 00  call        dword ptr ds:[00408290h]
  00406214: 83 C4 0C           add         esp,0Ch
  00406217: C2 08 00           ret         8
  0040621A: 55                 push        ebp
  0040621B: 8B EC              mov         ebp,esp
  0040621D: 51                 push        ecx
  0040621E: 51                 push        ecx
  0040621F: 8B 4D 08           mov         ecx,dword ptr [ebp+8]
  00406222: 83 65 FC 00        and         dword ptr [ebp-4],0
  00406226: 53                 push        ebx
  00406227: 56                 push        esi
  00406228: 66 83 39 2D        cmp         word ptr [ecx],2Dh
  0040622C: 6A 0A              push        0Ah
  0040622E: 58                 pop         eax
  0040622F: C7 45 F8 01 00 00  mov         dword ptr [ebp-8],1
            00
  00406236: 6A 39              push        39h
  00406238: 5B                 pop         ebx
  00406239: 75 06              jne         00406241
  0040623B: 41                 inc         ecx
  0040623C: 41                 inc         ecx
  0040623D: 83 4D F8 FF        or          dword ptr [ebp-8],0FFFFFFFFh
  00406241: 66 83 39 30        cmp         word ptr [ecx],30h
  00406245: 75 27              jne         0040626E
  00406247: 41                 inc         ecx
  00406248: 41                 inc         ecx
  00406249: 66 8B 11           mov         dx,word ptr [ecx]
  0040624C: 66 83 FA 30        cmp         dx,30h
  00406250: 72 0C              jb          0040625E
  00406252: 66 83 FA 37        cmp         dx,37h
  00406256: 77 06              ja          0040625E
  00406258: 6A 08              push        8
  0040625A: 58                 pop         eax
  0040625B: 6A 37              push        37h
  0040625D: 5B                 pop         ebx
  0040625E: 0F B7 D2           movzx       edx,dx
  00406261: 83 E2 DF           and         edx,0FFFFFFDFh
  00406264: 83 FA 58           cmp         edx,58h
  00406267: 75 05              jne         0040626E
  00406269: 6A 10              push        10h
  0040626B: 41                 inc         ecx
  0040626C: 58                 pop         eax
  0040626D: 41                 inc         ecx
  0040626E: 0F B7 11           movzx       edx,word ptr [ecx]
  00406271: 41                 inc         ecx
  00406272: 41                 inc         ecx
  00406273: 83 FA 30           cmp         edx,30h
  00406276: 7C 0C              jl          00406284
  00406278: 0F B7 F3           movzx       esi,bx
  0040627B: 3B D6              cmp         edx,esi
  0040627D: 7F 05              jg          00406284
  0040627F: 83 EA 30           sub         edx,30h
  00406282: EB 1B              jmp         0040629F
  00406284: 66 3D 10 00        cmp         ax,10h
  00406288: 75 23              jne         004062AD
  0040628A: 8B F2              mov         esi,edx
  0040628C: 83 E6 DF           and         esi,0FFFFFFDFh
  0040628F: 83 FE 41           cmp         esi,41h
  00406292: 7C 19              jl          004062AD
  00406294: 83 FE 46           cmp         esi,46h
  00406297: 7F 14              jg          004062AD
  00406299: 83 E2 07           and         edx,7
  0040629C: 83 C2 09           add         edx,9
  0040629F: 0F B7 F0           movzx       esi,ax
  004062A2: 0F AF 75 FC        imul        esi,dword ptr [ebp-4]
  004062A6: 03 F2              add         esi,edx
  004062A8: 89 75 FC           mov         dword ptr [ebp-4],esi
  004062AB: EB C1              jmp         0040626E
  004062AD: 8B 45 F8           mov         eax,dword ptr [ebp-8]
  004062B0: 5E                 pop         esi
  004062B1: 0F AF 45 FC        imul        eax,dword ptr [ebp-4]
  004062B5: 5B                 pop         ebx
  004062B6: C9                 leave
  004062B7: C2 04 00           ret         4
  004062BA: 68 00 04 00 00     push        400h
  004062BF: FF 74 24 0C        push        dword ptr [esp+0Ch]
  004062C3: FF 74 24 0C        push        dword ptr [esp+0Ch]
  004062C7: FF 15 B0 80 40 00  call        dword ptr ds:[004080B0h]
  004062CD: C2 08 00           ret         8
  004062D0: FF 25 AC 80 40 00  jmp         dword ptr ds:[004080ACh]
  004062D6: FF 25 EC 80 40 00  jmp         dword ptr ds:[004080ECh]
  004062DC: 55                 push        ebp
  004062DD: 8B EC              mov         ebp,esp
  004062DF: 83 EC 18           sub         esp,18h
  004062E2: 8B 45 0C           mov         eax,dword ptr [ebp+0Ch]
  004062E5: 85 C0              test        eax,eax
  004062E7: 7D 11              jge         004062FA
  004062E9: 8B 0D BC 3E 43 00  mov         ecx,dword ptr ds:[00433EBCh]
  004062EF: 8D 04 85 04 00 00  lea         eax,[eax*4+00000004h]
            00
  004062F6: 2B C8              sub         ecx,eax
  004062F8: 8B 01              mov         eax,dword ptr [ecx]
  004062FA: 8B 0D 38 4F 43 00  mov         ecx,dword ptr ds:[00434F38h]
  00406300: 53                 push        ebx
  00406301: 56                 push        esi
  00406302: 57                 push        edi
  00406303: 8D 14 41           lea         edx,[ecx+eax*2]
  00406306: B8 80 2E 43 00     mov         eax,432E80h
  0040630B: 39 45 08           cmp         dword ptr [ebp+8],eax
  0040630E: 8B F0              mov         esi,eax
  00406310: 0F 82 12 02 00 00  jb          00406528
  00406316: 8B 4D 08           mov         ecx,dword ptr [ebp+8]
  00406319: 2B C8              sub         ecx,eax
  0040631B: D1 F9              sar         ecx,1
  0040631D: 81 F9 00 08 00 00  cmp         ecx,800h
  00406323: 0F 83 FF 01 00 00  jae         00406528
  00406329: 8B 75 08           mov         esi,dword ptr [ebp+8]
  0040632C: 83 65 08 00        and         dword ptr [ebp+8],0
  00406330: E9 F3 01 00 00     jmp         00406528
  00406335: 8B CE              mov         ecx,esi
  00406337: 2B C8              sub         ecx,eax
  00406339: 83 E1 FE           and         ecx,0FFFFFFFEh
  0040633C: 81 F9 00 08 00 00  cmp         ecx,800h
  00406342: 0F 8D EC 01 00 00  jge         00406534
  00406348: 6A 02              push        2
  0040634A: 59                 pop         ecx
  0040634B: 03 D1              add         edx,ecx
  0040634D: 66 83 FF 04        cmp         di,4
  00406351: 89 55 0C           mov         dword ptr [ebp+0Ch],edx
  00406354: 0F 83 BB 01 00 00  jae         00406515
  0040635A: 8A 4A 01           mov         cl,byte ptr [edx+1]
  0040635D: 8A 02              mov         al,byte ptr [edx]
  0040635F: 8A D1              mov         dl,cl
  00406361: 8A D8              mov         bl,al
  00406363: 83 E2 7F           and         edx,7Fh
  00406366: 83 E3 7F           and         ebx,7Fh
  00406369: C1 E2 07           shl         edx,7
  0040636C: 0F B6 C0           movzx       eax,al
  0040636F: 0B D3              or          edx,ebx
  00406371: 8B D8              mov         ebx,eax
  00406373: 89 55 FC           mov         dword ptr [ebp-4],edx
  00406376: BA 00 80 00 00     mov         edx,8000h
  0040637B: 0B DA              or          ebx,edx
  0040637D: 83 45 0C 02        add         dword ptr [ebp+0Ch],2
  00406381: 89 5D E8           mov         dword ptr [ebp-18h],ebx
  00406384: 89 45 EC           mov         dword ptr [ebp-14h],eax
  00406387: 0F B6 D9           movzx       ebx,cl
  0040638A: 8B CB              mov         ecx,ebx
  0040638C: 89 5D F4           mov         dword ptr [ebp-0Ch],ebx
  0040638F: 0B CA              or          ecx,edx
  00406391: 66 83 FF 02        cmp         di,2
  00406395: 89 4D F0           mov         dword ptr [ebp-10h],ecx
  00406398: 0F 85 1A 01 00 00  jne         004064B8
  0040639E: 8B 0D EC 4E 43 00  mov         ecx,dword ptr ds:[00434EECh]
  004063A4: 6A 02              push        2
  004063A6: 85 C9              test        ecx,ecx
  004063A8: 5F                 pop         edi
  004063A9: 79 17              jns         004063C2
  004063AB: 66 81 F9 04 5A     cmp         cx,5A04h
  004063B0: 74 10              je          004063C2
  004063B2: 83 FB 23           cmp         ebx,23h
  004063B5: 74 0B              je          004063C2
  004063B7: 83 FB 2E           cmp         ebx,2Eh
  004063BA: 74 06              je          004063C2
  004063BC: 83 65 FC 00        and         dword ptr [ebp-4],0
  004063C0: EB 07              jmp         004063C9
  004063C2: C7 45 FC 01 00 00  mov         dword ptr [ebp-4],1
            00
  004063C9: 83 3D 84 4F 43 00  cmp         dword ptr ds:[00434F84h],0
            00
  004063D0: 74 03              je          004063D5
  004063D2: 6A 04              push        4
  004063D4: 5F                 pop         edi
  004063D5: 84 C0              test        al,al
  004063D7: 79 39              jns         00406412
  004063D9: 8B C8              mov         ecx,eax
  004063DB: 83 E0 3F           and         eax,3Fh
  004063DE: 83 E1 40           and         ecx,40h
  004063E1: 51                 push        ecx
  004063E2: 8B 0D 38 4F 43 00  mov         ecx,dword ptr ds:[00434F38h]
  004063E8: 56                 push        esi
  004063E9: 8D 04 41           lea         eax,[ecx+eax*2]
  004063EC: 50                 push        eax
  004063ED: 68 28 84 40 00     push        408428h
  004063F2: 68 02 00 00 80     push        80000002h
  004063F7: E8 8C FD FF FF     call        00406188
  004063FC: 66 83 3E 00        cmp         word ptr [esi],0
  00406400: 0F 85 9A 00 00 00  jne         004064A0
  00406406: 53                 push        ebx
  00406407: 56                 push        esi
  00406408: E8 CF FE FF FF     call        004062DC
  0040640D: E9 85 00 00 00     jmp         00406497
  00406412: 83 F8 25           cmp         eax,25h
  00406415: 75 0E              jne         00406425
  00406417: 68 00 04 00 00     push        400h
  0040641C: 56                 push        esi
  0040641D: FF 15 F0 80 40 00  call        dword ptr ds:[004080F0h]
  00406423: EB 72              jmp         00406497
  00406425: 83 F8 24           cmp         eax,24h
  00406428: 75 69              jne         00406493
  0040642A: 68 00 04 00 00     push        400h
  0040642F: 56                 push        esi
  00406430: FF 15 98 80 40 00  call        dword ptr ds:[00408098h]
  00406436: 33 FF              xor         edi,edi
  00406438: EB 59              jmp         00406493
  0040643A: A1 E4 4E 43 00     mov         eax,dword ptr ds:[00434EE4h]
  0040643F: 33 C9              xor         ecx,ecx
  00406441: 4F                 dec         edi
  00406442: 3B C1              cmp         eax,ecx
  00406444: 74 18              je          0040645E
  00406446: 39 4D FC           cmp         dword ptr [ebp-4],ecx
  00406449: 74 13              je          0040645E
  0040644B: 56                 push        esi
  0040644C: 51                 push        ecx
  0040644D: 51                 push        ecx
  0040644E: FF 74 BD E8        push        dword ptr [ebp+edi*4-18h]
  00406452: FF 35 E8 4E 43 00  push        dword ptr ds:[00434EE8h]
  00406458: FF D0              call        eax
  0040645A: 85 C0              test        eax,eax
  0040645C: 74 39              je          00406497
  0040645E: 8D 45 F8           lea         eax,[ebp-8]
  00406461: 50                 push        eax
  00406462: FF 74 BD E8        push        dword ptr [ebp+edi*4-18h]
  00406466: FF 35 E8 4E 43 00  push        dword ptr ds:[00434EE8h]
  0040646C: FF 15 78 81 40 00  call        dword ptr ds:[00408178h]
  00406472: 85 C0              test        eax,eax
  00406474: 75 19              jne         0040648F
  00406476: 56                 push        esi
  00406477: FF 75 F8           push        dword ptr [ebp-8]
  0040647A: FF 15 80 81 40 00  call        dword ptr ds:[00408180h]
  00406480: FF 75 F8           push        dword ptr [ebp-8]
  00406483: 8B D8              mov         ebx,eax
  00406485: FF 15 A4 82 40 00  call        dword ptr ds:[004082A4h]
  0040648B: 85 DB              test        ebx,ebx
  0040648D: 75 08              jne         00406497
  0040648F: 66 83 26 00        and         word ptr [esi],0
  00406493: 85 FF              test        edi,edi
  00406495: 75 A3              jne         0040643A
  00406497: 66 83 3E 00        cmp         word ptr [esi],0
  0040649B: 74 13              je          004064B0
  0040649D: 8B 5D F4           mov         ebx,dword ptr [ebp-0Ch]
  004064A0: 83 FB 1A           cmp         ebx,1Ah
  004064A3: 75 0B              jne         004064B0
  004064A5: 68 80 84 40 00     push        408480h
  004064AA: 56                 push        esi
  004064AB: E8 26 FE FF FF     call        004062D6
  004064B0: 56                 push        esi
  004064B1: E8 98 00 00 00     call        0040654E
  004064B6: EB 4A              jmp         00406502
  004064B8: 66 83 FF 03        cmp         di,3
  004064BC: 75 31              jne         004064EF
  004064BE: 8B 7D FC           mov         edi,dword ptr [ebp-4]
  004064C1: 83 FF 1D           cmp         edi,1Dh
  004064C4: 75 0E              jne         004064D4
  004064C6: FF 35 E8 4E 43 00  push        dword ptr ds:[00434EE8h]
  004064CC: 56                 push        esi
  004064CD: E8 2F FD FF FF     call        00406201
  004064D2: EB 11              jmp         004064E5
  004064D4: 8B C7              mov         eax,edi
  004064D6: C1 E0 0B           shl         eax,0Bh
  004064D9: 05 00 50 43 00     add         eax,435000h
  004064DE: 50                 push        eax
  004064DF: 56                 push        esi
  004064E0: E8 D5 FD FF FF     call        004062BA
  004064E5: 83 C7 EB           add         edi,0FFFFFFEBh
  004064E8: 83 FF 07           cmp         edi,7
  004064EB: 73 15              jae         00406502
  004064ED: EB C1              jmp         004064B0
  004064EF: 66 83 FF 01        cmp         di,1
  004064F3: 75 0D              jne         00406502
  004064F5: 83 C8 FF           or          eax,0FFFFFFFFh
  004064F8: 2B 45 FC           sub         eax,dword ptr [ebp-4]
  004064FB: 50                 push        eax
  004064FC: 56                 push        esi
  004064FD: E8 DA FD FF FF     call        004062DC
  00406502: 56                 push        esi
  00406503: E8 C8 FD FF FF     call        004062D0
  00406508: 8B 55 0C           mov         edx,dword ptr [ebp+0Ch]
  0040650B: 8D 34 46           lea         esi,[esi+eax*2]
  0040650E: B8 80 2E 43 00     mov         eax,432E80h
  00406513: EB 13              jmp         00406528
  00406515: 75 0C              jne         00406523
  00406517: 66 8B 3A           mov         di,word ptr [edx]
  0040651A: 66 89 3E           mov         word ptr [esi],di
  0040651D: 03 F1              add         esi,ecx
  0040651F: 03 D1              add         edx,ecx
  00406521: EB 05              jmp         00406528
  00406523: 66 89 3E           mov         word ptr [esi],di
  00406526: 03 F1              add         esi,ecx
  00406528: 66 8B 3A           mov         di,word ptr [edx]
  0040652B: 66 85 FF           test        di,di
  0040652E: 0F 85 01 FE FF FF  jne         00406335
  00406534: 66 83 26 00        and         word ptr [esi],0
  00406538: 83 7D 08 00        cmp         dword ptr [ebp+8],0
  0040653C: 5F                 pop         edi
  0040653D: 5E                 pop         esi
  0040653E: 5B                 pop         ebx
  0040653F: 74 09              je          0040654A
  00406541: 50                 push        eax
  00406542: FF 75 08           push        dword ptr [ebp+8]
  00406545: E8 70 FD FF FF     call        004062BA
  0040654A: C9                 leave
  0040654B: C2 08 00           ret         8
  0040654E: 55                 push        ebp
  0040654F: 56                 push        esi
  00406550: 8B 74 24 0C        mov         esi,dword ptr [esp+0Ch]
  00406554: 57                 push        edi
  00406555: 66 83 3E 5C        cmp         word ptr [esi],5Ch
  00406559: 75 18              jne         00406573
  0040655B: 66 83 7E 02 5C     cmp         word ptr [esi+2],5Ch
  00406560: 75 11              jne         00406573
  00406562: 66 83 7E 04 3F     cmp         word ptr [esi+4],3Fh
  00406567: 75 0A              jne         00406573
  00406569: 66 83 7E 06 5C     cmp         word ptr [esi+6],5Ch
  0040656E: 75 03              jne         00406573
  00406570: 83 C6 08           add         esi,8
  00406573: 66 83 3E 00        cmp         word ptr [esi],0
  00406577: 74 0D              je          00406586
  00406579: 56                 push        esi
  0040657A: E8 87 F6 FF FF     call        00405C06
  0040657F: 85 C0              test        eax,eax
  00406581: 74 03              je          00406586
  00406583: 83 C6 04           add         esi,4
  00406586: 66 8B 06           mov         ax,word ptr [esi]
  00406589: 8B EE              mov         ebp,esi
  0040658B: 66 85 C0           test        ax,ax
  0040658E: 8B FE              mov         edi,esi
  00406590: 74 40              je          004065D2
  00406592: 53                 push        ebx
  00406593: 8B 1D 48 82 40 00  mov         ebx,dword ptr ds:[00408248h]
  00406599: 66 3D 1F 00        cmp         ax,1Fh
  0040659D: 76 25              jbe         004065C4
  0040659F: 50                 push        eax
  004065A0: 68 7C A5 40 00     push        40A57Ch
  004065A5: E8 12 F6 FF FF     call        00405BBC
  004065AA: 66 83 38 00        cmp         word ptr [eax],0
  004065AE: 75 14              jne         004065C4
  004065B0: 56                 push        esi
  004065B1: FF D3              call        ebx
  004065B3: 2B C6              sub         eax,esi
  004065B5: D1 F8              sar         eax,1
  004065B7: 50                 push        eax
  004065B8: 56                 push        esi
  004065B9: 57                 push        edi
  004065BA: E8 AC F7 FF FF     call        00405D6B
  004065BF: 57                 push        edi
  004065C0: FF D3              call        ebx
  004065C2: 8B F8              mov         edi,eax
  004065C4: 56                 push        esi
  004065C5: FF D3              call        ebx
  004065C7: 8B F0              mov         esi,eax
  004065C9: 66 8B 06           mov         ax,word ptr [esi]
  004065CC: 66 85 C0           test        ax,ax
  004065CF: 75 C8              jne         00406599
  004065D1: 5B                 pop         ebx
  004065D2: 66 83 27 00        and         word ptr [edi],0
  004065D6: 57                 push        edi
  004065D7: 55                 push        ebp
  004065D8: FF 15 F8 81 40 00  call        dword ptr ds:[004081F8h]
  004065DE: 8B F8              mov         edi,eax
  004065E0: 66 8B 07           mov         ax,word ptr [edi]
  004065E3: 66 3D 20 00        cmp         ax,20h
  004065E7: 74 06              je          004065EF
  004065E9: 66 3D 5C 00        cmp         ax,5Ch
  004065ED: 75 08              jne         004065F7
  004065EF: 66 83 27 00        and         word ptr [edi],0
  004065F3: 3B EF              cmp         ebp,edi
  004065F5: 72 DF              jb          004065D6
  004065F7: 5F                 pop         edi
  004065F8: 5E                 pop         esi
  004065F9: 5D                 pop         ebp
  004065FA: C2 04 00           ret         4
  004065FD: 56                 push        esi
  004065FE: BE 98 02 43 00     mov         esi,430298h
  00406603: 56                 push        esi
  00406604: FF 74 24 0C        push        dword ptr [esp+0Ch]
  00406608: FF 15 38 81 40 00  call        dword ptr ds:[00408138h]
  0040660E: 83 F8 FF           cmp         eax,0FFFFFFFFh
  00406611: 74 0B              je          0040661E
  00406613: 50                 push        eax
  00406614: FF 15 4C 81 40 00  call        dword ptr ds:[0040814Ch]
  0040661A: 8B C6              mov         eax,esi
  0040661C: EB 02              jmp         00406620
  0040661E: 33 C0              xor         eax,eax
  00406620: 5E                 pop         esi
  00406621: C2 04 00           ret         4
  00406624: 55                 push        ebp
  00406625: 8B EC              mov         ebp,esp
  00406627: 81 EC 3C 02 00 00  sub         esp,23Ch
  0040662D: 56                 push        esi
  0040662E: BE 04 01 00 00     mov         esi,104h
  00406633: 8D 85 C4 FD FF FF  lea         eax,[ebp+FFFFFDC4h]
  00406639: 56                 push        esi
  0040663A: 50                 push        eax
  0040663B: FF 15 F0 80 40 00  call        dword ptr ds:[004080F0h]
  00406641: 3B C6              cmp         eax,esi
  00406643: 5E                 pop         esi
  00406644: 76 02              jbe         00406648
  00406646: 33 C0              xor         eax,eax
  00406648: 85 C0              test        eax,eax
  0040664A: 74 0F              je          0040665B
  0040664C: 66 83 BC 45 C2 FD  cmp         word ptr [ebp+eax*2+FFFFFDC2h],5Ch
            FF FF 5C
  00406655: 74 04              je          0040665B
  00406657: 33 C9              xor         ecx,ecx
  00406659: EB 03              jmp         0040665E
  0040665B: 33 C9              xor         ecx,ecx
  0040665D: 41                 inc         ecx
  0040665E: FF 75 08           push        dword ptr [ebp+8]
  00406661: 8D 0C 4D 14 A0 40  lea         ecx,[ecx*2+0040A014h]
            00
  00406668: 8D 84 45 C4 FD FF  lea         eax,[ebp+eax*2+FFFFFDC4h]
            FF
  0040666F: 51                 push        ecx
  00406670: 68 90 A5 40 00     push        40A590h
  00406675: 50                 push        eax
  00406676: FF 15 90 82 40 00  call        dword ptr ds:[00408290h]
  0040667C: 83 C4 10           add         esp,10h
  0040667F: 8D 85 C4 FD FF FF  lea         eax,[ebp+FFFFFDC4h]
  00406685: 6A 08              push        8
  00406687: 6A 00              push        0
  00406689: 50                 push        eax
  0040668A: FF 15 6C 81 40 00  call        dword ptr ds:[0040816Ch]
  00406690: C9                 leave
  00406691: C2 04 00           ret         4
  00406694: 8B 44 24 04        mov         eax,dword ptr [esp+4]
  00406698: 56                 push        esi
  00406699: 8B F0              mov         esi,eax
  0040669B: 57                 push        edi
  0040669C: C1 E6 03           shl         esi,3
  0040669F: 8B BE E0 A3 40 00  mov         edi,dword ptr [esi+0040A3E0h]
  004066A5: 57                 push        edi
  004066A6: FF 15 F8 80 40 00  call        dword ptr ds:[004080F8h]
  004066AC: 85 C0              test        eax,eax
  004066AE: 75 0A              jne         004066BA
  004066B0: 57                 push        edi
  004066B1: E8 6E FF FF FF     call        00406624
  004066B6: 85 C0              test        eax,eax
  004066B8: 74 0F              je          004066C9
  004066BA: FF B6 E4 A3 40 00  push        dword ptr [esi+0040A3E4h]
  004066C0: 50                 push        eax
  004066C1: FF 15 F4 80 40 00  call        dword ptr ds:[004080F4h]
  004066C7: EB 02              jmp         004066CB
  004066C9: 33 C0              xor         eax,eax
  004066CB: 5F                 pop         edi
  004066CC: 5E                 pop         esi
  004066CD: C2 04 00           ret         4
  004066D0: 55                 push        ebp
  004066D1: 8B EC              mov         ebp,esp
  004066D3: 83 EC 1C           sub         esp,1Ch
  004066D6: 56                 push        esi
  004066D7: 8B 75 08           mov         esi,dword ptr [ebp+8]
  004066DA: 57                 push        edi
  004066DB: 8B 3D 08 82 40 00  mov         edi,dword ptr ds:[00408208h]
  004066E1: EB 0A              jmp         004066ED
  004066E3: 8D 45 E4           lea         eax,[ebp-1Ch]
  004066E6: 50                 push        eax
  004066E7: FF 15 04 82 40 00  call        dword ptr ds:[00408204h]
  004066ED: 6A 01              push        1
  004066EF: 56                 push        esi
  004066F0: 56                 push        esi
  004066F1: 8D 45 E4           lea         eax,[ebp-1Ch]
  004066F4: 6A 00              push        0
  004066F6: 50                 push        eax
  004066F7: FF D7              call        edi
  004066F9: 85 C0              test        eax,eax
  004066FB: 75 E6              jne         004066E3
  004066FD: 5F                 pop         edi
  004066FE: 5E                 pop         esi
  004066FF: C9                 leave
  00406700: C2 04 00           ret         4
  00406703: 55                 push        ebp
  00406704: 8B EC              mov         ebp,esp
  00406706: 81 EC 00 01 00 00  sub         esp,100h
  0040670C: 33 C0              xor         eax,eax
  0040670E: 8D 8D 00 FF FF FF  lea         ecx,[ebp+FFFFFF00h]
  00406714: 50                 push        eax
  00406715: 50                 push        eax
  00406716: 68 00 01 00 00     push        100h
  0040671B: 51                 push        ecx
  0040671C: 6A FF              push        0FFFFFFFFh
  0040671E: FF 75 0C           push        dword ptr [ebp+0Ch]
  00406721: 50                 push        eax
  00406722: 50                 push        eax
  00406723: FF 15 5C 81 40 00  call        dword ptr ds:[0040815Ch]
  00406729: 85 C0              test        eax,eax
  0040672B: 74 12              je          0040673F
  0040672D: 8D 85 00 FF FF FF  lea         eax,[ebp+FFFFFF00h]
  00406733: 50                 push        eax
  00406734: FF 75 08           push        dword ptr [ebp+8]
  00406737: FF 15 F4 80 40 00  call        dword ptr ds:[004080F4h]
  0040673D: EB 02              jmp         00406741
  0040673F: 33 C0              xor         eax,eax
  00406741: C9                 leave
  00406742: C2 08 00           ret         8
  00406745: 55                 push        ebp
  00406746: 8B EC              mov         ebp,esp
  00406748: 51                 push        ecx
  00406749: 56                 push        esi
  0040674A: 8B 35 00 81 40 00  mov         esi,dword ptr ds:[00408100h]
  00406750: 57                 push        edi
  00406751: 6A 64              push        64h
  00406753: FF 75 08           push        dword ptr [ebp+8]
  00406756: FF D6              call        esi
  00406758: BF 02 01 00 00     mov         edi,102h
  0040675D: EB 0E              jmp         0040676D
  0040675F: 6A 0F              push        0Fh
  00406761: E8 6A FF FF FF     call        004066D0
  00406766: 6A 64              push        64h
  00406768: FF 75 08           push        dword ptr [ebp+8]
  0040676B: FF D6              call        esi
  0040676D: 3B C7              cmp         eax,edi
  0040676F: 74 EE              je          0040675F
  00406771: 8D 45 FC           lea         eax,[ebp-4]
  00406774: 50                 push        eax
  00406775: FF 75 08           push        dword ptr [ebp+8]
  00406778: FF 15 FC 80 40 00  call        dword ptr ds:[004080FCh]
  0040677E: 8B 45 FC           mov         eax,dword ptr [ebp-4]
  00406781: 5F                 pop         edi
  00406782: 5E                 pop         esi
  00406783: C9                 leave
  00406784: C2 04 00           ret         4
  00406787: 83 3D EC 18 43 00  cmp         dword ptr ds:[004318ECh],0
            00
  0040678E: 56                 push        esi
  0040678F: 75 2D              jne         004067BE
  00406791: 33 C9              xor         ecx,ecx
  00406793: 6A 08              push        8
  00406795: 8B C1              mov         eax,ecx
  00406797: 5E                 pop         esi
  00406798: 8B D0              mov         edx,eax
  0040679A: 80 E2 01           and         dl,1
  0040679D: F6 DA              neg         dl
  0040679F: 1B D2              sbb         edx,edx
  004067A1: 81 E2 20 83 B8 ED  and         edx,0EDB88320h
  004067A7: D1 E8              shr         eax,1
  004067A9: 33 C2              xor         eax,edx
  004067AB: 4E                 dec         esi
  004067AC: 75 EA              jne         00406798
  004067AE: 89 04 8D E8 18 43  mov         dword ptr [ecx*4+004318E8h],eax
            00
  004067B5: 41                 inc         ecx
  004067B6: 81 F9 00 01 00 00  cmp         ecx,100h
  004067BC: 7C D5              jl          00406793
  004067BE: 8B 54 24 10        mov         edx,dword ptr [esp+10h]
  004067C2: 8B 44 24 08        mov         eax,dword ptr [esp+8]
  004067C6: 85 D2              test        edx,edx
  004067C8: F7 D0              not         eax
  004067CA: 76 23              jbe         004067EF
  004067CC: 8B 4C 24 0C        mov         ecx,dword ptr [esp+0Ch]
  004067D0: 57                 push        edi
  004067D1: 0F B6 39           movzx       edi,byte ptr [ecx]
  004067D4: 8B F0              mov         esi,eax
  004067D6: 81 E6 FF 00 00 00  and         esi,0FFh
  004067DC: 33 F7              xor         esi,edi
  004067DE: C1 E8 08           shr         eax,8
  004067E1: 8B 34 B5 E8 18 43  mov         esi,dword ptr [esi*4+004318E8h]
            00
  004067E8: 33 C6              xor         eax,esi
  004067EA: 41                 inc         ecx
  004067EB: 4A                 dec         edx
  004067EC: 75 E3              jne         004067D1
  004067EE: 5F                 pop         edi
  004067EF: F7 D0              not         eax
  004067F1: 5E                 pop         esi
  004067F2: C2 0C 00           ret         0Ch
  004067F5: 55                 push        ebp
  004067F6: 8B EC              mov         ebp,esp
  004067F8: 83 EC 44           sub         esp,44h
  004067FB: 8B 45 08           mov         eax,dword ptr [ebp+8]
  004067FE: 53                 push        ebx
  004067FF: 56                 push        esi
  00406800: 57                 push        edi
  00406801: 8B 08              mov         ecx,dword ptr [eax]
  00406803: 8D 70 10           lea         esi,[eax+10h]
  00406806: 8B 40 04           mov         eax,dword ptr [eax+4]
  00406809: 89 4D C8           mov         dword ptr [ebp-38h],ecx
  0040680C: 8B 8E A8 9B 00 00  mov         ecx,dword ptr [esi+00009BA8h]
  00406812: 8B 9E 18 05 00 00  mov         ebx,dword ptr [esi+00000518h]
  00406818: 89 45 CC           mov         dword ptr [ebp-34h],eax
  0040681B: 8B 86 1C 05 00 00  mov         eax,dword ptr [esi+0000051Ch]
  00406821: 89 45 C0           mov         dword ptr [ebp-40h],eax
  00406824: 8B 86 A4 9B 00 00  mov         eax,dword ptr [esi+00009BA4h]
  0040682A: 3B C8              cmp         ecx,eax
  0040682C: 89 4D D0           mov         dword ptr [ebp-30h],ecx
  0040682F: 73 05              jae         00406836
  00406831: 2B C1              sub         eax,ecx
  00406833: 48                 dec         eax
  00406834: EB 08              jmp         0040683E
  00406836: 8B 86 A0 9B 00 00  mov         eax,dword ptr [esi+00009BA0h]
  0040683C: 2B C1              sub         eax,ecx
  0040683E: 89 45 D4           mov         dword ptr [ebp-2Ch],eax
  00406841: E9 C3 09 00 00     jmp         00407209
  00406846: FF 24 85 44 72 40  jmp         dword ptr [eax*4+00407244h]
            00
  0040684D: 83 7D CC 00        cmp         dword ptr [ebp-34h],0
  00406851: 0F 84 C2 09 00 00  je          00407219
  00406857: 8B 45 C8           mov         eax,dword ptr [ebp-38h]
  0040685A: FF 4D CC           dec         dword ptr [ebp-34h]
  0040685D: 8B CB              mov         ecx,ebx
  0040685F: 0F B6 00           movzx       eax,byte ptr [eax]
  00406862: D3 E0              shl         eax,cl
  00406864: 09 45 C0           or          dword ptr [ebp-40h],eax
  00406867: FF 45 C8           inc         dword ptr [ebp-38h]
  0040686A: 83 C3 08           add         ebx,8
  0040686D: 83 FB 03           cmp         ebx,3
  00406870: 72 DB              jb          0040684D
  00406872: 8B 45 C0           mov         eax,dword ptr [ebp-40h]
  00406875: 83 EB 03           sub         ebx,3
  00406878: C1 6D C0 03        shr         dword ptr [ebp-40h],3
  0040687C: 83 E0 07           and         eax,7
  0040687F: 8B C8              mov         ecx,eax
  00406881: 80 E1 01           and         cl,1
  00406884: F6 D9              neg         cl
  00406886: 1B C9              sbb         ecx,ecx
  00406888: 83 E1 07           and         ecx,7
  0040688B: D1 E8              shr         eax,1
  0040688D: 83 C1 08           add         ecx,8
  00406890: 83 E8 00           sub         eax,0
  00406893: 89 8E 14 05 00 00  mov         dword ptr [esi+00000514h],ecx
  00406899: 0F 84 2E 01 00 00  je          004069CD
  0040689F: 48                 dec         eax
  004068A0: 74 56              je          004068F8
  004068A2: 48                 dec         eax
  004068A3: 74 48              je          004068ED
  004068A5: 48                 dec         eax
  004068A6: 0F 85 5D 09 00 00  jne         00407209
  004068AC: 83 CF FF           or          edi,0FFFFFFFFh
  004068AF: C7 06 11 00 00 00  mov         dword ptr [esi],11h
  004068B5: 8B 45 C0           mov         eax,dword ptr [ebp-40h]
  004068B8: 8B 4D 08           mov         ecx,dword ptr [ebp+8]
  004068BB: 89 86 1C 05 00 00  mov         dword ptr [esi+0000051Ch],eax
  004068C1: 8B 45 CC           mov         eax,dword ptr [ebp-34h]
  004068C4: 89 9E 18 05 00 00  mov         dword ptr [esi+00000518h],ebx
  004068CA: 89 41 04           mov         dword ptr [ecx+4],eax
  004068CD: 8B 45 08           mov         eax,dword ptr [ebp+8]
  004068D0: 8B 4D C8           mov         ecx,dword ptr [ebp-38h]
  004068D3: 50                 push        eax
  004068D4: 89 08              mov         dword ptr [eax],ecx
  004068D6: 8B 4D D0           mov         ecx,dword ptr [ebp-30h]
  004068D9: 89 8E A8 9B 00 00  mov         dword ptr [esi+00009BA8h],ecx
  004068DF: E8 A0 09 00 00     call        00407284
  004068E4: 8B C7              mov         eax,edi
  004068E6: 5F                 pop         edi
  004068E7: 5E                 pop         esi
  004068E8: 5B                 pop         ebx
  004068E9: C9                 leave
  004068EA: C2 04 00           ret         4
  004068ED: C7 06 0B 00 00 00  mov         dword ptr [esi],0Bh
  004068F3: E9 11 09 00 00     jmp         00407209
  004068F8: 80 3D 70 2E 43 00  cmp         byte ptr ds:[00432E70h],0
            00
  004068FF: 0F 85 A0 00 00 00  jne         004069A5
  00406905: 83 65 F8 00        and         dword ptr [ebp-8],0
  00406909: B8 F0 1C 43 00     mov         eax,431CF0h
  0040690E: 3D 2C 1F 43 00     cmp         eax,431F2Ch
  00406913: B1 08              mov         cl,8
  00406915: 7E 14              jle         0040692B
  00406917: 3D F0 20 43 00     cmp         eax,4320F0h
  0040691C: 7D 04              jge         00406922
  0040691E: FE C1              inc         cl
  00406920: EB 09              jmp         0040692B
  00406922: 3D 50 21 43 00     cmp         eax,432150h
  00406927: 7D 02              jge         0040692B
  00406929: B1 07              mov         cl,7
  0040692B: 0F BE C9           movsx       ecx,cl
  0040692E: 89 08              mov         dword ptr [eax],ecx
  00406930: 83 C0 04           add         eax,4
  00406933: 3D 70 21 43 00     cmp         eax,432170h
  00406938: 7C D4              jl          0040690E
  0040693A: 8D 45 F8           lea         eax,[ebp-8]
  0040693D: BF F0 1C 43 00     mov         edi,431CF0h
  00406942: 50                 push        eax
  00406943: 68 F0 25 43 00     push        4325F0h
  00406948: 68 C8 A5 40 00     push        40A5C8h
  0040694D: 68 EC 1C 43 00     push        431CECh
  00406952: 68 28 85 40 00     push        408528h
  00406957: 68 E8 84 40 00     push        4084E8h
  0040695C: 68 01 01 00 00     push        101h
  00406961: 68 20 01 00 00     push        120h
  00406966: 57                 push        edi
  00406967: E8 80 09 00 00     call        004072EC
  0040696C: 6A 1E              push        1Eh
  0040696E: 59                 pop         ecx
  0040696F: 6A 05              push        5
  00406971: 58                 pop         eax
  00406972: F3 AB              rep stos    dword ptr es:[edi]
  00406974: 8D 45 F8           lea         eax,[ebp-8]
  00406977: 50                 push        eax
  00406978: 68 F0 25 43 00     push        4325F0h
  0040697D: 68 CC A5 40 00     push        40A5CCh
  00406982: 68 E8 1C 43 00     push        431CE8h
  00406987: 68 A4 85 40 00     push        4085A4h
  0040698C: 68 68 85 40 00     push        408568h
  00406991: 6A 00              push        0
  00406993: 6A 1E              push        1Eh
  00406995: 68 F0 1C 43 00     push        431CF0h
  0040699A: E8 4D 09 00 00     call        004072EC
  0040699F: FE 05 70 2E 43 00  inc         byte ptr ds:[00432E70h]
  004069A5: A0 C8 A5 40 00     mov         al,byte ptr ds:[0040A5C8h]
  004069AA: 88 46 10           mov         byte ptr [esi+10h],al
  004069AD: A0 CC A5 40 00     mov         al,byte ptr ds:[0040A5CCh]
  004069B2: 88 46 11           mov         byte ptr [esi+11h],al
  004069B5: A1 EC 1C 43 00     mov         eax,dword ptr ds:[00431CECh]
  004069BA: 89 46 14           mov         dword ptr [esi+14h],eax
  004069BD: A1 E8 1C 43 00     mov         eax,dword ptr ds:[00431CE8h]
  004069C2: 89 46 18           mov         dword ptr [esi+18h],eax
  004069C5: 83 26 00           and         dword ptr [esi],0
  004069C8: E9 3C 08 00 00     jmp         00407209
  004069CD: 8B CB              mov         ecx,ebx
  004069CF: C7 06 09 00 00 00  mov         dword ptr [esi],9
  004069D5: 83 E1 07           and         ecx,7
  004069D8: D3 6D C0           shr         dword ptr [ebp-40h],cl
  004069DB: 2B D9              sub         ebx,ecx
  004069DD: E9 27 08 00 00     jmp         00407209
  004069E2: 83 7D CC 00        cmp         dword ptr [ebp-34h],0
  004069E6: 0F 84 2D 08 00 00  je          00407219
  004069EC: 8B 45 C8           mov         eax,dword ptr [ebp-38h]
  004069EF: FF 4D CC           dec         dword ptr [ebp-34h]
  004069F2: 8B CB              mov         ecx,ebx
  004069F4: 0F B6 00           movzx       eax,byte ptr [eax]
  004069F7: D3 E0              shl         eax,cl
  004069F9: 09 45 C0           or          dword ptr [ebp-40h],eax
  004069FC: FF 45 C8           inc         dword ptr [ebp-38h]
  004069FF: 83 C3 08           add         ebx,8
  00406A02: 83 FB 20           cmp         ebx,20h
  00406A05: 72 DB              jb          004069E2
  00406A07: 8B 45 C0           mov         eax,dword ptr [ebp-40h]
  00406A0A: 33 DB              xor         ebx,ebx
  00406A0C: 25 FF FF 00 00     and         eax,0FFFFh
  00406A11: 89 5D C0           mov         dword ptr [ebp-40h],ebx
  00406A14: 3B C3              cmp         eax,ebx
  00406A16: 89 46 04           mov         dword ptr [esi+4],eax
  00406A19: 0F 84 E9 00 00 00  je          00406B08
  00406A1F: 6A 0A              push        0Ah
  00406A21: 58                 pop         eax
  00406A22: E9 E7 00 00 00     jmp         00406B0E
  00406A27: 83 7D CC 00        cmp         dword ptr [ebp-34h],0
  00406A2B: 0F 84 E8 07 00 00  je          00407219
  00406A31: 8B 45 D4           mov         eax,dword ptr [ebp-2Ch]
  00406A34: 85 C0              test        eax,eax
  00406A36: 0F 85 98 00 00 00  jne         00406AD4
  00406A3C: 8B 8E A0 9B 00 00  mov         ecx,dword ptr [esi+00009BA0h]
  00406A42: 8B 55 D0           mov         edx,dword ptr [ebp-30h]
  00406A45: 3B D1              cmp         edx,ecx
  00406A47: 75 29              jne         00406A72
  00406A49: 8B 86 A4 9B 00 00  mov         eax,dword ptr [esi+00009BA4h]
  00406A4F: 8D BE A0 1B 00 00  lea         edi,[esi+00001BA0h]
  00406A55: 3B C7              cmp         eax,edi
  00406A57: 74 19              je          00406A72
  00406A59: 8B D7              mov         edx,edi
  00406A5B: 3B D0              cmp         edx,eax
  00406A5D: 89 55 D0           mov         dword ptr [ebp-30h],edx
  00406A60: 73 05              jae         00406A67
  00406A62: 2B C2              sub         eax,edx
  00406A64: 48                 dec         eax
  00406A65: EB 04              jmp         00406A6B
  00406A67: 2B CA              sub         ecx,edx
  00406A69: 8B C1              mov         eax,ecx
  00406A6B: 85 C0              test        eax,eax
  00406A6D: 89 45 D4           mov         dword ptr [ebp-2Ch],eax
  00406A70: 75 62              jne         00406AD4
  00406A72: FF 75 08           push        dword ptr [ebp+8]
  00406A75: 89 96 A8 9B 00 00  mov         dword ptr [esi+00009BA8h],edx
  00406A7B: E8 04 08 00 00     call        00407284
  00406A80: 8B 96 A8 9B 00 00  mov         edx,dword ptr [esi+00009BA8h]
  00406A86: 8B 8E A4 9B 00 00  mov         ecx,dword ptr [esi+00009BA4h]
  00406A8C: 3B D1              cmp         edx,ecx
  00406A8E: 89 55 D0           mov         dword ptr [ebp-30h],edx
  00406A91: 73 07              jae         00406A9A
  00406A93: 8B C1              mov         eax,ecx
  00406A95: 2B C2              sub         eax,edx
  00406A97: 48                 dec         eax
  00406A98: EB 08              jmp         00406AA2
  00406A9A: 8B 86 A0 9B 00 00  mov         eax,dword ptr [esi+00009BA0h]
  00406AA0: 2B C2              sub         eax,edx
  00406AA2: 8B BE A0 9B 00 00  mov         edi,dword ptr [esi+00009BA0h]
  00406AA8: 89 45 D4           mov         dword ptr [ebp-2Ch],eax
  00406AAB: 3B D7              cmp         edx,edi
  00406AAD: 75 1D              jne         00406ACC
  00406AAF: 8D 96 A0 1B 00 00  lea         edx,[esi+00001BA0h]
  00406AB5: 3B D1              cmp         edx,ecx
  00406AB7: 74 13              je          00406ACC
  00406AB9: 89 55 D0           mov         dword ptr [ebp-30h],edx
  00406ABC: 73 07              jae         00406AC5
  00406ABE: 2B CA              sub         ecx,edx
  00406AC0: 49                 dec         ecx
  00406AC1: 8B C1              mov         eax,ecx
  00406AC3: EB 04              jmp         00406AC9
  00406AC5: 2B FA              sub         edi,edx
  00406AC7: 8B C7              mov         eax,edi
  00406AC9: 89 45 D4           mov         dword ptr [ebp-2Ch],eax
  00406ACC: 85 C0              test        eax,eax
  00406ACE: 0F 84 61 07 00 00  je          00407235
  00406AD4: 3B 45 CC           cmp         eax,dword ptr [ebp-34h]
  00406AD7: 72 03              jb          00406ADC
  00406AD9: 8B 45 CC           mov         eax,dword ptr [ebp-34h]
  00406ADC: 8B 4E 04           mov         ecx,dword ptr [esi+4]
  00406ADF: 3B C8              cmp         ecx,eax
  00406AE1: 8B F9              mov         edi,ecx
  00406AE3: 72 02              jb          00406AE7
  00406AE5: 8B F8              mov         edi,eax
  00406AE7: 57                 push        edi
  00406AE8: FF 75 C8           push        dword ptr [ebp-38h]
  00406AEB: FF 75 D0           push        dword ptr [ebp-30h]
  00406AEE: E8 78 F2 FF FF     call        00405D6B
  00406AF3: 01 7D C8           add         dword ptr [ebp-38h],edi
  00406AF6: 29 7D CC           sub         dword ptr [ebp-34h],edi
  00406AF9: 01 7D D0           add         dword ptr [ebp-30h],edi
  00406AFC: 29 7D D4           sub         dword ptr [ebp-2Ch],edi
  00406AFF: 29 7E 04           sub         dword ptr [esi+4],edi
  00406B02: 0F 85 01 07 00 00  jne         00407209
  00406B08: 8B 86 14 05 00 00  mov         eax,dword ptr [esi+00000514h]
  00406B0E: 89 06              mov         dword ptr [esi],eax
  00406B10: E9 F4 06 00 00     jmp         00407209
  00406B15: 83 7D CC 00        cmp         dword ptr [ebp-34h],0
  00406B19: 0F 84 FA 06 00 00  je          00407219
  00406B1F: 8B 45 C8           mov         eax,dword ptr [ebp-38h]
  00406B22: FF 4D CC           dec         dword ptr [ebp-34h]
  00406B25: 8B CB              mov         ecx,ebx
  00406B27: 0F B6 00           movzx       eax,byte ptr [eax]
  00406B2A: D3 E0              shl         eax,cl
  00406B2C: 09 45 C0           or          dword ptr [ebp-40h],eax
  00406B2F: FF 45 C8           inc         dword ptr [ebp-38h]
  00406B32: 83 C3 08           add         ebx,8
  00406B35: 83 FB 0E           cmp         ebx,0Eh
  00406B38: 72 DB              jb          00406B15
  00406B3A: 8B 45 C0           mov         eax,dword ptr [ebp-40h]
  00406B3D: 25 FF 3F 00 00     and         eax,3FFFh
  00406B42: 8B C8              mov         ecx,eax
  00406B44: 89 46 04           mov         dword ptr [esi+4],eax
  00406B47: 83 E1 1F           and         ecx,1Fh
  00406B4A: 80 F9 1D           cmp         cl,1Dh
  00406B4D: 0F 87 59 FD FF FF  ja          004068AC
  00406B53: 25 E0 03 00 00     and         eax,3E0h
  00406B58: 3D A0 03 00 00     cmp         eax,3A0h
  00406B5D: 0F 87 49 FD FF FF  ja          004068AC
  00406B63: C1 6D C0 0E        shr         dword ptr [ebp-40h],0Eh
  00406B67: 83 EB 0E           sub         ebx,0Eh
  00406B6A: 83 66 08 00        and         dword ptr [esi+8],0
  00406B6E: C7 06 0C 00 00 00  mov         dword ptr [esi],0Ch
  00406B74: 8B 46 04           mov         eax,dword ptr [esi+4]
  00406B77: C1 E8 0A           shr         eax,0Ah
  00406B7A: 83 C0 04           add         eax,4
  00406B7D: 39 46 08           cmp         dword ptr [esi+8],eax
  00406B80: 73 69              jae         00406BEB
  00406B82: EB 20              jmp         00406BA4
  00406B84: 83 7D CC 00        cmp         dword ptr [ebp-34h],0
  00406B88: 0F 84 8B 06 00 00  je          00407219
  00406B8E: 8B 45 C8           mov         eax,dword ptr [ebp-38h]
  00406B91: FF 4D CC           dec         dword ptr [ebp-34h]
  00406B94: 8B CB              mov         ecx,ebx
  00406B96: 0F B6 00           movzx       eax,byte ptr [eax]
  00406B99: D3 E0              shl         eax,cl
  00406B9B: 09 45 C0           or          dword ptr [ebp-40h],eax
  00406B9E: FF 45 C8           inc         dword ptr [ebp-38h]
  00406BA1: 83 C3 08           add         ebx,8
  00406BA4: 83 FB 03           cmp         ebx,3
  00406BA7: 72 DB              jb          00406B84
  00406BA9: 8B 4E 08           mov         ecx,dword ptr [esi+8]
  00406BAC: 8B 45 C0           mov         eax,dword ptr [ebp-40h]
  00406BAF: 83 E0 07           and         eax,7
  00406BB2: 83 EB 03           sub         ebx,3
  00406BB5: 0F BE 89 D4 84 40  movsx       ecx,byte ptr [ecx+004084D4h]
            00
  00406BBC: C1 6D C0 03        shr         dword ptr [ebp-40h],3
  00406BC0: 89 44 8E 0C        mov         dword ptr [esi+ecx*4+0Ch],eax
  00406BC4: 8B 4E 04           mov         ecx,dword ptr [esi+4]
  00406BC7: FF 46 08           inc         dword ptr [esi+8]
  00406BCA: 8B 46 08           mov         eax,dword ptr [esi+8]
  00406BCD: C1 E9 0A           shr         ecx,0Ah
  00406BD0: 83 C1 04           add         ecx,4
  00406BD3: 3B C1              cmp         eax,ecx
  00406BD5: 72 CD              jb          00406BA4
  00406BD7: EB 12              jmp         00406BEB
  00406BD9: 8B 46 08           mov         eax,dword ptr [esi+8]
  00406BDC: 0F BE 80 D4 84 40  movsx       eax,byte ptr [eax+004084D4h]
            00
  00406BE3: 83 64 86 0C 00     and         dword ptr [esi+eax*4+0Ch],0
  00406BE8: FF 46 08           inc         dword ptr [esi+8]
  00406BEB: 83 7E 08 13        cmp         dword ptr [esi+8],13h
  00406BEF: 72 E8              jb          00406BD9
  00406BF1: 8D 4D F8           lea         ecx,[ebp-8]
  00406BF4: 8D BE 0C 05 00 00  lea         edi,[esi+0000050Ch]
  00406BFA: 51                 push        ecx
  00406BFB: 8D 8E 20 05 00 00  lea         ecx,[esi+00000520h]
  00406C01: 51                 push        ecx
  00406C02: 8D 8E 10 05 00 00  lea         ecx,[esi+00000510h]
  00406C08: 33 C0              xor         eax,eax
  00406C0A: 57                 push        edi
  00406C0B: 51                 push        ecx
  00406C0C: 50                 push        eax
  00406C0D: 89 45 F8           mov         dword ptr [ebp-8],eax
  00406C10: 50                 push        eax
  00406C11: 6A 13              push        13h
  00406C13: 8D 46 0C           lea         eax,[esi+0Ch]
  00406C16: 6A 13              push        13h
  00406C18: 50                 push        eax
  00406C19: C7 07 07 00 00 00  mov         dword ptr [edi],7
  00406C1F: E8 C8 06 00 00     call        004072EC
  00406C24: 85 C0              test        eax,eax
  00406C26: 75 12              jne         00406C3A
  00406C28: 39 07              cmp         dword ptr [edi],eax
  00406C2A: 74 0E              je          00406C3A
  00406C2C: 21 46 08           and         dword ptr [esi+8],eax
  00406C2F: C7 06 0D 00 00 00  mov         dword ptr [esi],0Dh
  00406C35: E9 1D 01 00 00     jmp         00406D57
  00406C3A: C7 06 11 00 00 00  mov         dword ptr [esi],11h
  00406C40: E9 C4 05 00 00     jmp         00407209
  00406C45: 8B 86 0C 05 00 00  mov         eax,dword ptr [esi+0000050Ch]
  00406C4B: EB 20              jmp         00406C6D
  00406C4D: 83 7D CC 00        cmp         dword ptr [ebp-34h],0
  00406C51: 0F 84 C2 05 00 00  je          00407219
  00406C57: 8B 4D C8           mov         ecx,dword ptr [ebp-38h]
  00406C5A: FF 4D CC           dec         dword ptr [ebp-34h]
  00406C5D: 0F B6 11           movzx       edx,byte ptr [ecx]
  00406C60: 8B CB              mov         ecx,ebx
  00406C62: D3 E2              shl         edx,cl
  00406C64: 09 55 C0           or          dword ptr [ebp-40h],edx
  00406C67: FF 45 C8           inc         dword ptr [ebp-38h]
  00406C6A: 83 C3 08           add         ebx,8
  00406C6D: 3B D8              cmp         ebx,eax
  00406C6F: 72 DC              jb          00406C4D
  00406C71: 0F B7 04 45 A4 A5  movzx       eax,word ptr [eax*2+0040A5A4h]
            40 00
  00406C79: 23 45 C0           and         eax,dword ptr [ebp-40h]
  00406C7C: 8B 8E 10 05 00 00  mov         ecx,dword ptr [esi+00000510h]
  00406C82: 8D 04 81           lea         eax,[ecx+eax*4]
  00406C85: 0F B6 50 01        movzx       edx,byte ptr [eax+1]
  00406C89: 0F B7 40 02        movzx       eax,word ptr [eax+2]
  00406C8D: 83 F8 10           cmp         eax,10h
  00406C90: 89 45 EC           mov         dword ptr [ebp-14h],eax
  00406C93: 73 16              jae         00406CAB
  00406C95: 8B CA              mov         ecx,edx
  00406C97: 2B DA              sub         ebx,edx
  00406C99: D3 6D C0           shr         dword ptr [ebp-40h],cl
  00406C9C: 8B 4E 08           mov         ecx,dword ptr [esi+8]
  00406C9F: 89 44 8E 0C        mov         dword ptr [esi+ecx*4+0Ch],eax
  00406CA3: FF 46 08           inc         dword ptr [esi+8]
  00406CA6: E9 AC 00 00 00     jmp         00406D57
  00406CAB: 83 F8 12           cmp         eax,12h
  00406CAE: 75 0C              jne         00406CBC
  00406CB0: 6A 07              push        7
  00406CB2: C7 45 F8 0B 00 00  mov         dword ptr [ebp-8],0Bh
            00
  00406CB9: 58                 pop         eax
  00406CBA: EB 2C              jmp         00406CE8
  00406CBC: 83 C0 F2           add         eax,0FFFFFFF2h
  00406CBF: C7 45 F8 03 00 00  mov         dword ptr [ebp-8],3
            00
  00406CC6: EB 20              jmp         00406CE8
  00406CC8: 83 7D CC 00        cmp         dword ptr [ebp-34h],0
  00406CCC: 0F 84 47 05 00 00  je          00407219
  00406CD2: 8B 4D C8           mov         ecx,dword ptr [ebp-38h]
  00406CD5: FF 4D CC           dec         dword ptr [ebp-34h]
  00406CD8: 0F B6 39           movzx       edi,byte ptr [ecx]
  00406CDB: 8B CB              mov         ecx,ebx
  00406CDD: D3 E7              shl         edi,cl
  00406CDF: 09 7D C0           or          dword ptr [ebp-40h],edi
  00406CE2: FF 45 C8           inc         dword ptr [ebp-38h]
  00406CE5: 83 C3 08           add         ebx,8
  00406CE8: 8D 0C 10           lea         ecx,[eax+edx]
  00406CEB: 3B D9              cmp         ebx,ecx
  00406CED: 72 D9              jb          00406CC8
  00406CEF: 8B CA              mov         ecx,edx
  00406CF1: 2B DA              sub         ebx,edx
  00406CF3: D3 6D C0           shr         dword ptr [ebp-40h],cl
  00406CF6: 0F B7 0C 45 A4 A5  movzx       ecx,word ptr [eax*2+0040A5A4h]
            40 00
  00406CFE: 23 4D C0           and         ecx,dword ptr [ebp-40h]
  00406D01: 8B 55 F8           mov         edx,dword ptr [ebp-8]
  00406D04: 2B D8              sub         ebx,eax
  00406D06: 03 D1              add         edx,ecx
  00406D08: 8B C8              mov         ecx,eax
  00406D0A: 8B 46 04           mov         eax,dword ptr [esi+4]
  00406D0D: D3 6D C0           shr         dword ptr [ebp-40h],cl
  00406D10: 8B 4E 08           mov         ecx,dword ptr [esi+8]
  00406D13: 8B F8              mov         edi,eax
  00406D15: C1 EF 05           shr         edi,5
  00406D18: 83 E7 1F           and         edi,1Fh
  00406D1B: 83 E0 1F           and         eax,1Fh
  00406D1E: 8D 84 07 02 01 00  lea         eax,[edi+eax+00000102h]
            00
  00406D25: 8D 3C 0A           lea         edi,[edx+ecx]
  00406D28: 3B F8              cmp         edi,eax
  00406D2A: 0F 87 7C FB FF FF  ja          004068AC
  00406D30: 83 7D EC 10        cmp         dword ptr [ebp-14h],10h
  00406D34: 75 0F              jne         00406D45
  00406D36: 83 F9 01           cmp         ecx,1
  00406D39: 0F 82 6D FB FF FF  jb          004068AC
  00406D3F: 8B 7C 8E 08        mov         edi,dword ptr [esi+ecx*4+8]
  00406D43: EB 02              jmp         00406D47
  00406D45: 33 FF              xor         edi,edi
  00406D47: 8D 44 8E 0C        lea         eax,[esi+ecx*4+0Ch]
  00406D4B: 89 38              mov         dword ptr [eax],edi
  00406D4D: 41                 inc         ecx
  00406D4E: 83 C0 04           add         eax,4
  00406D51: 4A                 dec         edx
  00406D52: 75 F7              jne         00406D4B
  00406D54: 89 4E 08           mov         dword ptr [esi+8],ecx
  00406D57: 8B 46 04           mov         eax,dword ptr [esi+4]
  00406D5A: 8B 4E 08           mov         ecx,dword ptr [esi+8]
  00406D5D: 8B D0              mov         edx,eax
  00406D5F: 83 E0 1F           and         eax,1Fh
  00406D62: C1 EA 05           shr         edx,5
  00406D65: 83 E2 1F           and         edx,1Fh
  00406D68: 8D 84 02 02 01 00  lea         eax,[edx+eax+00000102h]
            00
  00406D6F: 3B C8              cmp         ecx,eax
  00406D71: 0F 82 CE FE FF FF  jb          00406C45
  00406D77: 8B 46 04           mov         eax,dword ptr [esi+4]
  00406D7A: 83 A6 10 05 00 00  and         dword ptr [esi+00000510h],0
            00
  00406D81: 83 65 F4 00        and         dword ptr [ebp-0Ch],0
  00406D85: 8B F8              mov         edi,eax
  00406D87: C1 E8 05           shr         eax,5
  00406D8A: 83 E7 1F           and         edi,1Fh
  00406D8D: B9 01 01 00 00     mov         ecx,101h
  00406D92: 83 E0 1F           and         eax,1Fh
  00406D95: 03 F9              add         edi,ecx
  00406D97: 40                 inc         eax
  00406D98: 8D 55 F4           lea         edx,[ebp-0Ch]
  00406D9B: 89 45 EC           mov         dword ptr [ebp-14h],eax
  00406D9E: 8D 86 20 05 00 00  lea         eax,[esi+00000520h]
  00406DA4: 52                 push        edx
  00406DA5: 50                 push        eax
  00406DA6: 8D 45 FC           lea         eax,[ebp-4]
  00406DA9: C7 45 FC 09 00 00  mov         dword ptr [ebp-4],9
            00
  00406DB0: 50                 push        eax
  00406DB1: 8D 45 E8           lea         eax,[ebp-18h]
  00406DB4: 50                 push        eax
  00406DB5: 68 28 85 40 00     push        408528h
  00406DBA: 68 E8 84 40 00     push        4084E8h
  00406DBF: 51                 push        ecx
  00406DC0: 8D 46 0C           lea         eax,[esi+0Ch]
  00406DC3: 57                 push        edi
  00406DC4: 50                 push        eax
  00406DC5: C7 45 F0 06 00 00  mov         dword ptr [ebp-10h],6
            00
  00406DCC: E8 1B 05 00 00     call        004072EC
  00406DD1: 83 7D FC 00        cmp         dword ptr [ebp-4],0
  00406DD5: 75 03              jne         00406DDA
  00406DD7: 83 C8 FF           or          eax,0FFFFFFFFh
  00406DDA: 85 C0              test        eax,eax
  00406DDC: 0F 85 CA FA FF FF  jne         004068AC
  00406DE2: 8D 45 F4           lea         eax,[ebp-0Ch]
  00406DE5: 50                 push        eax
  00406DE6: 8D 86 20 05 00 00  lea         eax,[esi+00000520h]
  00406DEC: 50                 push        eax
  00406DED: 8D 45 F0           lea         eax,[ebp-10h]
  00406DF0: 50                 push        eax
  00406DF1: 8D 45 E4           lea         eax,[ebp-1Ch]
  00406DF4: 50                 push        eax
  00406DF5: 68 A4 85 40 00     push        4085A4h
  00406DFA: 68 68 85 40 00     push        408568h
  00406DFF: 6A 00              push        0
  00406E01: FF 75 EC           push        dword ptr [ebp-14h]
  00406E04: 8D 44 BE 0C        lea         eax,[esi+edi*4+0Ch]
  00406E08: 50                 push        eax
  00406E09: E8 DE 04 00 00     call        004072EC
  00406E0E: 85 C0              test        eax,eax
  00406E10: 0F 85 96 FA FF FF  jne         004068AC
  00406E16: 8B 45 F0           mov         eax,dword ptr [ebp-10h]
  00406E19: 85 C0              test        eax,eax
  00406E1B: 75 0C              jne         00406E29
  00406E1D: 81 FF 01 01 00 00  cmp         edi,101h
  00406E23: 0F 8F 83 FA FF FF  jg          004068AC
  00406E29: 8A 4D FC           mov         cl,byte ptr [ebp-4]
  00406E2C: 83 26 00           and         dword ptr [esi],0
  00406E2F: 88 46 11           mov         byte ptr [esi+11h],al
  00406E32: 8B 45 E8           mov         eax,dword ptr [ebp-18h]
  00406E35: 89 46 14           mov         dword ptr [esi+14h],eax
  00406E38: 8B 45 E4           mov         eax,dword ptr [ebp-1Ch]
  00406E3B: 88 4E 10           mov         byte ptr [esi+10h],cl
  00406E3E: 89 46 18           mov         dword ptr [esi+18h],eax
  00406E41: 0F B6 46 10        movzx       eax,byte ptr [esi+10h]
  00406E45: 89 46 0C           mov         dword ptr [esi+0Ch],eax
  00406E48: 8B 46 14           mov         eax,dword ptr [esi+14h]
  00406E4B: 89 46 08           mov         dword ptr [esi+8],eax
  00406E4E: C7 06 01 00 00 00  mov         dword ptr [esi],1
  00406E54: 8B 46 0C           mov         eax,dword ptr [esi+0Ch]
  00406E57: EB 20              jmp         00406E79
  00406E59: 83 7D CC 00        cmp         dword ptr [ebp-34h],0
  00406E5D: 0F 84 B6 03 00 00  je          00407219
  00406E63: 8B 4D C8           mov         ecx,dword ptr [ebp-38h]
  00406E66: FF 4D CC           dec         dword ptr [ebp-34h]
  00406E69: 0F B6 11           movzx       edx,byte ptr [ecx]
  00406E6C: 8B CB              mov         ecx,ebx
  00406E6E: D3 E2              shl         edx,cl
  00406E70: 09 55 C0           or          dword ptr [ebp-40h],edx
  00406E73: FF 45 C8           inc         dword ptr [ebp-38h]
  00406E76: 83 C3 08           add         ebx,8
  00406E79: 3B D8              cmp         ebx,eax
  00406E7B: 72 DC              jb          00406E59
  00406E7D: 0F B7 04 45 A4 A5  movzx       eax,word ptr [eax*2+0040A5A4h]
            40 00
  00406E85: 23 45 C0           and         eax,dword ptr [ebp-40h]
  00406E88: 8B 4E 08           mov         ecx,dword ptr [esi+8]
  00406E8B: 8D 04 81           lea         eax,[ecx+eax*4]
  00406E8E: 0F B6 48 01        movzx       ecx,byte ptr [eax+1]
  00406E92: D3 6D C0           shr         dword ptr [ebp-40h],cl
  00406E95: 2B D9              sub         ebx,ecx
  00406E97: 0F B6 08           movzx       ecx,byte ptr [eax]
  00406E9A: 85 C9              test        ecx,ecx
  00406E9C: 75 12              jne         00406EB0
  00406E9E: 0F B7 40 02        movzx       eax,word ptr [eax+2]
  00406EA2: 89 46 08           mov         dword ptr [esi+8],eax
  00406EA5: C7 06 06 00 00 00  mov         dword ptr [esi],6
  00406EAB: E9 59 03 00 00     jmp         00407209
  00406EB0: F6 C1 10           test        cl,10h
  00406EB3: 74 18              je          00406ECD
  00406EB5: 83 E1 0F           and         ecx,0Fh
  00406EB8: 89 4E 08           mov         dword ptr [esi+8],ecx
  00406EBB: 0F B7 40 02        movzx       eax,word ptr [eax+2]
  00406EBF: 89 46 04           mov         dword ptr [esi+4],eax
  00406EC2: C7 06 02 00 00 00  mov         dword ptr [esi],2
  00406EC8: E9 3C 03 00 00     jmp         00407209
  00406ECD: F6 C1 40           test        cl,40h
  00406ED0: 0F 84 D1 00 00 00  je          00406FA7
  00406ED6: F6 C1 20           test        cl,20h
  00406ED9: 0F 84 CD F9 FF FF  je          004068AC
  00406EDF: C7 06 07 00 00 00  mov         dword ptr [esi],7
  00406EE5: E9 1F 03 00 00     jmp         00407209
  00406EEA: 8B 46 08           mov         eax,dword ptr [esi+8]
  00406EED: EB 20              jmp         00406F0F
  00406EEF: 83 7D CC 00        cmp         dword ptr [ebp-34h],0
  00406EF3: 0F 84 20 03 00 00  je          00407219
  00406EF9: 8B 4D C8           mov         ecx,dword ptr [ebp-38h]
  00406EFC: FF 4D CC           dec         dword ptr [ebp-34h]
  00406EFF: 0F B6 11           movzx       edx,byte ptr [ecx]
  00406F02: 8B CB              mov         ecx,ebx
  00406F04: D3 E2              shl         edx,cl
  00406F06: 09 55 C0           or          dword ptr [ebp-40h],edx
  00406F09: FF 45 C8           inc         dword ptr [ebp-38h]
  00406F0C: 83 C3 08           add         ebx,8
  00406F0F: 3B D8              cmp         ebx,eax
  00406F11: 72 DC              jb          00406EEF
  00406F13: 0F B7 0C 45 A4 A5  movzx       ecx,word ptr [eax*2+0040A5A4h]
            40 00
  00406F1B: 23 4D C0           and         ecx,dword ptr [ebp-40h]
  00406F1E: 01 4E 04           add         dword ptr [esi+4],ecx
  00406F21: 8B C8              mov         ecx,eax
  00406F23: D3 6D C0           shr         dword ptr [ebp-40h],cl
  00406F26: 2B D8              sub         ebx,eax
  00406F28: 0F B6 46 11        movzx       eax,byte ptr [esi+11h]
  00406F2C: 89 46 0C           mov         dword ptr [esi+0Ch],eax
  00406F2F: 8B 46 18           mov         eax,dword ptr [esi+18h]
  00406F32: 89 46 08           mov         dword ptr [esi+8],eax
  00406F35: C7 06 03 00 00 00  mov         dword ptr [esi],3
  00406F3B: 8B 46 0C           mov         eax,dword ptr [esi+0Ch]
  00406F3E: EB 20              jmp         00406F60
  00406F40: 83 7D CC 00        cmp         dword ptr [ebp-34h],0
  00406F44: 0F 84 CF 02 00 00  je          00407219
  00406F4A: 8B 4D C8           mov         ecx,dword ptr [ebp-38h]
  00406F4D: FF 4D CC           dec         dword ptr [ebp-34h]
  00406F50: 0F B6 11           movzx       edx,byte ptr [ecx]
  00406F53: 8B CB              mov         ecx,ebx
  00406F55: D3 E2              shl         edx,cl
  00406F57: 09 55 C0           or          dword ptr [ebp-40h],edx
  00406F5A: FF 45 C8           inc         dword ptr [ebp-38h]
  00406F5D: 83 C3 08           add         ebx,8
  00406F60: 3B D8              cmp         ebx,eax
  00406F62: 72 DC              jb          00406F40
  00406F64: 0F B7 04 45 A4 A5  movzx       eax,word ptr [eax*2+0040A5A4h]
            40 00
  00406F6C: 23 45 C0           and         eax,dword ptr [ebp-40h]
  00406F6F: 8B 4E 08           mov         ecx,dword ptr [esi+8]
  00406F72: 8D 04 81           lea         eax,[ecx+eax*4]
  00406F75: 0F B6 48 01        movzx       ecx,byte ptr [eax+1]
  00406F79: D3 6D C0           shr         dword ptr [ebp-40h],cl
  00406F7C: 2B D9              sub         ebx,ecx
  00406F7E: 0F B6 08           movzx       ecx,byte ptr [eax]
  00406F81: F6 C1 10           test        cl,10h
  00406F84: 74 18              je          00406F9E
  00406F86: 83 E1 0F           and         ecx,0Fh
  00406F89: 89 4E 08           mov         dword ptr [esi+8],ecx
  00406F8C: 0F B7 40 02        movzx       eax,word ptr [eax+2]
  00406F90: 89 46 0C           mov         dword ptr [esi+0Ch],eax
  00406F93: C7 06 04 00 00 00  mov         dword ptr [esi],4
  00406F99: E9 6B 02 00 00     jmp         00407209
  00406F9E: F6 C1 40           test        cl,40h
  00406FA1: 0F 85 05 F9 FF FF  jne         004068AC
  00406FA7: 89 4E 0C           mov         dword ptr [esi+0Ch],ecx
  00406FAA: 0F B7 48 02        movzx       ecx,word ptr [eax+2]
  00406FAE: 8D 04 88           lea         eax,[eax+ecx*4]
  00406FB1: 89 46 08           mov         dword ptr [esi+8],eax
  00406FB4: E9 50 02 00 00     jmp         00407209
  00406FB9: 8B 46 08           mov         eax,dword ptr [esi+8]
  00406FBC: EB 20              jmp         00406FDE
  00406FBE: 83 7D CC 00        cmp         dword ptr [ebp-34h],0
  00406FC2: 0F 84 51 02 00 00  je          00407219
  00406FC8: 8B 4D C8           mov         ecx,dword ptr [ebp-38h]
  00406FCB: FF 4D CC           dec         dword ptr [ebp-34h]
  00406FCE: 0F B6 11           movzx       edx,byte ptr [ecx]
  00406FD1: 8B CB              mov         ecx,ebx
  00406FD3: D3 E2              shl         edx,cl
  00406FD5: 09 55 C0           or          dword ptr [ebp-40h],edx
  00406FD8: FF 45 C8           inc         dword ptr [ebp-38h]
  00406FDB: 83 C3 08           add         ebx,8
  00406FDE: 3B D8              cmp         ebx,eax
  00406FE0: 72 DC              jb          00406FBE
  00406FE2: 0F B7 0C 45 A4 A5  movzx       ecx,word ptr [eax*2+0040A5A4h]
            40 00
  00406FEA: 23 4D C0           and         ecx,dword ptr [ebp-40h]
  00406FED: 01 4E 0C           add         dword ptr [esi+0Ch],ecx
  00406FF0: 8B C8              mov         ecx,eax
  00406FF2: D3 6D C0           shr         dword ptr [ebp-40h],cl
  00406FF5: 2B D8              sub         ebx,eax
  00406FF7: C7 06 05 00 00 00  mov         dword ptr [esi],5
  00406FFD: 8B 45 D0           mov         eax,dword ptr [ebp-30h]
  00407000: 8B 56 0C           mov         edx,dword ptr [esi+0Ch]
  00407003: 8B C8              mov         ecx,eax
  00407005: 2B CE              sub         ecx,esi
  00407007: 81 E9 A0 1B 00 00  sub         ecx,1BA0h
  0040700D: 3B CA              cmp         ecx,edx
  0040700F: 73 13              jae         00407024
  00407011: 8B 8E A0 9B 00 00  mov         ecx,dword ptr [esi+00009BA0h]
  00407017: 2B CA              sub         ecx,edx
  00407019: 2B CE              sub         ecx,esi
  0040701B: 8D 8C 01 60 E4 FF  lea         ecx,[ecx+eax+FFFFE460h]
            FF
  00407022: EB 04              jmp         00407028
  00407024: 8B C8              mov         ecx,eax
  00407026: 2B CA              sub         ecx,edx
  00407028: 83 7E 04 00        cmp         dword ptr [esi+4],0
  0040702C: 89 4D E0           mov         dword ptr [ebp-20h],ecx
  0040702F: 0F 84 90 F9 FF FF  je          004069C5
  00407035: 8B 7D D4           mov         edi,dword ptr [ebp-2Ch]
  00407038: 85 FF              test        edi,edi
  0040703A: 0F 85 91 00 00 00  jne         004070D1
  00407040: 8B BE A0 9B 00 00  mov         edi,dword ptr [esi+00009BA0h]
  00407046: 3B C7              cmp         eax,edi
  00407048: 75 23              jne         0040706D
  0040704A: 8B 8E A4 9B 00 00  mov         ecx,dword ptr [esi+00009BA4h]
  00407050: 8D 96 A0 1B 00 00  lea         edx,[esi+00001BA0h]
  00407056: 3B CA              cmp         ecx,edx
  00407058: 74 13              je          0040706D
  0040705A: 8B C2              mov         eax,edx
  0040705C: 3B C1              cmp         eax,ecx
  0040705E: 73 07              jae         00407067
  00407060: 2B C8              sub         ecx,eax
  00407062: 49                 dec         ecx
  00407063: 8B F9              mov         edi,ecx
  00407065: EB 02              jmp         00407069
  00407067: 2B F8              sub         edi,eax
  00407069: 85 FF              test        edi,edi
  0040706B: 75 64              jne         004070D1
  0040706D: FF 75 08           push        dword ptr [ebp+8]
  00407070: 89 86 A8 9B 00 00  mov         dword ptr [esi+00009BA8h],eax
  00407076: E8 09 02 00 00     call        00407284
  0040707B: 8B 86 A8 9B 00 00  mov         eax,dword ptr [esi+00009BA8h]
  00407081: 8B 8E A4 9B 00 00  mov         ecx,dword ptr [esi+00009BA4h]
  00407087: 3B C1              cmp         eax,ecx
  00407089: 89 45 D0           mov         dword ptr [ebp-30h],eax
  0040708C: 73 07              jae         00407095
  0040708E: 8B F9              mov         edi,ecx
  00407090: 2B F8              sub         edi,eax
  00407092: 4F                 dec         edi
  00407093: EB 08              jmp         0040709D
  00407095: 8B BE A0 9B 00 00  mov         edi,dword ptr [esi+00009BA0h]
  0040709B: 2B F8              sub         edi,eax
  0040709D: 8B 96 A0 9B 00 00  mov         edx,dword ptr [esi+00009BA0h]
  004070A3: 3B C2              cmp         eax,edx
  004070A5: 89 55 F8           mov         dword ptr [ebp-8],edx
  004070A8: 75 1F              jne         004070C9
  004070AA: 8D 96 A0 1B 00 00  lea         edx,[esi+00001BA0h]
  004070B0: 3B CA              cmp         ecx,edx
  004070B2: 74 15              je          004070C9
  004070B4: 8B C2              mov         eax,edx
  004070B6: 3B C1              cmp         eax,ecx
  004070B8: 89 45 D0           mov         dword ptr [ebp-30h],eax
  004070BB: 73 07              jae         004070C4
  004070BD: 2B C8              sub         ecx,eax
  004070BF: 49                 dec         ecx
  004070C0: 8B F9              mov         edi,ecx
  004070C2: EB 05              jmp         004070C9
  004070C4: 8B 7D F8           mov         edi,dword ptr [ebp-8]
  004070C7: 2B F8              sub         edi,eax
  004070C9: 85 FF              test        edi,edi
  004070CB: 0F 84 64 01 00 00  je          00407235
  004070D1: 8B 4D E0           mov         ecx,dword ptr [ebp-20h]
  004070D4: 8A 11              mov         dl,byte ptr [ecx]
  004070D6: 88 10              mov         byte ptr [eax],dl
  004070D8: 40                 inc         eax
  004070D9: 41                 inc         ecx
  004070DA: 4F                 dec         edi
  004070DB: 3B 8E A0 9B 00 00  cmp         ecx,dword ptr [esi+00009BA0h]
  004070E1: 89 45 D0           mov         dword ptr [ebp-30h],eax
  004070E4: 89 4D E0           mov         dword ptr [ebp-20h],ecx
  004070E7: 89 7D D4           mov         dword ptr [ebp-2Ch],edi
  004070EA: 75 09              jne         004070F5
  004070EC: 8D 8E A0 1B 00 00  lea         ecx,[esi+00001BA0h]
  004070F2: 89 4D E0           mov         dword ptr [ebp-20h],ecx
  004070F5: FF 4E 04           dec         dword ptr [esi+4]
  004070F8: 0F 85 3A FF FF FF  jne         00407038
  004070FE: E9 C2 F8 FF FF     jmp         004069C5
  00407103: 8B 45 D4           mov         eax,dword ptr [ebp-2Ch]
  00407106: 8B 7D D0           mov         edi,dword ptr [ebp-30h]
  00407109: 85 C0              test        eax,eax
  0040710B: 0F 85 91 00 00 00  jne         004071A2
  00407111: 8B 8E A0 9B 00 00  mov         ecx,dword ptr [esi+00009BA0h]
  00407117: 3B F9              cmp         edi,ecx
  00407119: 75 23              jne         0040713E
  0040711B: 8B 86 A4 9B 00 00  mov         eax,dword ptr [esi+00009BA4h]
  00407121: 8D 96 A0 1B 00 00  lea         edx,[esi+00001BA0h]
  00407127: 3B C2              cmp         eax,edx
  00407129: 74 13              je          0040713E
  0040712B: 8B FA              mov         edi,edx
  0040712D: 3B F8              cmp         edi,eax
  0040712F: 73 05              jae         00407136
  00407131: 2B C7              sub         eax,edi
  00407133: 48                 dec         eax
  00407134: EB 04              jmp         0040713A
  00407136: 2B CF              sub         ecx,edi
  00407138: 8B C1              mov         eax,ecx
  0040713A: 85 C0              test        eax,eax
  0040713C: 75 64              jne         004071A2
  0040713E: FF 75 08           push        dword ptr [ebp+8]
  00407141: 89 BE A8 9B 00 00  mov         dword ptr [esi+00009BA8h],edi
  00407147: E8 38 01 00 00     call        00407284
  0040714C: 8B BE A8 9B 00 00  mov         edi,dword ptr [esi+00009BA8h]
  00407152: 8B 8E A4 9B 00 00  mov         ecx,dword ptr [esi+00009BA4h]
  00407158: 3B F9              cmp         edi,ecx
  0040715A: 89 7D D0           mov         dword ptr [ebp-30h],edi
  0040715D: 73 07              jae         00407166
  0040715F: 8B C1              mov         eax,ecx
  00407161: 2B C7              sub         eax,edi
  00407163: 48                 dec         eax
  00407164: EB 08              jmp         0040716E
  00407166: 8B 86 A0 9B 00 00  mov         eax,dword ptr [esi+00009BA0h]
  0040716C: 2B C7              sub         eax,edi
  0040716E: 8B 96 A0 9B 00 00  mov         edx,dword ptr [esi+00009BA0h]
  00407174: 3B FA              cmp         edi,edx
  00407176: 89 55 F8           mov         dword ptr [ebp-8],edx
  00407179: 75 1F              jne         0040719A
  0040717B: 8D 96 A0 1B 00 00  lea         edx,[esi+00001BA0h]
  00407181: 3B CA              cmp         ecx,edx
  00407183: 74 15              je          0040719A
  00407185: 8B FA              mov         edi,edx
  00407187: 3B F9              cmp         edi,ecx
  00407189: 89 7D D0           mov         dword ptr [ebp-30h],edi
  0040718C: 73 07              jae         00407195
  0040718E: 2B CF              sub         ecx,edi
  00407190: 49                 dec         ecx
  00407191: 8B C1              mov         eax,ecx
  00407193: EB 05              jmp         0040719A
  00407195: 8B 45 F8           mov         eax,dword ptr [ebp-8]
  00407198: 2B C7              sub         eax,edi
  0040719A: 85 C0              test        eax,eax
  0040719C: 0F 84 93 00 00 00  je          00407235
  004071A2: 8A 4E 08           mov         cl,byte ptr [esi+8]
  004071A5: 88 0F              mov         byte ptr [edi],cl
  004071A7: 47                 inc         edi
  004071A8: 48                 dec         eax
  004071A9: 89 7D D0           mov         dword ptr [ebp-30h],edi
  004071AC: 89 45 D4           mov         dword ptr [ebp-2Ch],eax
  004071AF: E9 11 F8 FF FF     jmp         004069C5
  004071B4: 83 FB 07           cmp         ebx,7
  004071B7: 76 09              jbe         004071C2
  004071B9: 83 EB 08           sub         ebx,8
  004071BC: FF 45 CC           inc         dword ptr [ebp-34h]
  004071BF: FF 4D C8           dec         dword ptr [ebp-38h]
  004071C2: 8B 45 D0           mov         eax,dword ptr [ebp-30h]
  004071C5: FF 75 08           push        dword ptr [ebp+8]
  004071C8: 89 86 A8 9B 00 00  mov         dword ptr [esi+00009BA8h],eax
  004071CE: E8 B1 00 00 00     call        00407284
  004071D3: 8B 8E A8 9B 00 00  mov         ecx,dword ptr [esi+00009BA8h]
  004071D9: 8B 96 A4 9B 00 00  mov         edx,dword ptr [esi+00009BA4h]
  004071DF: 3B CA              cmp         ecx,edx
  004071E1: 89 4D D0           mov         dword ptr [ebp-30h],ecx
  004071E4: 73 07              jae         004071ED
  004071E6: 8B C2              mov         eax,edx
  004071E8: 2B C1              sub         eax,ecx
  004071EA: 48                 dec         eax
  004071EB: EB 08              jmp         004071F5
  004071ED: 8B 86 A0 9B 00 00  mov         eax,dword ptr [esi+00009BA0h]
  004071F3: 2B C1              sub         eax,ecx
  004071F5: 3B CA              cmp         ecx,edx
  004071F7: 89 45 D4           mov         dword ptr [ebp-2Ch],eax
  004071FA: 75 39              jne         00407235
  004071FC: 8B 86 14 05 00 00  mov         eax,dword ptr [esi+00000514h]
  00407202: 83 F8 08           cmp         eax,8
  00407205: 89 06              mov         dword ptr [esi],eax
  00407207: 75 33              jne         0040723C
  00407209: 8B 06              mov         eax,dword ptr [esi]
  0040720B: 83 F8 0F           cmp         eax,0Fh
  0040720E: 0F 86 32 F6 FF FF  jbe         00406846
  00407214: E9 93 F6 FF FF     jmp         004068AC
  00407219: 8B 45 C0           mov         eax,dword ptr [ebp-40h]
  0040721C: 33 FF              xor         edi,edi
  0040721E: 89 86 1C 05 00 00  mov         dword ptr [esi+0000051Ch],eax
  00407224: 8B 45 08           mov         eax,dword ptr [ebp+8]
  00407227: 89 9E 18 05 00 00  mov         dword ptr [esi+00000518h],ebx
  0040722D: 89 78 04           mov         dword ptr [eax+4],edi
  00407230: E9 98 F6 FF FF     jmp         004068CD
  00407235: 33 FF              xor         edi,edi
  00407237: E9 79 F6 FF FF     jmp         004068B5
  0040723C: 33 FF              xor         edi,edi
  0040723E: 47                 inc         edi
  0040723F: E9 71 F6 FF FF     jmp         004068B5
  00407244: 41                 inc         ecx
  00407245: 6E                 outs        dx,byte ptr [esi]
  00407246: 40                 inc         eax
  00407247: 00 54 6E 40        add         byte ptr [esi+ebp*2+40h],dl
  0040724B: 00 EA              add         dl,ch
  0040724D: 6E                 outs        dx,byte ptr [esi]
  0040724E: 40                 inc         eax
  0040724F: 00 3B              add         byte ptr [ebx],bh
  00407251: 6F                 outs        dx,dword ptr [esi]
  00407252: 40                 inc         eax
  00407253: 00 B9 6F 40 00 FD  add         byte ptr [ecx+FD00406Fh],bh
  00407259: 6F                 outs        dx,dword ptr [esi]
  0040725A: 40                 inc         eax
  0040725B: 00 03              add         byte ptr [ebx],al
  0040725D: 71 40              jno         0040729F
  0040725F: 00 B4 71 40 00 6D  add         byte ptr [ecx+esi*2+686D0040h],dh
            68
  00407266: 40                 inc         eax
  00407267: 00 02              add         byte ptr [edx],al
  00407269: 6A 40              push        40h
  0040726B: 00 27              add         byte ptr [edi],ah
  0040726D: 6A 40              push        40h
  0040726F: 00 35 6B 40 00 74  add         byte ptr ds:[7400406Bh],dh
  00407275: 6B 40 00 57        imul        eax,dword ptr [eax],57h
  00407279: 6D                 ins         dword ptr es:[edi],dx
  0040727A: 40                 inc         eax
  0040727B: 00 AC 68 40 00 C2  add         byte ptr [eax+ebp*2+71C20040h],ch
            71
  00407282: 40                 inc         eax
  00407283: 00 53 56           add         byte ptr [ebx+56h],dl
  00407286: 8B 74 24 0C        mov         esi,dword ptr [esp+0Ch]
  0040728A: 57                 push        edi
  0040728B: 8B BE B4 9B 00 00  mov         edi,dword ptr [esi+00009BB4h]
  00407291: 8B 9E B8 9B 00 00  mov         ebx,dword ptr [esi+00009BB8h]
  00407297: 3B FB              cmp         edi,ebx
  00407299: 76 06              jbe         004072A1
  0040729B: 8B 9E B0 9B 00 00  mov         ebx,dword ptr [esi+00009BB0h]
  004072A1: 8B 46 0C           mov         eax,dword ptr [esi+0Ch]
  004072A4: 2B DF              sub         ebx,edi
  004072A6: 3B D8              cmp         ebx,eax
  004072A8: 72 02              jb          004072AC
  004072AA: 8B D8              mov         ebx,eax
  004072AC: 53                 push        ebx
  004072AD: 57                 push        edi
  004072AE: FF 76 08           push        dword ptr [esi+8]
  004072B1: 2B C3              sub         eax,ebx
  004072B3: 89 46 0C           mov         dword ptr [esi+0Ch],eax
  004072B6: E8 B0 EA FF FF     call        00405D6B
  004072BB: 01 5E 08           add         dword ptr [esi+8],ebx
  004072BE: 8B 86 B0 9B 00 00  mov         eax,dword ptr [esi+00009BB0h]
  004072C4: 03 FB              add         edi,ebx
  004072C6: 3B F8              cmp         edi,eax
  004072C8: 75 16              jne         004072E0
  004072CA: 39 86 B8 9B 00 00  cmp         dword ptr [esi+00009BB8h],eax
  004072D0: 8D BE B0 1B 00 00  lea         edi,[esi+00001BB0h]
  004072D6: 75 B9              jne         00407291
  004072D8: 89 BE B8 9B 00 00  mov         dword ptr [esi+00009BB8h],edi
  004072DE: EB B1              jmp         00407291
  004072E0: 89 BE B4 9B 00 00  mov         dword ptr [esi+00009BB4h],edi
  004072E6: 5F                 pop         edi
  004072E7: 5E                 pop         esi
  004072E8: 5B                 pop         ebx
  004072E9: C2 04 00           ret         4
  004072EC: 55                 push        ebp
  004072ED: 8B EC              mov         ebp,esp
  004072EF: 81 EC EC 00 00 00  sub         esp,0ECh
  004072F5: 53                 push        ebx
  004072F6: 56                 push        esi
  004072F7: 8B 75 0C           mov         esi,dword ptr [ebp+0Ch]
  004072FA: 57                 push        edi
  004072FB: 6A 10              push        10h
  004072FD: 33 C0              xor         eax,eax
  004072FF: 59                 pop         ecx
  00407300: 8D 7D 90           lea         edi,[ebp-70h]
  00407303: F3 AB              rep stos    dword ptr es:[edi]
  00407305: 8B 4D 08           mov         ecx,dword ptr [ebp+8]
  00407308: 8B D6              mov         edx,esi
  0040730A: 8B 01              mov         eax,dword ptr [ecx]
  0040730C: 83 C1 04           add         ecx,4
  0040730F: 8D 44 85 90        lea         eax,[ebp+eax*4-70h]
  00407313: FF 00              inc         dword ptr [eax]
  00407315: 4A                 dec         edx
  00407316: 75 F2              jne         0040730A
  00407318: 39 75 90           cmp         dword ptr [ebp-70h],esi
  0040731B: 75 13              jne         00407330
  0040731D: 8B 45 1C           mov         eax,dword ptr [ebp+1Ch]
  00407320: 83 20 00           and         dword ptr [eax],0
  00407323: 8B 45 20           mov         eax,dword ptr [ebp+20h]
  00407326: 83 20 00           and         dword ptr [eax],0
  00407329: 33 C0              xor         eax,eax
  0040732B: E9 F0 02 00 00     jmp         00407620
  00407330: 8B 75 20           mov         esi,dword ptr [ebp+20h]
  00407333: 33 DB              xor         ebx,ebx
  00407335: 43                 inc         ebx
  00407336: 6A 0F              push        0Fh
  00407338: 8B 3E              mov         edi,dword ptr [esi]
  0040733A: 8B CB              mov         ecx,ebx
  0040733C: 89 7D 20           mov         dword ptr [ebp+20h],edi
  0040733F: 5A                 pop         edx
  00407340: 33 C0              xor         eax,eax
  00407342: 39 44 8D 90        cmp         dword ptr [ebp+ecx*4-70h],eax
  00407346: 75 05              jne         0040734D
  00407348: 41                 inc         ecx
  00407349: 3B CA              cmp         ecx,edx
  0040734B: 76 F3              jbe         00407340
  0040734D: 3B F9              cmp         edi,ecx
  0040734F: 89 4D FC           mov         dword ptr [ebp-4],ecx
  00407352: 73 03              jae         00407357
  00407354: 89 4D 20           mov         dword ptr [ebp+20h],ecx
  00407357: 39 44 95 90        cmp         dword ptr [ebp+edx*4-70h],eax
  0040735B: 75 03              jne         00407360
  0040735D: 4A                 dec         edx
  0040735E: 75 F7              jne         00407357
  00407360: 39 55 20           cmp         dword ptr [ebp+20h],edx
  00407363: 89 55 E8           mov         dword ptr [ebp-18h],edx
  00407366: 76 03              jbe         0040736B
  00407368: 89 55 20           mov         dword ptr [ebp+20h],edx
  0040736B: 8B 7D 20           mov         edi,dword ptr [ebp+20h]
  0040736E: 89 3E              mov         dword ptr [esi],edi
  00407370: D3 E3              shl         ebx,cl
  00407372: EB 0D              jmp         00407381
  00407374: 2B 5C 8D 90        sub         ebx,dword ptr [ebp+ecx*4-70h]
  00407378: 0F 88 9F 02 00 00  js          0040761D
  0040737E: 41                 inc         ecx
  0040737F: 03 DB              add         ebx,ebx
  00407381: 3B CA              cmp         ecx,edx
  00407383: 72 EF              jb          00407374
  00407385: 8B F2              mov         esi,edx
  00407387: C1 E6 02           shl         esi,2
  0040738A: 8D 4C 35 90        lea         ecx,[ebp+esi-70h]
  0040738E: 8B 39              mov         edi,dword ptr [ecx]
  00407390: 2B DF              sub         ebx,edi
  00407392: 89 5D D0           mov         dword ptr [ebp-30h],ebx
  00407395: 0F 88 82 02 00 00  js          0040761D
  0040739B: 03 FB              add         edi,ebx
  0040739D: 89 85 54 FF FF FF  mov         dword ptr [ebp+FFFFFF54h],eax
  004073A3: 89 39              mov         dword ptr [ecx],edi
  004073A5: 33 C9              xor         ecx,ecx
  004073A7: 4A                 dec         edx
  004073A8: 74 13              je          004073BD
  004073AA: 33 FF              xor         edi,edi
  004073AC: 03 4C 3D 94        add         ecx,dword ptr [ebp+edi-6Ch]
  004073B0: 83 C7 04           add         edi,4
  004073B3: 4A                 dec         edx
  004073B4: 89 8C 3D 54 FF FF  mov         dword ptr [ebp+edi+FFFFFF54h],ecx
            FF
  004073BB: 75 EF              jne         004073AC
  004073BD: 8B 5D 08           mov         ebx,dword ptr [ebp+8]
  004073C0: 33 FF              xor         edi,edi
  004073C2: 8B 0B              mov         ecx,dword ptr [ebx]
  004073C4: 83 C3 04           add         ebx,4
  004073C7: 3B C8              cmp         ecx,eax
  004073C9: 74 13              je          004073DE
  004073CB: 8D 8C 8D 50 FF FF  lea         ecx,[ebp+ecx*4+FFFFFF50h]
            FF
  004073D2: 8B 11              mov         edx,dword ptr [ecx]
  004073D4: 89 3C 95 70 21 43  mov         dword ptr [edx*4+00432170h],edi
            00
  004073DB: 42                 inc         edx
  004073DC: 89 11              mov         dword ptr [ecx],edx
  004073DE: 47                 inc         edi
  004073DF: 3B 7D 0C           cmp         edi,dword ptr [ebp+0Ch]
  004073E2: 72 DE              jb          004073C2
  004073E4: 8B 8C 35 50 FF FF  mov         ecx,dword ptr [ebp+esi+FFFFFF50h]
            FF
  004073EB: 8B 5D 20           mov         ebx,dword ptr [ebp+20h]
  004073EE: 83 4D F4 FF        or          dword ptr [ebp-0Ch],0FFFFFFFFh
  004073F2: 83 65 DC 00        and         dword ptr [ebp-24h],0
  004073F6: 89 4D 0C           mov         dword ptr [ebp+0Ch],ecx
  004073F9: 8B 4D FC           mov         ecx,dword ptr [ebp-4]
  004073FC: F7 DB              neg         ebx
  004073FE: 3B 4D E8           cmp         ecx,dword ptr [ebp-18h]
  00407401: 89 45 F8           mov         dword ptr [ebp-8],eax
  00407404: 89 85 50 FF FF FF  mov         dword ptr [ebp+FFFFFF50h],eax
  0040740A: C7 45 E0 70 21 43  mov         dword ptr [ebp-20h],432170h
            00
  00407411: 89 85 14 FF FF FF  mov         dword ptr [ebp+FFFFFF14h],eax
  00407417: 0F 8F F3 01 00 00  jg          00407610
  0040741D: 8D 51 FF           lea         edx,[ecx-1]
  00407420: 8D 4C 8D 90        lea         ecx,[ebp+ecx*4-70h]
  00407424: 89 55 D8           mov         dword ptr [ebp-28h],edx
  00407427: 89 4D E4           mov         dword ptr [ebp-1Ch],ecx
  0040742A: 8B 4D E4           mov         ecx,dword ptr [ebp-1Ch]
  0040742D: 8B 31              mov         esi,dword ptr [ecx]
  0040742F: 85 F6              test        esi,esi
  00407431: 0F 84 C3 01 00 00  je          004075FA
  00407437: EB 03              jmp         0040743C
  00407439: 8B 75 D4           mov         esi,dword ptr [ebp-2Ch]
  0040743C: 8B 4D 20           mov         ecx,dword ptr [ebp+20h]
  0040743F: 4E                 dec         esi
  00407440: 03 CB              add         ecx,ebx
  00407442: 89 75 D4           mov         dword ptr [ebp-2Ch],esi
  00407445: 39 4D FC           cmp         dword ptr [ebp-4],ecx
  00407448: 89 4D EC           mov         dword ptr [ebp-14h],ecx
  0040744B: 0F 8E CC 00 00 00  jle         0040751D
  00407451: 46                 inc         esi
  00407452: 89 75 F0           mov         dword ptr [ebp-10h],esi
  00407455: 8B 75 E8           mov         esi,dword ptr [ebp-18h]
  00407458: FF 45 F4           inc         dword ptr [ebp-0Ch]
  0040745B: 2B 75 EC           sub         esi,dword ptr [ebp-14h]
  0040745E: 3B 75 20           cmp         esi,dword ptr [ebp+20h]
  00407461: 76 03              jbe         00407466
  00407463: 8B 75 20           mov         esi,dword ptr [ebp+20h]
  00407466: 8B 4D FC           mov         ecx,dword ptr [ebp-4]
  00407469: 33 D2              xor         edx,edx
  0040746B: 2B 4D EC           sub         ecx,dword ptr [ebp-14h]
  0040746E: 42                 inc         edx
  0040746F: D3 E2              shl         edx,cl
  00407471: 3B 55 F0           cmp         edx,dword ptr [ebp-10h]
  00407474: 76 23              jbe         00407499
  00407476: 8B 7D E4           mov         edi,dword ptr [ebp-1Ch]
  00407479: 83 C8 FF           or          eax,0FFFFFFFFh
  0040747C: 2B 45 D4           sub         eax,dword ptr [ebp-2Ch]
  0040747F: 03 D0              add         edx,eax
  00407481: 3B CE              cmp         ecx,esi
  00407483: 73 14              jae         00407499
  00407485: EB 0D              jmp         00407494
  00407487: 83 C7 04           add         edi,4
  0040748A: 03 D2              add         edx,edx
  0040748C: 8B 07              mov         eax,dword ptr [edi]
  0040748E: 3B D0              cmp         edx,eax
  00407490: 76 07              jbe         00407499
  00407492: 2B D0              sub         edx,eax
  00407494: 41                 inc         ecx
  00407495: 3B CE              cmp         ecx,esi
  00407497: 72 EE              jb          00407487
  00407499: 8B 55 28           mov         edx,dword ptr [ebp+28h]
  0040749C: 33 C0              xor         eax,eax
  0040749E: 40                 inc         eax
  0040749F: 8B 12              mov         edx,dword ptr [edx]
  004074A1: D3 E0              shl         eax,cl
  004074A3: 89 45 DC           mov         dword ptr [ebp-24h],eax
  004074A6: 8D 3C 02           lea         edi,[edx+eax]
  004074A9: 81 FF A0 05 00 00  cmp         edi,5A0h
  004074AF: 0F 87 68 01 00 00  ja          0040761D
  004074B5: 8B 45 24           mov         eax,dword ptr [ebp+24h]
  004074B8: 8D 04 90           lea         eax,[eax+edx*4]
  004074BB: 8B 55 F4           mov         edx,dword ptr [ebp-0Ch]
  004074BE: 8D B4 95 14 FF FF  lea         esi,[ebp+edx*4+FFFFFF14h]
            FF
  004074C5: 8B 55 28           mov         edx,dword ptr [ebp+28h]
  004074C8: 89 3A              mov         dword ptr [edx],edi
  004074CA: 8B 55 F4           mov         edx,dword ptr [ebp-0Ch]
  004074CD: 85 D2              test        edx,edx
  004074CF: 89 06              mov         dword ptr [esi],eax
  004074D1: 74 31              je          00407504
  004074D3: 8B 7D F8           mov         edi,dword ptr [ebp-8]
  004074D6: 8B 76 FC           mov         esi,dword ptr [esi-4]
  004074D9: 89 BC 95 50 FF FF  mov         dword ptr [ebp+edx*4+FFFFFF50h],edi
            FF
  004074E0: 8A 55 20           mov         dl,byte ptr [ebp+20h]
  004074E3: 88 55 09           mov         byte ptr [ebp+9],dl
  004074E6: 88 4D 08           mov         byte ptr [ebp+8],cl
  004074E9: 8B D7              mov         edx,edi
  004074EB: 8B CB              mov         ecx,ebx
  004074ED: D3 EA              shr         edx,cl
  004074EF: 8B C8              mov         ecx,eax
  004074F1: 2B CE              sub         ecx,esi
  004074F3: C1 F9 02           sar         ecx,2
  004074F6: 2B CA              sub         ecx,edx
  004074F8: 66 89 4D 0A        mov         word ptr [ebp+0Ah],cx
  004074FC: 8B 4D 08           mov         ecx,dword ptr [ebp+8]
  004074FF: 89 0C 96           mov         dword ptr [esi+edx*4],ecx
  00407502: EB 05              jmp         00407509
  00407504: 8B 4D 1C           mov         ecx,dword ptr [ebp+1Ch]
  00407507: 89 01              mov         dword ptr [ecx],eax
  00407509: 8B 4D EC           mov         ecx,dword ptr [ebp-14h]
  0040750C: 8B D9              mov         ebx,ecx
  0040750E: 03 4D 20           add         ecx,dword ptr [ebp+20h]
  00407511: 39 4D FC           cmp         dword ptr [ebp-4],ecx
  00407514: 89 4D EC           mov         dword ptr [ebp-14h],ecx
  00407517: 0F 8F 38 FF FF FF  jg          00407455
  0040751D: 8A 4D FC           mov         cl,byte ptr [ebp-4]
  00407520: 8B 75 E0           mov         esi,dword ptr [ebp-20h]
  00407523: 2A CB              sub         cl,bl
  00407525: 88 4D 09           mov         byte ptr [ebp+9],cl
  00407528: 8B 4D 0C           mov         ecx,dword ptr [ebp+0Ch]
  0040752B: 8D 0C 8D 70 21 43  lea         ecx,[ecx*4+00432170h]
            00
  00407532: 3B F1              cmp         esi,ecx
  00407534: 72 06              jb          0040753C
  00407536: C6 45 08 C0        mov         byte ptr [ebp+8],0C0h
  0040753A: EB 43              jmp         0040757F
  0040753C: 8B 0E              mov         ecx,dword ptr [esi]
  0040753E: 3B 4D 10           cmp         ecx,dword ptr [ebp+10h]
  00407541: 73 1C              jae         0040755F
  00407543: 81 F9 00 01 00 00  cmp         ecx,100h
  00407549: 0F 92 C1           setb        cl
  0040754C: FE C9              dec         cl
  0040754E: 83 E1 60           and         ecx,60h
  00407551: 88 4D 08           mov         byte ptr [ebp+8],cl
  00407554: 66 8B 0E           mov         cx,word ptr [esi]
  00407557: 83 C6 04           add         esi,4
  0040755A: 89 75 E0           mov         dword ptr [ebp-20h],esi
  0040755D: EB 1C              jmp         0040757B
  0040755F: 2B 4D 10           sub         ecx,dword ptr [ebp+10h]
  00407562: 8B 55 18           mov         edx,dword ptr [ebp+18h]
  00407565: 03 C9              add         ecx,ecx
  00407567: 8A 14 11           mov         dl,byte ptr [ecx+edx]
  0040756A: 80 C2 50           add         dl,50h
  0040756D: 83 45 E0 04        add         dword ptr [ebp-20h],4
  00407571: 88 55 08           mov         byte ptr [ebp+8],dl
  00407574: 8B 55 14           mov         edx,dword ptr [ebp+14h]
  00407577: 66 8B 0C 11        mov         cx,word ptr [ecx+edx]
  0040757B: 66 89 4D 0A        mov         word ptr [ebp+0Ah],cx
  0040757F: 8B 4D FC           mov         ecx,dword ptr [ebp-4]
  00407582: 8B 55 F8           mov         edx,dword ptr [ebp-8]
  00407585: 33 FF              xor         edi,edi
  00407587: 2B CB              sub         ecx,ebx
  00407589: 47                 inc         edi
  0040758A: 8B F7              mov         esi,edi
  0040758C: D3 E6              shl         esi,cl
  0040758E: 8B CB              mov         ecx,ebx
  00407590: D3 EA              shr         edx,cl
  00407592: EB 08              jmp         0040759C
  00407594: 8B 4D 08           mov         ecx,dword ptr [ebp+8]
  00407597: 89 0C 90           mov         dword ptr [eax+edx*4],ecx
  0040759A: 03 D6              add         edx,esi
  0040759C: 3B 55 DC           cmp         edx,dword ptr [ebp-24h]
  0040759F: 72 F3              jb          00407594
  004075A1: 8B 4D D8           mov         ecx,dword ptr [ebp-28h]
  004075A4: 8B 75 F8           mov         esi,dword ptr [ebp-8]
  004075A7: 8B D7              mov         edx,edi
  004075A9: D3 E2              shl         edx,cl
  004075AB: EB 04              jmp         004075B1
  004075AD: 33 F2              xor         esi,edx
  004075AF: D1 EA              shr         edx,1
  004075B1: 85 D6              test        esi,edx
  004075B3: 75 F8              jne         004075AD
  004075B5: 8B CF              mov         ecx,edi
  004075B7: 33 F2              xor         esi,edx
  004075B9: 89 4D F0           mov         dword ptr [ebp-10h],ecx
  004075BC: 8B CB              mov         ecx,ebx
  004075BE: 8B D7              mov         edx,edi
  004075C0: 89 75 F8           mov         dword ptr [ebp-8],esi
  004075C3: D3 E2              shl         edx,cl
  004075C5: 4A                 dec         edx
  004075C6: 23 D6              and         edx,esi
  004075C8: 8B CA              mov         ecx,edx
  004075CA: 8B 55 F4           mov         edx,dword ptr [ebp-0Ch]
  004075CD: 3B 8C 95 50 FF FF  cmp         ecx,dword ptr [ebp+edx*4+FFFFFF50h]
            FF
  004075D4: 74 1A              je          004075F0
  004075D6: 2B 5D 20           sub         ebx,dword ptr [ebp+20h]
  004075D9: 8B F7              mov         esi,edi
  004075DB: 4A                 dec         edx
  004075DC: 8B CB              mov         ecx,ebx
  004075DE: D3 E6              shl         esi,cl
  004075E0: 4E                 dec         esi
  004075E1: 23 75 F8           and         esi,dword ptr [ebp-8]
  004075E4: 3B B4 95 50 FF FF  cmp         esi,dword ptr [ebp+edx*4+FFFFFF50h]
            FF
  004075EB: 75 E9              jne         004075D6
  004075ED: 89 55 F4           mov         dword ptr [ebp-0Ch],edx
  004075F0: 83 7D D4 00        cmp         dword ptr [ebp-2Ch],0
  004075F4: 0F 85 3F FE FF FF  jne         00407439
  004075FA: FF 45 FC           inc         dword ptr [ebp-4]
  004075FD: 83 45 E4 04        add         dword ptr [ebp-1Ch],4
  00407601: 8B 4D FC           mov         ecx,dword ptr [ebp-4]
  00407604: FF 45 D8           inc         dword ptr [ebp-28h]
  00407607: 3B 4D E8           cmp         ecx,dword ptr [ebp-18h]
  0040760A: 0F 8E 1A FE FF FF  jle         0040742A
  00407610: 33 C0              xor         eax,eax
  00407612: 39 45 D0           cmp         dword ptr [ebp-30h],eax
  00407615: 74 09              je          00407620
  00407617: 83 7D E8 01        cmp         dword ptr [ebp-18h],1
  0040761B: 74 03              je          00407620
  0040761D: 83 C8 FF           or          eax,0FFFFFFFFh
  00407620: 5F                 pop         edi
  00407621: 5E                 pop         esi
  00407622: 5B                 pop         ebx
  00407623: C9                 leave
  00407624: C2 24 00           ret         24h

  Summary

       2B000 .data
       28000 .ndata
        2000 .rdata
       1C000 .rsrc
        7000 .text
